
./obj/main.elf:     file format elf32-loongarch
./obj/main.elf


Disassembly of section .text:

1c000000 <_start>:
kernel_entry():
1c000000:	02bffc0c 	addi.w	$r12,$r0,-1(0xfff)
1c000004:	02bffc0c 	addi.w	$r12,$r0,-1(0xfff)
1c000008:	50fff800 	b	65528(0xfff8) # 1c010000 <locate>
1c00000c:	1500000c 	lu12i.w	$r12,-524288(0x80000)
1c000010:	028005ad 	addi.w	$r13,$r13,1(0x1)
1c000014:	0015018e 	move	$r14,$r12
1c000018:	00104a2f 	add.w	$r15,$r17,$r18
1c00001c:	28800190 	ld.w	$r16,$r12,0
	...
1c0000ec:	1500000c 	lu12i.w	$r12,-524288(0x80000)
1c0000f0:	028005ad 	addi.w	$r13,$r13,1(0x1)
1c0000f4:	0015018e 	move	$r14,$r12
1c0000f8:	00104a2f 	add.w	$r15,$r17,$r18
1c0000fc:	28800190 	ld.w	$r16,$r12,0

1c000100 <test_finish>:
test_finish():
1c000100:	0280058c 	addi.w	$r12,$r12,1(0x1)
1c000104:	157f600e 	lu12i.w	$r14,-263424(0xbfb00)
1c000108:	02bc41ce 	addi.w	$r14,$r14,-240(0xf10)
1c00010c:	298001c0 	st.w	$r0,$r14,0
1c000110:	50000000 	b	0 # 1c000110 <test_finish+0x10>
1c000114:	1500000c 	lu12i.w	$r12,-524288(0x80000)
1c000118:	028005ad 	addi.w	$r13,$r13,1(0x1)
1c00011c:	0015018e 	move	$r14,$r12
1c000120:	00104a2f 	add.w	$r15,$r17,$r18
1c000124:	28800190 	ld.w	$r16,$r12,0
	...

1c010000 <locate>:
locate():
1c010000:	157f5fe4 	lu12i.w	$r4,-263425(0xbfaff)
1c010004:	02810084 	addi.w	$r4,$r4,64(0x40)
1c010008:	157f5fe5 	lu12i.w	$r5,-263425(0xbfaff)
1c01000c:	0280c0a5 	addi.w	$r5,$r5,48(0x30)
1c010010:	157f5fe6 	lu12i.w	$r6,-263425(0xbfaff)
1c010014:	028080c6 	addi.w	$r6,$r6,32(0x20)
1c010018:	157f5ff8 	lu12i.w	$r24,-263425(0xbfaff)
1c01001c:	02814318 	addi.w	$r24,$r24,80(0x50)
1c010020:	1400000d 	lu12i.w	$r13,0
1c010024:	028009ad 	addi.w	$r13,$r13,2(0x2)
1c010028:	1400000e 	lu12i.w	$r14,0
1c01002c:	028005ce 	addi.w	$r14,$r14,1(0x1)
1c010030:	1400020f 	lu12i.w	$r15,16(0x10)
1c010034:	02bffdef 	addi.w	$r15,$r15,-1(0xfff)
1c010038:	1400001a 	lu12i.w	$r26,0
1c01003c:	2980008d 	st.w	$r13,$r4,0
1c010040:	298000ae 	st.w	$r14,$r5,0
1c010044:	298000cf 	st.w	$r15,$r6,0
1c010048:	2980031a 	st.w	$r26,$r24,0
1c01004c:	14000017 	lu12i.w	$r23,0

1c010050 <inst_test>:
inst_test():
1c010050:	54a6a800 	bl	42664(0xa6a8) # 1c01a6f8 <n1_lu12i_w_test>
1c010054:	54010400 	bl	260(0x104) # 1c010158 <idle_1s>
1c010058:	54f73800 	bl	63288(0xf738) # 1c01f790 <n2_add_w_test>
1c01005c:	5400fc00 	bl	252(0xfc) # 1c010158 <idle_1s>
1c010060:	54c5e000 	bl	50656(0xc5e0) # 1c01c640 <n3_addi_w_test>
1c010064:	5400f400 	bl	244(0xf4) # 1c010158 <idle_1s>
1c010068:	54823000 	bl	33328(0x8230) # 1c018298 <n4_sub_w_test>
1c01006c:	5400ec00 	bl	236(0xec) # 1c010158 <idle_1s>
1c010070:	54cc3800 	bl	52280(0xcc38) # 1c01cca8 <n5_slt_test>
1c010074:	5400e400 	bl	228(0xe4) # 1c010158 <idle_1s>
1c010078:	549bb800 	bl	39864(0x9bb8) # 1c019c30 <n6_sltu_test>
1c01007c:	5400dc00 	bl	220(0xdc) # 1c010158 <idle_1s>
1c010080:	547b9800 	bl	31640(0x7b98) # 1c017c18 <n7_and_test>
1c010084:	5400d400 	bl	212(0xd4) # 1c010158 <idle_1s>
1c010088:	55040800 	bl	66568(0x10408) # 1c020490 <n8_or_test>
1c01008c:	5400cc00 	bl	204(0xcc) # 1c010158 <idle_1s>
1c010090:	54cdb800 	bl	52664(0xcdb8) # 1c01ce48 <n9_xor_test>
1c010094:	5400c400 	bl	196(0xc4) # 1c010158 <idle_1s>
1c010098:	54efd800 	bl	61400(0xefd8) # 1c01f070 <n10_nor_test>
1c01009c:	5400bc00 	bl	188(0xbc) # 1c010158 <idle_1s>
1c0100a0:	5509b000 	bl	68016(0x109b0) # 1c020a50 <n11_slli_w_test>
1c0100a4:	5400b400 	bl	180(0xb4) # 1c010158 <idle_1s>
1c0100a8:	54e08000 	bl	57472(0xe080) # 1c01e128 <n12_srli_w_test>
1c0100ac:	5400ac00 	bl	172(0xac) # 1c010158 <idle_1s>
1c0100b0:	54a28000 	bl	41600(0xa280) # 1c01a330 <n13_srai_w_test>
1c0100b4:	5400a400 	bl	164(0xa4) # 1c010158 <idle_1s>
1c0100b8:	550fe800 	bl	69608(0x10fe8) # 1c0210a0 <n14_ld_w_test>
1c0100bc:	54009c00 	bl	156(0x9c) # 1c010158 <idle_1s>
1c0100c0:	55198000 	bl	72064(0x11980) # 1c021a40 <n15_st_w_test>
1c0100c4:	54009400 	bl	148(0x94) # 1c010158 <idle_1s>
1c0100c8:	54059800 	bl	1432(0x598) # 1c010660 <n16_beq_test>
1c0100cc:	54008c00 	bl	140(0x8c) # 1c010158 <idle_1s>
1c0100d0:	548cc800 	bl	36040(0x8cc8) # 1c018d98 <n17_bne_test>
1c0100d4:	54008400 	bl	132(0x84) # 1c010158 <idle_1s>
1c0100d8:	54e41800 	bl	58392(0xe418) # 1c01e4f0 <n18_bl_test>
1c0100dc:	54007c00 	bl	124(0x7c) # 1c010158 <idle_1s>
1c0100e0:	54aa0800 	bl	43528(0xaa08) # 1c01aae8 <n19_jirl_test>
1c0100e4:	54007400 	bl	116(0x74) # 1c010158 <idle_1s>
1c0100e8:	54d30000 	bl	54016(0xd300) # 1c01d3e8 <n20_b_test>
1c0100ec:	54006c00 	bl	108(0x6c) # 1c010158 <idle_1s>

1c0100f0 <test_end>:
test_end():
1c0100f0:	14000017 	lu12i.w	$r23,0
1c0100f4:	028052f7 	addi.w	$r23,$r23,20(0x14)
1c0100f8:	58003afa 	beq	$r23,$r26,56(0x38) # 1c010130 <test_end+0x40>
1c0100fc:	157f5fe4 	lu12i.w	$r4,-263425(0xbfaff)
1c010100:	02808084 	addi.w	$r4,$r4,32(0x20)
1c010104:	157f5fe5 	lu12i.w	$r5,-263425(0xbfaff)
1c010108:	028100a5 	addi.w	$r5,$r5,64(0x40)
1c01010c:	157f5fe6 	lu12i.w	$r6,-263425(0xbfaff)
1c010110:	0280c0c6 	addi.w	$r6,$r6,48(0x30)
1c010114:	1400000d 	lu12i.w	$r13,0
1c010118:	028009ad 	addi.w	$r13,$r13,2(0x2)
1c01011c:	29800080 	st.w	$r0,$r4,0
1c010120:	298000ad 	st.w	$r13,$r5,0
1c010124:	298000cd 	st.w	$r13,$r6,0
1c010128:	03800404 	ori	$r4,$r0,0x1
1c01012c:	50002800 	b	40(0x28) # 1c010154 <test_end+0x64>
1c010130:	1400000d 	lu12i.w	$r13,0
1c010134:	028005ad 	addi.w	$r13,$r13,1(0x1)
1c010138:	157f5fe4 	lu12i.w	$r4,-263425(0xbfaff)
1c01013c:	02810084 	addi.w	$r4,$r4,64(0x40)
1c010140:	157f5fe5 	lu12i.w	$r5,-263425(0xbfaff)
1c010144:	0280c0a5 	addi.w	$r5,$r5,48(0x30)
1c010148:	2980008d 	st.w	$r13,$r4,0
1c01014c:	298000ad 	st.w	$r13,$r5,0
1c010150:	00150004 	move	$r4,$r0
1c010154:	56ffafff 	bl	-65620(0xffeffac) # 1c000100 <test_finish>

1c010158 <idle_1s>:
idle_1s():
1c010158:	157f5fec 	lu12i.w	$r12,-263425(0xbfaff)
1c01015c:	0282418c 	addi.w	$r12,$r12,144(0x90)
1c010160:	1400016d 	lu12i.w	$r13,11(0xb)
1c010164:	02aaa9ad 	addi.w	$r13,$r13,-1366(0xaaa)
1c010168:	2880018e 	ld.w	$r14,$r12,0
1c01016c:	0015b5ce 	xor	$r14,$r14,$r13
1c010170:	0040a5cf 	slli.w	$r15,$r14,0x9
1c010174:	028005ef 	addi.w	$r15,$r15,1(0x1)

1c010178 <sub1>:
sub1():
1c010178:	02bffdef 	addi.w	$r15,$r15,-1(0xfff)
1c01017c:	2880018e 	ld.w	$r14,$r12,0
1c010180:	0015b5ce 	xor	$r14,$r14,$r13
1c010184:	0040a5ce 	slli.w	$r14,$r14,0x9
1c010188:	0012b9f0 	sltu	$r16,$r15,$r14
1c01018c:	5c000a00 	bne	$r16,$r0,8(0x8) # 1c010194 <sub1+0x1c>
1c010190:	028001cf 	addi.w	$r15,$r14,0
1c010194:	5fffe5e0 	bne	$r15,$r0,-28(0x3ffe4) # 1c010178 <sub1>
1c010198:	4c000020 	jirl	$r0,$r1,0
1c01019c:	00000000 	0x00000000

1c0101a0 <test4_init>:
test4_init():
1c0101a0:	04000420 	csrwr	$r0,0x1
1c0101a4:	04001820 	csrwr	$r0,0x6
1c0101a8:	04003020 	csrwr	$r0,0xc
1c0101ac:	1438010c 	lu12i.w	$r12,114696(0x1c008)
1c0101b0:	0400302c 	csrwr	$r12,0xc
1c0101b4:	4c000020 	jirl	$r0,$r1,0

1c0101b8 <test5_init>:
test5_init():
1c0101b8:	04000420 	csrwr	$r0,0x1
1c0101bc:	04001820 	csrwr	$r0,0x6
1c0101c0:	04003020 	csrwr	$r0,0xc
1c0101c4:	04001c20 	csrwr	$r0,0x7
1c0101c8:	0400c020 	csrwr	$r0,0x30
1c0101cc:	0400c420 	csrwr	$r0,0x31
1c0101d0:	0400c820 	csrwr	$r0,0x32
1c0101d4:	0400cc20 	csrwr	$r0,0x33
1c0101d8:	04010420 	csrwr	$r0,0x41
1c0101dc:	1438010c 	lu12i.w	$r12,114696(0x1c008)
1c0101e0:	0400302c 	csrwr	$r12,0xc
1c0101e4:	4c000020 	jirl	$r0,$r1,0

1c0101e8 <test6_init>:
test6_init():
1c0101e8:	04000420 	csrwr	$r0,0x1
1c0101ec:	04001820 	csrwr	$r0,0x6
1c0101f0:	04003020 	csrwr	$r0,0xc
1c0101f4:	04001c20 	csrwr	$r0,0x7
1c0101f8:	0400c020 	csrwr	$r0,0x30
1c0101fc:	0400c420 	csrwr	$r0,0x31
1c010200:	0400c820 	csrwr	$r0,0x32
1c010204:	0400cc20 	csrwr	$r0,0x33
1c010208:	04010420 	csrwr	$r0,0x41
1c01020c:	04004020 	csrwr	$r0,0x10
1c010210:	04004420 	csrwr	$r0,0x11
1c010214:	04004820 	csrwr	$r0,0x12
1c010218:	04004c20 	csrwr	$r0,0x13
1c01021c:	04006020 	csrwr	$r0,0x18
1c010220:	04022020 	csrwr	$r0,0x88
1c010224:	0015000c 	move	$r12,$r0
1c010228:	03800c0d 	ori	$r13,$r0,0x3
1c01022c:	040001ac 	csrxchg	$r12,$r13,0x0
1c010230:	04060020 	csrwr	$r0,0x180
1c010234:	04060420 	csrwr	$r0,0x181
1c010238:	4c000020 	jirl	$r0,$r1,0
1c01023c:	03400000 	andi	$r0,$r0,0x0

1c010240 <test8_init>:
test8_init():
1c010240:	04000420 	csrwr	$r0,0x1
1c010244:	04001820 	csrwr	$r0,0x6
1c010248:	04003020 	csrwr	$r0,0xc
1c01024c:	04001c20 	csrwr	$r0,0x7
1c010250:	0400c020 	csrwr	$r0,0x30
1c010254:	0400c420 	csrwr	$r0,0x31
1c010258:	0400c820 	csrwr	$r0,0x32
1c01025c:	0400cc20 	csrwr	$r0,0x33
1c010260:	04010420 	csrwr	$r0,0x41
1c010264:	04004020 	csrwr	$r0,0x10
1c010268:	04004420 	csrwr	$r0,0x11
1c01026c:	04004820 	csrwr	$r0,0x12
1c010270:	04004c20 	csrwr	$r0,0x13
1c010274:	04006020 	csrwr	$r0,0x18
1c010278:	04022020 	csrwr	$r0,0x88
1c01027c:	0380200c 	ori	$r12,$r0,0x8
1c010280:	0380600d 	ori	$r13,$r0,0x18
1c010284:	040001ac 	csrxchg	$r12,$r13,0x0
1c010288:	04060020 	csrwr	$r0,0x180
1c01028c:	04060420 	csrwr	$r0,0x181
1c010290:	4c000020 	jirl	$r0,$r1,0
1c010294:	03400000 	andi	$r0,$r0,0x0

1c010298 <tlb_init>:
tlb_init():
1c010298:	1418000c 	lu12i.w	$r12,49152(0xc000)
1c01029c:	1400020e 	lu12i.w	$r14,16(0x10)
1c0102a0:	1400004f 	lu12i.w	$r15,2(0x2)
1c0102a4:	00103dcd 	add.w	$r13,$r14,$r15
1c0102a8:	0382a80e 	ori	$r14,$r0,0xaa
1c0102ac:	0400602e 	csrwr	$r14,0x18
1c0102b0:	14006950 	lu12i.w	$r16,842(0x34a)
1c0102b4:	03ac0210 	ori	$r16,$r16,0xb00
1c0102b8:	1401ff51 	lu12i.w	$r17,4090(0xffa)
1c0102bc:	03ac0231 	ori	$r17,$r17,0xb00
1c0102c0:	0280018e 	addi.w	$r14,$r12,0
1c0102c4:	028001af 	addi.w	$r15,$r13,0
1c0102c8:	0400402e 	csrwr	$r14,0x10
1c0102cc:	0400442f 	csrwr	$r15,0x11
1c0102d0:	04004830 	csrwr	$r16,0x12
1c0102d4:	04004c31 	csrwr	$r17,0x13
1c0102d8:	06483000 	tlbwr
1c0102dc:	0280058c 	addi.w	$r12,$r12,1(0x1)
1c0102e0:	14000051 	lu12i.w	$r17,2(0x2)
1c0102e4:	001045ad 	add.w	$r13,$r13,$r17
1c0102e8:	14006b50 	lu12i.w	$r16,858(0x35a)
1c0102ec:	03ac0210 	ori	$r16,$r16,0xb00
1c0102f0:	14020151 	lu12i.w	$r17,4106(0x100a)
1c0102f4:	03ac0231 	ori	$r17,$r17,0xb00
1c0102f8:	0280018e 	addi.w	$r14,$r12,0
1c0102fc:	028001af 	addi.w	$r15,$r13,0
1c010300:	0400402e 	csrwr	$r14,0x10
1c010304:	0400442f 	csrwr	$r15,0x11
1c010308:	04004830 	csrwr	$r16,0x12
1c01030c:	04004c31 	csrwr	$r17,0x13
1c010310:	06483000 	tlbwr
1c010314:	0280058c 	addi.w	$r12,$r12,1(0x1)
1c010318:	14000051 	lu12i.w	$r17,2(0x2)
1c01031c:	001045ad 	add.w	$r13,$r13,$r17
1c010320:	14006d50 	lu12i.w	$r16,874(0x36a)
1c010324:	03ac0210 	ori	$r16,$r16,0xb00
1c010328:	14020351 	lu12i.w	$r17,4122(0x101a)
1c01032c:	03ac0231 	ori	$r17,$r17,0xb00
1c010330:	0280018e 	addi.w	$r14,$r12,0
1c010334:	028001af 	addi.w	$r15,$r13,0
1c010338:	0400402e 	csrwr	$r14,0x10
1c01033c:	0400442f 	csrwr	$r15,0x11
1c010340:	04004830 	csrwr	$r16,0x12
1c010344:	04004c31 	csrwr	$r17,0x13
1c010348:	06483000 	tlbwr
1c01034c:	0280058c 	addi.w	$r12,$r12,1(0x1)
1c010350:	14000051 	lu12i.w	$r17,2(0x2)
1c010354:	001045ad 	add.w	$r13,$r13,$r17
1c010358:	14006f50 	lu12i.w	$r16,890(0x37a)
1c01035c:	03ac0210 	ori	$r16,$r16,0xb00
1c010360:	14020551 	lu12i.w	$r17,4138(0x102a)
1c010364:	03ac0231 	ori	$r17,$r17,0xb00
1c010368:	0280018e 	addi.w	$r14,$r12,0
1c01036c:	028001af 	addi.w	$r15,$r13,0
1c010370:	0400402e 	csrwr	$r14,0x10
1c010374:	0400442f 	csrwr	$r15,0x11
1c010378:	04004830 	csrwr	$r16,0x12
1c01037c:	04004c31 	csrwr	$r17,0x13
1c010380:	06483000 	tlbwr
1c010384:	0280058c 	addi.w	$r12,$r12,1(0x1)
1c010388:	14000051 	lu12i.w	$r17,2(0x2)
1c01038c:	001045ad 	add.w	$r13,$r13,$r17
1c010390:	0382ac0e 	ori	$r14,$r0,0xab
1c010394:	0400602e 	csrwr	$r14,0x18
1c010398:	14007150 	lu12i.w	$r16,906(0x38a)
1c01039c:	03ac0210 	ori	$r16,$r16,0xb00
1c0103a0:	14020751 	lu12i.w	$r17,4154(0x103a)
1c0103a4:	03ac0231 	ori	$r17,$r17,0xb00
1c0103a8:	0280018e 	addi.w	$r14,$r12,0
1c0103ac:	028001af 	addi.w	$r15,$r13,0
1c0103b0:	0400402e 	csrwr	$r14,0x10
1c0103b4:	0400442f 	csrwr	$r15,0x11
1c0103b8:	04004830 	csrwr	$r16,0x12
1c0103bc:	04004c31 	csrwr	$r17,0x13
1c0103c0:	06483000 	tlbwr
1c0103c4:	0280058c 	addi.w	$r12,$r12,1(0x1)
1c0103c8:	14000051 	lu12i.w	$r17,2(0x2)
1c0103cc:	001045ad 	add.w	$r13,$r13,$r17
1c0103d0:	14007350 	lu12i.w	$r16,922(0x39a)
1c0103d4:	03ac0210 	ori	$r16,$r16,0xb00
1c0103d8:	14020951 	lu12i.w	$r17,4170(0x104a)
1c0103dc:	03ac0231 	ori	$r17,$r17,0xb00
1c0103e0:	0280018e 	addi.w	$r14,$r12,0
1c0103e4:	028001af 	addi.w	$r15,$r13,0
1c0103e8:	0400402e 	csrwr	$r14,0x10
1c0103ec:	0400442f 	csrwr	$r15,0x11
1c0103f0:	04004830 	csrwr	$r16,0x12
1c0103f4:	04004c31 	csrwr	$r17,0x13
1c0103f8:	06483000 	tlbwr
1c0103fc:	0280058c 	addi.w	$r12,$r12,1(0x1)
1c010400:	14000051 	lu12i.w	$r17,2(0x2)
1c010404:	001045ad 	add.w	$r13,$r13,$r17
1c010408:	14007550 	lu12i.w	$r16,938(0x3aa)
1c01040c:	03ac0210 	ori	$r16,$r16,0xb00
1c010410:	1401ff51 	lu12i.w	$r17,4090(0xffa)
1c010414:	03ac0231 	ori	$r17,$r17,0xb00
1c010418:	0280018e 	addi.w	$r14,$r12,0
1c01041c:	028001af 	addi.w	$r15,$r13,0
1c010420:	0400402e 	csrwr	$r14,0x10
1c010424:	0400442f 	csrwr	$r15,0x11
1c010428:	04004830 	csrwr	$r16,0x12
1c01042c:	04004c31 	csrwr	$r17,0x13
1c010430:	06483000 	tlbwr
1c010434:	0280058c 	addi.w	$r12,$r12,1(0x1)
1c010438:	14000051 	lu12i.w	$r17,2(0x2)
1c01043c:	001045ad 	add.w	$r13,$r13,$r17
1c010440:	14026950 	lu12i.w	$r16,4938(0x134a)
1c010444:	03ac0210 	ori	$r16,$r16,0xb00
1c010448:	1403ff51 	lu12i.w	$r17,8186(0x1ffa)
1c01044c:	03ac0231 	ori	$r17,$r17,0xb00
1c010450:	0280018e 	addi.w	$r14,$r12,0
1c010454:	028001af 	addi.w	$r15,$r13,0
1c010458:	0400402e 	csrwr	$r14,0x10
1c01045c:	0400442f 	csrwr	$r15,0x11
1c010460:	04004830 	csrwr	$r16,0x12
1c010464:	04004c31 	csrwr	$r17,0x13
1c010468:	06483000 	tlbwr
1c01046c:	0280058c 	addi.w	$r12,$r12,1(0x1)
1c010470:	14000051 	lu12i.w	$r17,2(0x2)
1c010474:	001045ad 	add.w	$r13,$r13,$r17
1c010478:	0382b00e 	ori	$r14,$r0,0xac
1c01047c:	0400602e 	csrwr	$r14,0x18
1c010480:	141c6950 	lu12i.w	$r16,58186(0xe34a)
1c010484:	03ac0210 	ori	$r16,$r16,0xb00
1c010488:	141dff51 	lu12i.w	$r17,61434(0xeffa)
1c01048c:	03ac0231 	ori	$r17,$r17,0xb00
1c010490:	0280018e 	addi.w	$r14,$r12,0
1c010494:	028001af 	addi.w	$r15,$r13,0
1c010498:	0400402e 	csrwr	$r14,0x10
1c01049c:	0400442f 	csrwr	$r15,0x11
1c0104a0:	04004830 	csrwr	$r16,0x12
1c0104a4:	04004c31 	csrwr	$r17,0x13
1c0104a8:	06483000 	tlbwr
1c0104ac:	0280058c 	addi.w	$r12,$r12,1(0x1)
1c0104b0:	14000051 	lu12i.w	$r17,2(0x2)
1c0104b4:	001045ad 	add.w	$r13,$r13,$r17
1c0104b8:	141e6950 	lu12i.w	$r16,62282(0xf34a)
1c0104bc:	03ac0210 	ori	$r16,$r16,0xb00
1c0104c0:	141fff51 	lu12i.w	$r17,65530(0xfffa)
1c0104c4:	03ac0231 	ori	$r17,$r17,0xb00
1c0104c8:	0280018e 	addi.w	$r14,$r12,0
1c0104cc:	028001af 	addi.w	$r15,$r13,0
1c0104d0:	0400402e 	csrwr	$r14,0x10
1c0104d4:	0400442f 	csrwr	$r15,0x11
1c0104d8:	04004830 	csrwr	$r16,0x12
1c0104dc:	04004c31 	csrwr	$r17,0x13
1c0104e0:	06483000 	tlbwr
1c0104e4:	0280058c 	addi.w	$r12,$r12,1(0x1)
1c0104e8:	14000051 	lu12i.w	$r17,2(0x2)
1c0104ec:	001045ad 	add.w	$r13,$r13,$r17
1c0104f0:	14069570 	lu12i.w	$r16,13483(0x34ab)
1c0104f4:	03840210 	ori	$r16,$r16,0x100
1c0104f8:	141ff571 	lu12i.w	$r17,65451(0xffab)
1c0104fc:	03840231 	ori	$r17,$r17,0x100
1c010500:	0280018e 	addi.w	$r14,$r12,0
1c010504:	028001af 	addi.w	$r15,$r13,0
1c010508:	0400402e 	csrwr	$r14,0x10
1c01050c:	0400442f 	csrwr	$r15,0x11
1c010510:	04004830 	csrwr	$r16,0x12
1c010514:	04004c31 	csrwr	$r17,0x13
1c010518:	06483000 	tlbwr
1c01051c:	0280058c 	addi.w	$r12,$r12,1(0x1)
1c010520:	14000051 	lu12i.w	$r17,2(0x2)
1c010524:	001045ad 	add.w	$r13,$r13,$r17
1c010528:	14069570 	lu12i.w	$r16,13483(0x34ab)
1c01052c:	03880210 	ori	$r16,$r16,0x200
1c010530:	141ff571 	lu12i.w	$r17,65451(0xffab)
1c010534:	03880231 	ori	$r17,$r17,0x200
1c010538:	0280018e 	addi.w	$r14,$r12,0
1c01053c:	028001af 	addi.w	$r15,$r13,0
1c010540:	0400402e 	csrwr	$r14,0x10
1c010544:	0400442f 	csrwr	$r15,0x11
1c010548:	04004830 	csrwr	$r16,0x12
1c01054c:	04004c31 	csrwr	$r17,0x13
1c010550:	06483000 	tlbwr
1c010554:	0280058c 	addi.w	$r12,$r12,1(0x1)
1c010558:	14000051 	lu12i.w	$r17,2(0x2)
1c01055c:	001045ad 	add.w	$r13,$r13,$r17
1c010560:	0382b40e 	ori	$r14,$r0,0xad
1c010564:	0400602e 	csrwr	$r14,0x18
1c010568:	14069570 	lu12i.w	$r16,13483(0x34ab)
1c01056c:	03a50210 	ori	$r16,$r16,0x940
1c010570:	141ff571 	lu12i.w	$r17,65451(0xffab)
1c010574:	03a50231 	ori	$r17,$r17,0x940
1c010578:	0280018e 	addi.w	$r14,$r12,0
1c01057c:	028001af 	addi.w	$r15,$r13,0
1c010580:	0400402e 	csrwr	$r14,0x10
1c010584:	0400442f 	csrwr	$r15,0x11
1c010588:	04004830 	csrwr	$r16,0x12
1c01058c:	04004c31 	csrwr	$r17,0x13
1c010590:	06483000 	tlbwr
1c010594:	0280058c 	addi.w	$r12,$r12,1(0x1)
1c010598:	14000051 	lu12i.w	$r17,2(0x2)
1c01059c:	001045ad 	add.w	$r13,$r13,$r17
1c0105a0:	14069570 	lu12i.w	$r16,13483(0x34ab)
1c0105a4:	03a90210 	ori	$r16,$r16,0xa40
1c0105a8:	141ff571 	lu12i.w	$r17,65451(0xffab)
1c0105ac:	03a90231 	ori	$r17,$r17,0xa40
1c0105b0:	0280018e 	addi.w	$r14,$r12,0
1c0105b4:	028001af 	addi.w	$r15,$r13,0
1c0105b8:	0400402e 	csrwr	$r14,0x10
1c0105bc:	0400442f 	csrwr	$r15,0x11
1c0105c0:	04004830 	csrwr	$r16,0x12
1c0105c4:	04004c31 	csrwr	$r17,0x13
1c0105c8:	06483000 	tlbwr
1c0105cc:	0280058c 	addi.w	$r12,$r12,1(0x1)
1c0105d0:	14000051 	lu12i.w	$r17,2(0x2)
1c0105d4:	001045ad 	add.w	$r13,$r13,$r17
1c0105d8:	14069570 	lu12i.w	$r16,13483(0x34ab)
1c0105dc:	039d0210 	ori	$r16,$r16,0x740
1c0105e0:	141ff571 	lu12i.w	$r17,65451(0xffab)
1c0105e4:	039d0231 	ori	$r17,$r17,0x740
1c0105e8:	0280018e 	addi.w	$r14,$r12,0
1c0105ec:	028001af 	addi.w	$r15,$r13,0
1c0105f0:	0400402e 	csrwr	$r14,0x10
1c0105f4:	0400442f 	csrwr	$r15,0x11
1c0105f8:	04004830 	csrwr	$r16,0x12
1c0105fc:	04004c31 	csrwr	$r17,0x13
1c010600:	06483000 	tlbwr
1c010604:	0280058c 	addi.w	$r12,$r12,1(0x1)
1c010608:	14000051 	lu12i.w	$r17,2(0x2)
1c01060c:	001045ad 	add.w	$r13,$r13,$r17
1c010610:	14069570 	lu12i.w	$r16,13483(0x34ab)
1c010614:	03a10210 	ori	$r16,$r16,0x840
1c010618:	141ff571 	lu12i.w	$r17,65451(0xffab)
1c01061c:	03a10231 	ori	$r17,$r17,0x840
1c010620:	0280018e 	addi.w	$r14,$r12,0
1c010624:	028001af 	addi.w	$r15,$r13,0
1c010628:	0400402e 	csrwr	$r14,0x10
1c01062c:	0400442f 	csrwr	$r15,0x11
1c010630:	04004830 	csrwr	$r16,0x12
1c010634:	04004c31 	csrwr	$r17,0x13
1c010638:	06483000 	tlbwr
1c01063c:	0280058c 	addi.w	$r12,$r12,1(0x1)
1c010640:	14000051 	lu12i.w	$r17,2(0x2)
1c010644:	001045ad 	add.w	$r13,$r13,$r17
1c010648:	04004420 	csrwr	$r0,0x11
1c01064c:	04004820 	csrwr	$r0,0x12
1c010650:	04004c20 	csrwr	$r0,0x13
1c010654:	04004020 	csrwr	$r0,0x10
1c010658:	4c000020 	jirl	$r0,$r1,0
1c01065c:	03400000 	andi	$r0,$r0,0x0

1c010660 <n16_beq_test>:
n16_beq_test():
1c010660:	028006f7 	addi.w	$r23,$r23,1(0x1)
1c010664:	00150019 	move	$r25,$r0
1c010668:	141f62f0 	lu12i.w	$r16,64279(0xfb17)
1c01066c:	02aa0210 	addi.w	$r16,$r16,-1408(0xa80)
1c010670:	15be44d1 	lu12i.w	$r17,-134618(0xdf226)
1c010674:	02b77231 	addi.w	$r17,$r17,-548(0xddc)
1c010678:	1400000a 	lu12i.w	$r10,0
1c01067c:	1400000b 	lu12i.w	$r11,0
1c010680:	50001400 	b	20(0x14) # 1c010694 <n16_beq_test+0x34>
1c010684:	141f62ea 	lu12i.w	$r10,64279(0xfb17)
1c010688:	02aa014a 	addi.w	$r10,$r10,-1408(0xa80)
1c01068c:	580021ac 	beq	$r13,$r12,32(0x20) # 1c0106ac <n16_beq_test+0x4c>
1c010690:	50002400 	b	36(0x24) # 1c0106b4 <n16_beq_test+0x54>
1c010694:	14a5232c 	lu12i.w	$r12,338201(0x52919)
1c010698:	0281e18c 	addi.w	$r12,$r12,120(0x78)
1c01069c:	15028d0d 	lu12i.w	$r13,-519064(0x81468)
1c0106a0:	029001ad 	addi.w	$r13,$r13,1024(0x400)
1c0106a4:	5bffe18d 	beq	$r12,$r13,-32(0x3ffe0) # 1c010684 <n16_beq_test+0x24>
1c0106a8:	50000c00 	b	12(0xc) # 1c0106b4 <n16_beq_test+0x54>
1c0106ac:	15be44cb 	lu12i.w	$r11,-134618(0xdf226)
1c0106b0:	02b7716b 	addi.w	$r11,$r11,-548(0xddc)
1c0106b4:	1400001c 	lu12i.w	$r28,0
1c0106b8:	0280039c 	addi.w	$r28,$r28,0
1c0106bc:	1400001d 	lu12i.w	$r29,0
1c0106c0:	028003bd 	addi.w	$r29,$r29,0
1c0106c4:	5c75415c 	bne	$r10,$r28,30016(0x7540) # 1c017c04 <inst_error>
1c0106c8:	5c753d7d 	bne	$r11,$r29,30012(0x753c) # 1c017c04 <inst_error>
1c0106cc:	145fb590 	lu12i.w	$r16,196012(0x2fdac)
1c0106d0:	029e4210 	addi.w	$r16,$r16,1936(0x790)
1c0106d4:	15c94411 	lu12i.w	$r17,-112096(0xe4a20)
1c0106d8:	028b4e31 	addi.w	$r17,$r17,723(0x2d3)
1c0106dc:	1400000a 	lu12i.w	$r10,0
1c0106e0:	1400000b 	lu12i.w	$r11,0
1c0106e4:	50001400 	b	20(0x14) # 1c0106f8 <n16_beq_test+0x98>
1c0106e8:	145fb58a 	lu12i.w	$r10,196012(0x2fdac)
1c0106ec:	029e414a 	addi.w	$r10,$r10,1936(0x790)
1c0106f0:	580021ac 	beq	$r13,$r12,32(0x20) # 1c010710 <n16_beq_test+0xb0>
1c0106f4:	50002400 	b	36(0x24) # 1c010718 <n16_beq_test+0xb8>
1c0106f8:	1521b62c 	lu12i.w	$r12,-455247(0x90db1)
1c0106fc:	0293618c 	addi.w	$r12,$r12,1240(0x4d8)
1c010700:	155034ed 	lu12i.w	$r13,-360025(0xa81a7)
1c010704:	029001ad 	addi.w	$r13,$r13,1024(0x400)
1c010708:	5bffe18d 	beq	$r12,$r13,-32(0x3ffe0) # 1c0106e8 <n16_beq_test+0x88>
1c01070c:	50000c00 	b	12(0xc) # 1c010718 <n16_beq_test+0xb8>
1c010710:	15c9440b 	lu12i.w	$r11,-112096(0xe4a20)
1c010714:	028b4d6b 	addi.w	$r11,$r11,723(0x2d3)
1c010718:	1400001c 	lu12i.w	$r28,0
1c01071c:	0280039c 	addi.w	$r28,$r28,0
1c010720:	1400001d 	lu12i.w	$r29,0
1c010724:	028003bd 	addi.w	$r29,$r29,0
1c010728:	5c74dd5c 	bne	$r10,$r28,29916(0x74dc) # 1c017c04 <inst_error>
1c01072c:	5c74d97d 	bne	$r11,$r29,29912(0x74d8) # 1c017c04 <inst_error>
1c010730:	158c9590 	lu12i.w	$r16,-236372(0xc64ac)
1c010734:	028d1210 	addi.w	$r16,$r16,836(0x344)
1c010738:	15871dd1 	lu12i.w	$r17,-247570(0xc38ee)
1c01073c:	02a68231 	addi.w	$r17,$r17,-1632(0x9a0)
1c010740:	1400000a 	lu12i.w	$r10,0
1c010744:	1400000b 	lu12i.w	$r11,0
1c010748:	50001400 	b	20(0x14) # 1c01075c <n16_beq_test+0xfc>
1c01074c:	158c958a 	lu12i.w	$r10,-236372(0xc64ac)
1c010750:	028d114a 	addi.w	$r10,$r10,836(0x344)
1c010754:	580021ac 	beq	$r13,$r12,32(0x20) # 1c010774 <n16_beq_test+0x114>
1c010758:	50002400 	b	36(0x24) # 1c01077c <n16_beq_test+0x11c>
1c01075c:	157943ec 	lu12i.w	$r12,-275937(0xbca1f)
1c010760:	02baa18c 	addi.w	$r12,$r12,-344(0xea8)
1c010764:	1549584d 	lu12i.w	$r13,-374078(0xa4ac2)
1c010768:	0292b9ad 	addi.w	$r13,$r13,1198(0x4ae)
1c01076c:	5bffe18d 	beq	$r12,$r13,-32(0x3ffe0) # 1c01074c <n16_beq_test+0xec>
1c010770:	50000c00 	b	12(0xc) # 1c01077c <n16_beq_test+0x11c>
1c010774:	15871dcb 	lu12i.w	$r11,-247570(0xc38ee)
1c010778:	02a6816b 	addi.w	$r11,$r11,-1632(0x9a0)
1c01077c:	1400001c 	lu12i.w	$r28,0
1c010780:	0280039c 	addi.w	$r28,$r28,0
1c010784:	1400001d 	lu12i.w	$r29,0
1c010788:	028003bd 	addi.w	$r29,$r29,0
1c01078c:	5c74795c 	bne	$r10,$r28,29816(0x7478) # 1c017c04 <inst_error>
1c010790:	5c74757d 	bne	$r11,$r29,29812(0x7474) # 1c017c04 <inst_error>
1c010794:	14a47710 	lu12i.w	$r16,336824(0x523b8)
1c010798:	0296c210 	addi.w	$r16,$r16,1456(0x5b0)
1c01079c:	1596fb91 	lu12i.w	$r17,-215076(0xcb7dc)
1c0107a0:	02b50231 	addi.w	$r17,$r17,-704(0xd40)
1c0107a4:	1400000a 	lu12i.w	$r10,0
1c0107a8:	1400000b 	lu12i.w	$r11,0
1c0107ac:	50001400 	b	20(0x14) # 1c0107c0 <n16_beq_test+0x160>
1c0107b0:	14a4770a 	lu12i.w	$r10,336824(0x523b8)
1c0107b4:	0296c14a 	addi.w	$r10,$r10,1456(0x5b0)
1c0107b8:	580021ac 	beq	$r13,$r12,32(0x20) # 1c0107d8 <n16_beq_test+0x178>
1c0107bc:	50002400 	b	36(0x24) # 1c0107e0 <n16_beq_test+0x180>
1c0107c0:	158f042c 	lu12i.w	$r12,-231391(0xc7821)
1c0107c4:	02bea18c 	addi.w	$r12,$r12,-88(0xfa8)
1c0107c8:	14e3f3cd 	lu12i.w	$r13,466846(0x71f9e)
1c0107cc:	02aec1ad 	addi.w	$r13,$r13,-1104(0xbb0)
1c0107d0:	5bffe18d 	beq	$r12,$r13,-32(0x3ffe0) # 1c0107b0 <n16_beq_test+0x150>
1c0107d4:	50000c00 	b	12(0xc) # 1c0107e0 <n16_beq_test+0x180>
1c0107d8:	1596fb8b 	lu12i.w	$r11,-215076(0xcb7dc)
1c0107dc:	02b5016b 	addi.w	$r11,$r11,-704(0xd40)
1c0107e0:	1400001c 	lu12i.w	$r28,0
1c0107e4:	0280039c 	addi.w	$r28,$r28,0
1c0107e8:	1400001d 	lu12i.w	$r29,0
1c0107ec:	028003bd 	addi.w	$r29,$r29,0
1c0107f0:	5c74155c 	bne	$r10,$r28,29716(0x7414) # 1c017c04 <inst_error>
1c0107f4:	5c74117d 	bne	$r11,$r29,29712(0x7410) # 1c017c04 <inst_error>
1c0107f8:	14461150 	lu12i.w	$r16,143498(0x2308a)
1c0107fc:	02886210 	addi.w	$r16,$r16,536(0x218)
1c010800:	14c057d1 	lu12i.w	$r17,393918(0x602be)
1c010804:	02bd8231 	addi.w	$r17,$r17,-160(0xf60)
1c010808:	1400000a 	lu12i.w	$r10,0
1c01080c:	1400000b 	lu12i.w	$r11,0
1c010810:	50001400 	b	20(0x14) # 1c010824 <n16_beq_test+0x1c4>
1c010814:	1446114a 	lu12i.w	$r10,143498(0x2308a)
1c010818:	0288614a 	addi.w	$r10,$r10,536(0x218)
1c01081c:	580021ac 	beq	$r13,$r12,32(0x20) # 1c01083c <n16_beq_test+0x1dc>
1c010820:	50002400 	b	36(0x24) # 1c010844 <n16_beq_test+0x1e4>
1c010824:	14cb516c 	lu12i.w	$r12,416395(0x65a8b)
1c010828:	02a4118c 	addi.w	$r12,$r12,-1788(0x904)
1c01082c:	1408550d 	lu12i.w	$r13,17064(0x42a8)
1c010830:	02ab01ad 	addi.w	$r13,$r13,-1344(0xac0)
1c010834:	5bffe18d 	beq	$r12,$r13,-32(0x3ffe0) # 1c010814 <n16_beq_test+0x1b4>
1c010838:	50000c00 	b	12(0xc) # 1c010844 <n16_beq_test+0x1e4>
1c01083c:	14c057cb 	lu12i.w	$r11,393918(0x602be)
1c010840:	02bd816b 	addi.w	$r11,$r11,-160(0xf60)
1c010844:	1400001c 	lu12i.w	$r28,0
1c010848:	0280039c 	addi.w	$r28,$r28,0
1c01084c:	1400001d 	lu12i.w	$r29,0
1c010850:	028003bd 	addi.w	$r29,$r29,0
1c010854:	5c73b15c 	bne	$r10,$r28,29616(0x73b0) # 1c017c04 <inst_error>
1c010858:	5c73ad7d 	bne	$r11,$r29,29612(0x73ac) # 1c017c04 <inst_error>
1c01085c:	14ab53b0 	lu12i.w	$r16,350877(0x55a9d)
1c010860:	02b2fa10 	addi.w	$r16,$r16,-834(0xcbe)
1c010864:	15004271 	lu12i.w	$r17,-523757(0x80213)
1c010868:	02adbe31 	addi.w	$r17,$r17,-1169(0xb6f)
1c01086c:	1400000a 	lu12i.w	$r10,0
1c010870:	1400000b 	lu12i.w	$r11,0
1c010874:	50001400 	b	20(0x14) # 1c010888 <n16_beq_test+0x228>
1c010878:	14ab53aa 	lu12i.w	$r10,350877(0x55a9d)
1c01087c:	02b2f94a 	addi.w	$r10,$r10,-834(0xcbe)
1c010880:	580021ac 	beq	$r13,$r12,32(0x20) # 1c0108a0 <n16_beq_test+0x240>
1c010884:	50002400 	b	36(0x24) # 1c0108a8 <n16_beq_test+0x248>
1c010888:	14fabb2c 	lu12i.w	$r12,513497(0x7d5d9)
1c01088c:	0288418c 	addi.w	$r12,$r12,528(0x210)
1c010890:	1489ec6d 	lu12i.w	$r13,282467(0x44f63)
1c010894:	028901ad 	addi.w	$r13,$r13,576(0x240)
1c010898:	5bffe18d 	beq	$r12,$r13,-32(0x3ffe0) # 1c010878 <n16_beq_test+0x218>
1c01089c:	50000c00 	b	12(0xc) # 1c0108a8 <n16_beq_test+0x248>
1c0108a0:	1500426b 	lu12i.w	$r11,-523757(0x80213)
1c0108a4:	02adbd6b 	addi.w	$r11,$r11,-1169(0xb6f)
1c0108a8:	1400001c 	lu12i.w	$r28,0
1c0108ac:	0280039c 	addi.w	$r28,$r28,0
1c0108b0:	1400001d 	lu12i.w	$r29,0
1c0108b4:	028003bd 	addi.w	$r29,$r29,0
1c0108b8:	5c734d5c 	bne	$r10,$r28,29516(0x734c) # 1c017c04 <inst_error>
1c0108bc:	5c73497d 	bne	$r11,$r29,29512(0x7348) # 1c017c04 <inst_error>
1c0108c0:	159164b0 	lu12i.w	$r16,-226523(0xc8b25)
1c0108c4:	028dc210 	addi.w	$r16,$r16,880(0x370)
1c0108c8:	15ceddd1 	lu12i.w	$r17,-100626(0xe76ee)
1c0108cc:	028aaa31 	addi.w	$r17,$r17,682(0x2aa)
1c0108d0:	1400000a 	lu12i.w	$r10,0
1c0108d4:	1400000b 	lu12i.w	$r11,0
1c0108d8:	50001400 	b	20(0x14) # 1c0108ec <n16_beq_test+0x28c>
1c0108dc:	159164aa 	lu12i.w	$r10,-226523(0xc8b25)
1c0108e0:	028dc14a 	addi.w	$r10,$r10,880(0x370)
1c0108e4:	580021ac 	beq	$r13,$r12,32(0x20) # 1c010904 <n16_beq_test+0x2a4>
1c0108e8:	50002400 	b	36(0x24) # 1c01090c <n16_beq_test+0x2ac>
1c0108ec:	1419038c 	lu12i.w	$r12,51228(0xc81c)
1c0108f0:	028d018c 	addi.w	$r12,$r12,832(0x340)
1c0108f4:	14ddea8d 	lu12i.w	$r13,454484(0x6ef54)
1c0108f8:	029dc1ad 	addi.w	$r13,$r13,1904(0x770)
1c0108fc:	5bffe18d 	beq	$r12,$r13,-32(0x3ffe0) # 1c0108dc <n16_beq_test+0x27c>
1c010900:	50000c00 	b	12(0xc) # 1c01090c <n16_beq_test+0x2ac>
1c010904:	15ceddcb 	lu12i.w	$r11,-100626(0xe76ee)
1c010908:	028aa96b 	addi.w	$r11,$r11,682(0x2aa)
1c01090c:	1400001c 	lu12i.w	$r28,0
1c010910:	0280039c 	addi.w	$r28,$r28,0
1c010914:	1400001d 	lu12i.w	$r29,0
1c010918:	028003bd 	addi.w	$r29,$r29,0
1c01091c:	5c72e95c 	bne	$r10,$r28,29416(0x72e8) # 1c017c04 <inst_error>
1c010920:	5c72e57d 	bne	$r11,$r29,29412(0x72e4) # 1c017c04 <inst_error>
1c010924:	142a2230 	lu12i.w	$r16,86289(0x15111)
1c010928:	02bb0210 	addi.w	$r16,$r16,-320(0xec0)
1c01092c:	15eac0f1 	lu12i.w	$r17,-43513(0xf5607)
1c010930:	02b70631 	addi.w	$r17,$r17,-575(0xdc1)
1c010934:	1400000a 	lu12i.w	$r10,0
1c010938:	1400000b 	lu12i.w	$r11,0
1c01093c:	50001400 	b	20(0x14) # 1c010950 <n16_beq_test+0x2f0>
1c010940:	142a222a 	lu12i.w	$r10,86289(0x15111)
1c010944:	02bb014a 	addi.w	$r10,$r10,-320(0xec0)
1c010948:	580021ac 	beq	$r13,$r12,32(0x20) # 1c010968 <n16_beq_test+0x308>
1c01094c:	50002400 	b	36(0x24) # 1c010970 <n16_beq_test+0x310>
1c010950:	15e28b2c 	lu12i.w	$r12,-60327(0xf1459)
1c010954:	02a3018c 	addi.w	$r12,$r12,-1856(0x8c0)
1c010958:	1486728d 	lu12i.w	$r13,275348(0x43394)
1c01095c:	028771ad 	addi.w	$r13,$r13,476(0x1dc)
1c010960:	5bffe18d 	beq	$r12,$r13,-32(0x3ffe0) # 1c010940 <n16_beq_test+0x2e0>
1c010964:	50000c00 	b	12(0xc) # 1c010970 <n16_beq_test+0x310>
1c010968:	15eac0eb 	lu12i.w	$r11,-43513(0xf5607)
1c01096c:	02b7056b 	addi.w	$r11,$r11,-575(0xdc1)
1c010970:	1400001c 	lu12i.w	$r28,0
1c010974:	0280039c 	addi.w	$r28,$r28,0
1c010978:	1400001d 	lu12i.w	$r29,0
1c01097c:	028003bd 	addi.w	$r29,$r29,0
1c010980:	5c72855c 	bne	$r10,$r28,29316(0x7284) # 1c017c04 <inst_error>
1c010984:	5c72817d 	bne	$r11,$r29,29312(0x7280) # 1c017c04 <inst_error>
1c010988:	14ad85d0 	lu12i.w	$r16,355374(0x56c2e)
1c01098c:	02953a10 	addi.w	$r16,$r16,1358(0x54e)
1c010990:	15c178d1 	lu12i.w	$r17,-128058(0xe0bc6)
1c010994:	02936e31 	addi.w	$r17,$r17,1243(0x4db)
1c010998:	1400000a 	lu12i.w	$r10,0
1c01099c:	1400000b 	lu12i.w	$r11,0
1c0109a0:	50001400 	b	20(0x14) # 1c0109b4 <n16_beq_test+0x354>
1c0109a4:	14ad85ca 	lu12i.w	$r10,355374(0x56c2e)
1c0109a8:	0295394a 	addi.w	$r10,$r10,1358(0x54e)
1c0109ac:	580021ac 	beq	$r13,$r12,32(0x20) # 1c0109cc <n16_beq_test+0x36c>
1c0109b0:	50002400 	b	36(0x24) # 1c0109d4 <n16_beq_test+0x374>
1c0109b4:	1425888c 	lu12i.w	$r12,76868(0x12c44)
1c0109b8:	02a0018c 	addi.w	$r12,$r12,-2048(0x800)
1c0109bc:	15f05e8d 	lu12i.w	$r13,-32012(0xf82f4)
1c0109c0:	028cc1ad 	addi.w	$r13,$r13,816(0x330)
1c0109c4:	5bffe18d 	beq	$r12,$r13,-32(0x3ffe0) # 1c0109a4 <n16_beq_test+0x344>
1c0109c8:	50000c00 	b	12(0xc) # 1c0109d4 <n16_beq_test+0x374>
1c0109cc:	15c178cb 	lu12i.w	$r11,-128058(0xe0bc6)
1c0109d0:	02936d6b 	addi.w	$r11,$r11,1243(0x4db)
1c0109d4:	1400001c 	lu12i.w	$r28,0
1c0109d8:	0280039c 	addi.w	$r28,$r28,0
1c0109dc:	1400001d 	lu12i.w	$r29,0
1c0109e0:	028003bd 	addi.w	$r29,$r29,0
1c0109e4:	5c72215c 	bne	$r10,$r28,29216(0x7220) # 1c017c04 <inst_error>
1c0109e8:	5c721d7d 	bne	$r11,$r29,29212(0x721c) # 1c017c04 <inst_error>
1c0109ec:	15ba5ad0 	lu12i.w	$r16,-142634(0xdd2d6)
1c0109f0:	02b00210 	addi.w	$r16,$r16,-1024(0xc00)
1c0109f4:	1536e411 	lu12i.w	$r17,-411872(0x9b720)
1c0109f8:	02b0a231 	addi.w	$r17,$r17,-984(0xc28)
1c0109fc:	1400000a 	lu12i.w	$r10,0
1c010a00:	1400000b 	lu12i.w	$r11,0
1c010a04:	50001400 	b	20(0x14) # 1c010a18 <n16_beq_test+0x3b8>
1c010a08:	15ba5aca 	lu12i.w	$r10,-142634(0xdd2d6)
1c010a0c:	02b0014a 	addi.w	$r10,$r10,-1024(0xc00)
1c010a10:	580021ac 	beq	$r13,$r12,32(0x20) # 1c010a30 <n16_beq_test+0x3d0>
1c010a14:	50002400 	b	36(0x24) # 1c010a38 <n16_beq_test+0x3d8>
1c010a18:	15b1c22c 	lu12i.w	$r12,-160239(0xd8e11)
1c010a1c:	02a4b98c 	addi.w	$r12,$r12,-1746(0x92e)
1c010a20:	15a56dcd 	lu12i.w	$r13,-185490(0xd2b6e)
1c010a24:	029a01ad 	addi.w	$r13,$r13,1664(0x680)
1c010a28:	5bffe18d 	beq	$r12,$r13,-32(0x3ffe0) # 1c010a08 <n16_beq_test+0x3a8>
1c010a2c:	50000c00 	b	12(0xc) # 1c010a38 <n16_beq_test+0x3d8>
1c010a30:	1536e40b 	lu12i.w	$r11,-411872(0x9b720)
1c010a34:	02b0a16b 	addi.w	$r11,$r11,-984(0xc28)
1c010a38:	1400001c 	lu12i.w	$r28,0
1c010a3c:	0280039c 	addi.w	$r28,$r28,0
1c010a40:	1400001d 	lu12i.w	$r29,0
1c010a44:	028003bd 	addi.w	$r29,$r29,0
1c010a48:	5c71bd5c 	bne	$r10,$r28,29116(0x71bc) # 1c017c04 <inst_error>
1c010a4c:	5c71b97d 	bne	$r11,$r29,29112(0x71b8) # 1c017c04 <inst_error>
1c010a50:	15e85f30 	lu12i.w	$r16,-48391(0xf42f9)
1c010a54:	02aea210 	addi.w	$r16,$r16,-1112(0xba8)
1c010a58:	14ee1a51 	lu12i.w	$r17,487634(0x770d2)
1c010a5c:	02920231 	addi.w	$r17,$r17,1152(0x480)
1c010a60:	1400000a 	lu12i.w	$r10,0
1c010a64:	1400000b 	lu12i.w	$r11,0
1c010a68:	50001400 	b	20(0x14) # 1c010a7c <n16_beq_test+0x41c>
1c010a6c:	15e85f2a 	lu12i.w	$r10,-48391(0xf42f9)
1c010a70:	02aea14a 	addi.w	$r10,$r10,-1112(0xba8)
1c010a74:	580021ac 	beq	$r13,$r12,32(0x20) # 1c010a94 <n16_beq_test+0x434>
1c010a78:	50002400 	b	36(0x24) # 1c010a9c <n16_beq_test+0x43c>
1c010a7c:	1508ba4c 	lu12i.w	$r12,-506414(0x845d2)
1c010a80:	02aa218c 	addi.w	$r12,$r12,-1400(0xa88)
1c010a84:	15e5a44d 	lu12i.w	$r13,-53982(0xf2d22)
1c010a88:	02878dad 	addi.w	$r13,$r13,483(0x1e3)
1c010a8c:	5bffe18d 	beq	$r12,$r13,-32(0x3ffe0) # 1c010a6c <n16_beq_test+0x40c>
1c010a90:	50000c00 	b	12(0xc) # 1c010a9c <n16_beq_test+0x43c>
1c010a94:	14ee1a4b 	lu12i.w	$r11,487634(0x770d2)
1c010a98:	0292016b 	addi.w	$r11,$r11,1152(0x480)
1c010a9c:	1400001c 	lu12i.w	$r28,0
1c010aa0:	0280039c 	addi.w	$r28,$r28,0
1c010aa4:	1400001d 	lu12i.w	$r29,0
1c010aa8:	028003bd 	addi.w	$r29,$r29,0
1c010aac:	5c71595c 	bne	$r10,$r28,29016(0x7158) # 1c017c04 <inst_error>
1c010ab0:	5c71557d 	bne	$r11,$r29,29012(0x7154) # 1c017c04 <inst_error>
1c010ab4:	14cc2ef0 	lu12i.w	$r16,418167(0x66177)
1c010ab8:	0280a210 	addi.w	$r16,$r16,40(0x28)
1c010abc:	14a59871 	lu12i.w	$r17,339139(0x52cc3)
1c010ac0:	02b80a31 	addi.w	$r17,$r17,-510(0xe02)
1c010ac4:	1400000a 	lu12i.w	$r10,0
1c010ac8:	1400000b 	lu12i.w	$r11,0
1c010acc:	50001400 	b	20(0x14) # 1c010ae0 <n16_beq_test+0x480>
1c010ad0:	14cc2eea 	lu12i.w	$r10,418167(0x66177)
1c010ad4:	0280a14a 	addi.w	$r10,$r10,40(0x28)
1c010ad8:	580021ac 	beq	$r13,$r12,32(0x20) # 1c010af8 <n16_beq_test+0x498>
1c010adc:	50002400 	b	36(0x24) # 1c010b00 <n16_beq_test+0x4a0>
1c010ae0:	14b48bac 	lu12i.w	$r12,369757(0x5a45d)
1c010ae4:	0289f98c 	addi.w	$r12,$r12,638(0x27e)
1c010ae8:	15069dcd 	lu12i.w	$r13,-510738(0x834ee)
1c010aec:	02a681ad 	addi.w	$r13,$r13,-1632(0x9a0)
1c010af0:	5bffe18d 	beq	$r12,$r13,-32(0x3ffe0) # 1c010ad0 <n16_beq_test+0x470>
1c010af4:	50000c00 	b	12(0xc) # 1c010b00 <n16_beq_test+0x4a0>
1c010af8:	14a5986b 	lu12i.w	$r11,339139(0x52cc3)
1c010afc:	02b8096b 	addi.w	$r11,$r11,-510(0xe02)
1c010b00:	1400001c 	lu12i.w	$r28,0
1c010b04:	0280039c 	addi.w	$r28,$r28,0
1c010b08:	1400001d 	lu12i.w	$r29,0
1c010b0c:	028003bd 	addi.w	$r29,$r29,0
1c010b10:	5c70f55c 	bne	$r10,$r28,28916(0x70f4) # 1c017c04 <inst_error>
1c010b14:	5c70f17d 	bne	$r11,$r29,28912(0x70f0) # 1c017c04 <inst_error>
1c010b18:	14279c90 	lu12i.w	$r16,81124(0x13ce4)
1c010b1c:	02bfd210 	addi.w	$r16,$r16,-12(0xff4)
1c010b20:	14fd2ef1 	lu12i.w	$r17,518519(0x7e977)
1c010b24:	02884231 	addi.w	$r17,$r17,528(0x210)
1c010b28:	1400000a 	lu12i.w	$r10,0
1c010b2c:	1400000b 	lu12i.w	$r11,0
1c010b30:	50001400 	b	20(0x14) # 1c010b44 <n16_beq_test+0x4e4>
1c010b34:	14279c8a 	lu12i.w	$r10,81124(0x13ce4)
1c010b38:	02bfd14a 	addi.w	$r10,$r10,-12(0xff4)
1c010b3c:	580021ac 	beq	$r13,$r12,32(0x20) # 1c010b5c <n16_beq_test+0x4fc>
1c010b40:	50002400 	b	36(0x24) # 1c010b64 <n16_beq_test+0x504>
1c010b44:	150eac4c 	lu12i.w	$r12,-494238(0x87562)
1c010b48:	02be818c 	addi.w	$r12,$r12,-96(0xfa0)
1c010b4c:	14b731ad 	lu12i.w	$r13,375181(0x5b98d)
1c010b50:	02b101ad 	addi.w	$r13,$r13,-960(0xc40)
1c010b54:	5bffe18d 	beq	$r12,$r13,-32(0x3ffe0) # 1c010b34 <n16_beq_test+0x4d4>
1c010b58:	50000c00 	b	12(0xc) # 1c010b64 <n16_beq_test+0x504>
1c010b5c:	14fd2eeb 	lu12i.w	$r11,518519(0x7e977)
1c010b60:	0288416b 	addi.w	$r11,$r11,528(0x210)
1c010b64:	1400001c 	lu12i.w	$r28,0
1c010b68:	0280039c 	addi.w	$r28,$r28,0
1c010b6c:	1400001d 	lu12i.w	$r29,0
1c010b70:	028003bd 	addi.w	$r29,$r29,0
1c010b74:	5c70915c 	bne	$r10,$r28,28816(0x7090) # 1c017c04 <inst_error>
1c010b78:	5c708d7d 	bne	$r11,$r29,28812(0x708c) # 1c017c04 <inst_error>
1c010b7c:	14488030 	lu12i.w	$r16,148481(0x24401)
1c010b80:	02aaa210 	addi.w	$r16,$r16,-1368(0xaa8)
1c010b84:	14531831 	lu12i.w	$r17,170177(0x298c1)
1c010b88:	02b49231 	addi.w	$r17,$r17,-732(0xd24)
1c010b8c:	1400000a 	lu12i.w	$r10,0
1c010b90:	1400000b 	lu12i.w	$r11,0
1c010b94:	50001400 	b	20(0x14) # 1c010ba8 <n16_beq_test+0x548>
1c010b98:	1448802a 	lu12i.w	$r10,148481(0x24401)
1c010b9c:	02aaa14a 	addi.w	$r10,$r10,-1368(0xaa8)
1c010ba0:	580021ac 	beq	$r13,$r12,32(0x20) # 1c010bc0 <n16_beq_test+0x560>
1c010ba4:	50002400 	b	36(0x24) # 1c010bc8 <n16_beq_test+0x568>
1c010ba8:	15fe462c 	lu12i.w	$r12,-3535(0xff231)
1c010bac:	0280f98c 	addi.w	$r12,$r12,62(0x3e)
1c010bb0:	14dabcad 	lu12i.w	$r13,447973(0x6d5e5)
1c010bb4:	02be61ad 	addi.w	$r13,$r13,-104(0xf98)
1c010bb8:	5bffe18d 	beq	$r12,$r13,-32(0x3ffe0) # 1c010b98 <n16_beq_test+0x538>
1c010bbc:	50000c00 	b	12(0xc) # 1c010bc8 <n16_beq_test+0x568>
1c010bc0:	1453182b 	lu12i.w	$r11,170177(0x298c1)
1c010bc4:	02b4916b 	addi.w	$r11,$r11,-732(0xd24)
1c010bc8:	1400001c 	lu12i.w	$r28,0
1c010bcc:	0280039c 	addi.w	$r28,$r28,0
1c010bd0:	1400001d 	lu12i.w	$r29,0
1c010bd4:	028003bd 	addi.w	$r29,$r29,0
1c010bd8:	5c702d5c 	bne	$r10,$r28,28716(0x702c) # 1c017c04 <inst_error>
1c010bdc:	5c70297d 	bne	$r11,$r29,28712(0x7028) # 1c017c04 <inst_error>
1c010be0:	142fc9b0 	lu12i.w	$r16,97869(0x17e4d)
1c010be4:	02ba9610 	addi.w	$r16,$r16,-347(0xea5)
1c010be8:	150595b1 	lu12i.w	$r17,-512851(0x82cad)
1c010bec:	02ad6231 	addi.w	$r17,$r17,-1192(0xb58)
1c010bf0:	1400000a 	lu12i.w	$r10,0
1c010bf4:	1400000b 	lu12i.w	$r11,0
1c010bf8:	50001400 	b	20(0x14) # 1c010c0c <n16_beq_test+0x5ac>
1c010bfc:	142fc9aa 	lu12i.w	$r10,97869(0x17e4d)
1c010c00:	02ba954a 	addi.w	$r10,$r10,-347(0xea5)
1c010c04:	580021ac 	beq	$r13,$r12,32(0x20) # 1c010c24 <n16_beq_test+0x5c4>
1c010c08:	50002400 	b	36(0x24) # 1c010c2c <n16_beq_test+0x5cc>
1c010c0c:	1551da4c 	lu12i.w	$r12,-356654(0xa8ed2)
1c010c10:	028f318c 	addi.w	$r12,$r12,972(0x3cc)
1c010c14:	14c779ad 	lu12i.w	$r13,408525(0x63bcd)
1c010c18:	02932dad 	addi.w	$r13,$r13,1227(0x4cb)
1c010c1c:	5bffe18d 	beq	$r12,$r13,-32(0x3ffe0) # 1c010bfc <n16_beq_test+0x59c>
1c010c20:	50000c00 	b	12(0xc) # 1c010c2c <n16_beq_test+0x5cc>
1c010c24:	150595ab 	lu12i.w	$r11,-512851(0x82cad)
1c010c28:	02ad616b 	addi.w	$r11,$r11,-1192(0xb58)
1c010c2c:	1400001c 	lu12i.w	$r28,0
1c010c30:	0280039c 	addi.w	$r28,$r28,0
1c010c34:	1400001d 	lu12i.w	$r29,0
1c010c38:	028003bd 	addi.w	$r29,$r29,0
1c010c3c:	5c6fc95c 	bne	$r10,$r28,28616(0x6fc8) # 1c017c04 <inst_error>
1c010c40:	5c6fc57d 	bne	$r11,$r29,28612(0x6fc4) # 1c017c04 <inst_error>
1c010c44:	14825330 	lu12i.w	$r16,266905(0x41299)
1c010c48:	02b30210 	addi.w	$r16,$r16,-832(0xcc0)
1c010c4c:	14f3dd91 	lu12i.w	$r17,499436(0x79eec)
1c010c50:	0296f231 	addi.w	$r17,$r17,1468(0x5bc)
1c010c54:	1400000a 	lu12i.w	$r10,0
1c010c58:	1400000b 	lu12i.w	$r11,0
1c010c5c:	50001400 	b	20(0x14) # 1c010c70 <n16_beq_test+0x610>
1c010c60:	1482532a 	lu12i.w	$r10,266905(0x41299)
1c010c64:	02b3014a 	addi.w	$r10,$r10,-832(0xcc0)
1c010c68:	580021ac 	beq	$r13,$r12,32(0x20) # 1c010c88 <n16_beq_test+0x628>
1c010c6c:	50002400 	b	36(0x24) # 1c010c90 <n16_beq_test+0x630>
1c010c70:	156ddb0c 	lu12i.w	$r12,-299304(0xb6ed8)
1c010c74:	02a5d18c 	addi.w	$r12,$r12,-1676(0x974)
1c010c78:	152150cd 	lu12i.w	$r13,-456058(0x90a86)
1c010c7c:	029331ad 	addi.w	$r13,$r13,1228(0x4cc)
1c010c80:	5bffe18d 	beq	$r12,$r13,-32(0x3ffe0) # 1c010c60 <n16_beq_test+0x600>
1c010c84:	50000c00 	b	12(0xc) # 1c010c90 <n16_beq_test+0x630>
1c010c88:	14f3dd8b 	lu12i.w	$r11,499436(0x79eec)
1c010c8c:	0296f16b 	addi.w	$r11,$r11,1468(0x5bc)
1c010c90:	1400001c 	lu12i.w	$r28,0
1c010c94:	0280039c 	addi.w	$r28,$r28,0
1c010c98:	1400001d 	lu12i.w	$r29,0
1c010c9c:	028003bd 	addi.w	$r29,$r29,0
1c010ca0:	5c6f655c 	bne	$r10,$r28,28516(0x6f64) # 1c017c04 <inst_error>
1c010ca4:	5c6f617d 	bne	$r11,$r29,28512(0x6f60) # 1c017c04 <inst_error>
1c010ca8:	1414ead0 	lu12i.w	$r16,42838(0xa756)
1c010cac:	029c6610 	addi.w	$r16,$r16,1817(0x719)
1c010cb0:	149081b1 	lu12i.w	$r17,295949(0x4840d)
1c010cb4:	028fba31 	addi.w	$r17,$r17,1006(0x3ee)
1c010cb8:	1400000a 	lu12i.w	$r10,0
1c010cbc:	1400000b 	lu12i.w	$r11,0
1c010cc0:	50001400 	b	20(0x14) # 1c010cd4 <n16_beq_test+0x674>
1c010cc4:	1414eaca 	lu12i.w	$r10,42838(0xa756)
1c010cc8:	029c654a 	addi.w	$r10,$r10,1817(0x719)
1c010ccc:	580021ac 	beq	$r13,$r12,32(0x20) # 1c010cec <n16_beq_test+0x68c>
1c010cd0:	50002400 	b	36(0x24) # 1c010cf4 <n16_beq_test+0x694>
1c010cd4:	143b640c 	lu12i.w	$r12,121632(0x1db20)
1c010cd8:	02b2418c 	addi.w	$r12,$r12,-880(0xc90)
1c010cdc:	15008c0d 	lu12i.w	$r13,-523168(0x80460)
1c010ce0:	0281c5ad 	addi.w	$r13,$r13,113(0x71)
1c010ce4:	5bffe18d 	beq	$r12,$r13,-32(0x3ffe0) # 1c010cc4 <n16_beq_test+0x664>
1c010ce8:	50000c00 	b	12(0xc) # 1c010cf4 <n16_beq_test+0x694>
1c010cec:	149081ab 	lu12i.w	$r11,295949(0x4840d)
1c010cf0:	028fb96b 	addi.w	$r11,$r11,1006(0x3ee)
1c010cf4:	1400001c 	lu12i.w	$r28,0
1c010cf8:	0280039c 	addi.w	$r28,$r28,0
1c010cfc:	1400001d 	lu12i.w	$r29,0
1c010d00:	028003bd 	addi.w	$r29,$r29,0
1c010d04:	5c6f015c 	bne	$r10,$r28,28416(0x6f00) # 1c017c04 <inst_error>
1c010d08:	5c6efd7d 	bne	$r11,$r29,28412(0x6efc) # 1c017c04 <inst_error>
1c010d0c:	158de930 	lu12i.w	$r16,-233655(0xc6f49)
1c010d10:	029a1a10 	addi.w	$r16,$r16,1670(0x686)
1c010d14:	159ae7b1 	lu12i.w	$r17,-207043(0xcd73d)
1c010d18:	0299ba31 	addi.w	$r17,$r17,1646(0x66e)
1c010d1c:	1400000a 	lu12i.w	$r10,0
1c010d20:	1400000b 	lu12i.w	$r11,0
1c010d24:	50001400 	b	20(0x14) # 1c010d38 <n16_beq_test+0x6d8>
1c010d28:	158de92a 	lu12i.w	$r10,-233655(0xc6f49)
1c010d2c:	029a194a 	addi.w	$r10,$r10,1670(0x686)
1c010d30:	580021ac 	beq	$r13,$r12,32(0x20) # 1c010d50 <n16_beq_test+0x6f0>
1c010d34:	50002400 	b	36(0x24) # 1c010d58 <n16_beq_test+0x6f8>
1c010d38:	1580c3ec 	lu12i.w	$r12,-260577(0xc061f)
1c010d3c:	02a3e18c 	addi.w	$r12,$r12,-1800(0x8f8)
1c010d40:	1503e72d 	lu12i.w	$r13,-516295(0x81f39)
1c010d44:	02ae41ad 	addi.w	$r13,$r13,-1136(0xb90)
1c010d48:	5bffe18d 	beq	$r12,$r13,-32(0x3ffe0) # 1c010d28 <n16_beq_test+0x6c8>
1c010d4c:	50000c00 	b	12(0xc) # 1c010d58 <n16_beq_test+0x6f8>
1c010d50:	159ae7ab 	lu12i.w	$r11,-207043(0xcd73d)
1c010d54:	0299b96b 	addi.w	$r11,$r11,1646(0x66e)
1c010d58:	1400001c 	lu12i.w	$r28,0
1c010d5c:	0280039c 	addi.w	$r28,$r28,0
1c010d60:	1400001d 	lu12i.w	$r29,0
1c010d64:	028003bd 	addi.w	$r29,$r29,0
1c010d68:	5c6e9d5c 	bne	$r10,$r28,28316(0x6e9c) # 1c017c04 <inst_error>
1c010d6c:	5c6e997d 	bne	$r11,$r29,28312(0x6e98) # 1c017c04 <inst_error>
1c010d70:	14d0f3d0 	lu12i.w	$r16,427934(0x6879e)
1c010d74:	02ac6210 	addi.w	$r16,$r16,-1256(0xb18)
1c010d78:	148f08f1 	lu12i.w	$r17,292935(0x47847)
1c010d7c:	02af9631 	addi.w	$r17,$r17,-1051(0xbe5)
1c010d80:	1400000a 	lu12i.w	$r10,0
1c010d84:	1400000b 	lu12i.w	$r11,0
1c010d88:	50001400 	b	20(0x14) # 1c010d9c <n16_beq_test+0x73c>
1c010d8c:	14d0f3ca 	lu12i.w	$r10,427934(0x6879e)
1c010d90:	02ac614a 	addi.w	$r10,$r10,-1256(0xb18)
1c010d94:	580021ac 	beq	$r13,$r12,32(0x20) # 1c010db4 <n16_beq_test+0x754>
1c010d98:	50002400 	b	36(0x24) # 1c010dbc <n16_beq_test+0x75c>
1c010d9c:	1412cc4c 	lu12i.w	$r12,38498(0x9662)
1c010da0:	02b0ed8c 	addi.w	$r12,$r12,-965(0xc3b)
1c010da4:	14bafe4d 	lu12i.w	$r13,382962(0x5d7f2)
1c010da8:	02b6f1ad 	addi.w	$r13,$r13,-580(0xdbc)
1c010dac:	5bffe18d 	beq	$r12,$r13,-32(0x3ffe0) # 1c010d8c <n16_beq_test+0x72c>
1c010db0:	50000c00 	b	12(0xc) # 1c010dbc <n16_beq_test+0x75c>
1c010db4:	148f08eb 	lu12i.w	$r11,292935(0x47847)
1c010db8:	02af956b 	addi.w	$r11,$r11,-1051(0xbe5)
1c010dbc:	1400001c 	lu12i.w	$r28,0
1c010dc0:	0280039c 	addi.w	$r28,$r28,0
1c010dc4:	1400001d 	lu12i.w	$r29,0
1c010dc8:	028003bd 	addi.w	$r29,$r29,0
1c010dcc:	5c6e395c 	bne	$r10,$r28,28216(0x6e38) # 1c017c04 <inst_error>
1c010dd0:	5c6e357d 	bne	$r11,$r29,28212(0x6e34) # 1c017c04 <inst_error>
1c010dd4:	14fcc9b0 	lu12i.w	$r16,517709(0x7e64d)
1c010dd8:	02800210 	addi.w	$r16,$r16,0
1c010ddc:	14392291 	lu12i.w	$r17,117012(0x1c914)
1c010de0:	02b48231 	addi.w	$r17,$r17,-736(0xd20)
1c010de4:	1400000a 	lu12i.w	$r10,0
1c010de8:	1400000b 	lu12i.w	$r11,0
1c010dec:	50001400 	b	20(0x14) # 1c010e00 <n16_beq_test+0x7a0>
1c010df0:	14fcc9aa 	lu12i.w	$r10,517709(0x7e64d)
1c010df4:	0280014a 	addi.w	$r10,$r10,0
1c010df8:	580021ac 	beq	$r13,$r12,32(0x20) # 1c010e18 <n16_beq_test+0x7b8>
1c010dfc:	50002400 	b	36(0x24) # 1c010e20 <n16_beq_test+0x7c0>
1c010e00:	1412b9cc 	lu12i.w	$r12,38350(0x95ce)
1c010e04:	0296898c 	addi.w	$r12,$r12,1442(0x5a2)
1c010e08:	1531d30d 	lu12i.w	$r13,-422248(0x98e98)
1c010e0c:	02a581ad 	addi.w	$r13,$r13,-1696(0x960)
1c010e10:	5bffe18d 	beq	$r12,$r13,-32(0x3ffe0) # 1c010df0 <n16_beq_test+0x790>
1c010e14:	50000c00 	b	12(0xc) # 1c010e20 <n16_beq_test+0x7c0>
1c010e18:	1439228b 	lu12i.w	$r11,117012(0x1c914)
1c010e1c:	02b4816b 	addi.w	$r11,$r11,-736(0xd20)
1c010e20:	1400001c 	lu12i.w	$r28,0
1c010e24:	0280039c 	addi.w	$r28,$r28,0
1c010e28:	1400001d 	lu12i.w	$r29,0
1c010e2c:	028003bd 	addi.w	$r29,$r29,0
1c010e30:	5c6dd55c 	bne	$r10,$r28,28116(0x6dd4) # 1c017c04 <inst_error>
1c010e34:	5c6dd17d 	bne	$r11,$r29,28112(0x6dd0) # 1c017c04 <inst_error>
1c010e38:	15562b30 	lu12i.w	$r16,-347815(0xab159)
1c010e3c:	02b70210 	addi.w	$r16,$r16,-576(0xdc0)
1c010e40:	15e2ad91 	lu12i.w	$r17,-60052(0xf156c)
1c010e44:	0286aa31 	addi.w	$r17,$r17,426(0x1aa)
1c010e48:	1400000a 	lu12i.w	$r10,0
1c010e4c:	1400000b 	lu12i.w	$r11,0
1c010e50:	50001400 	b	20(0x14) # 1c010e64 <n16_beq_test+0x804>
1c010e54:	15562b2a 	lu12i.w	$r10,-347815(0xab159)
1c010e58:	02b7014a 	addi.w	$r10,$r10,-576(0xdc0)
1c010e5c:	580021ac 	beq	$r13,$r12,32(0x20) # 1c010e7c <n16_beq_test+0x81c>
1c010e60:	50002400 	b	36(0x24) # 1c010e84 <n16_beq_test+0x824>
1c010e64:	15ee78ac 	lu12i.w	$r12,-35899(0xf73c5)
1c010e68:	02ba118c 	addi.w	$r12,$r12,-380(0xe84)
1c010e6c:	156afb0d 	lu12i.w	$r13,-305192(0xb57d8)
1c010e70:	028291ad 	addi.w	$r13,$r13,164(0xa4)
1c010e74:	5bffe18d 	beq	$r12,$r13,-32(0x3ffe0) # 1c010e54 <n16_beq_test+0x7f4>
1c010e78:	50000c00 	b	12(0xc) # 1c010e84 <n16_beq_test+0x824>
1c010e7c:	15e2ad8b 	lu12i.w	$r11,-60052(0xf156c)
1c010e80:	0286a96b 	addi.w	$r11,$r11,426(0x1aa)
1c010e84:	1400001c 	lu12i.w	$r28,0
1c010e88:	0280039c 	addi.w	$r28,$r28,0
1c010e8c:	1400001d 	lu12i.w	$r29,0
1c010e90:	028003bd 	addi.w	$r29,$r29,0
1c010e94:	5c6d715c 	bne	$r10,$r28,28016(0x6d70) # 1c017c04 <inst_error>
1c010e98:	5c6d6d7d 	bne	$r11,$r29,28012(0x6d6c) # 1c017c04 <inst_error>
1c010e9c:	15a6ffd0 	lu12i.w	$r16,-182274(0xd37fe)
1c010ea0:	02a4e210 	addi.w	$r16,$r16,-1736(0x938)
1c010ea4:	14a05f91 	lu12i.w	$r17,328444(0x502fc)
1c010ea8:	02982231 	addi.w	$r17,$r17,1544(0x608)
1c010eac:	1400000a 	lu12i.w	$r10,0
1c010eb0:	1400000b 	lu12i.w	$r11,0
1c010eb4:	50001400 	b	20(0x14) # 1c010ec8 <n16_beq_test+0x868>
1c010eb8:	15a6ffca 	lu12i.w	$r10,-182274(0xd37fe)
1c010ebc:	02a4e14a 	addi.w	$r10,$r10,-1736(0x938)
1c010ec0:	580021ac 	beq	$r13,$r12,32(0x20) # 1c010ee0 <n16_beq_test+0x880>
1c010ec4:	50002400 	b	36(0x24) # 1c010ee8 <n16_beq_test+0x888>
1c010ec8:	15989a4c 	lu12i.w	$r12,-211758(0xcc4d2)
1c010ecc:	02bf018c 	addi.w	$r12,$r12,-64(0xfc0)
1c010ed0:	150718ad 	lu12i.w	$r13,-509755(0x838c5)
1c010ed4:	02a491ad 	addi.w	$r13,$r13,-1756(0x924)
1c010ed8:	5bffe18d 	beq	$r12,$r13,-32(0x3ffe0) # 1c010eb8 <n16_beq_test+0x858>
1c010edc:	50000c00 	b	12(0xc) # 1c010ee8 <n16_beq_test+0x888>
1c010ee0:	14a05f8b 	lu12i.w	$r11,328444(0x502fc)
1c010ee4:	0298216b 	addi.w	$r11,$r11,1544(0x608)
1c010ee8:	1400001c 	lu12i.w	$r28,0
1c010eec:	0280039c 	addi.w	$r28,$r28,0
1c010ef0:	1400001d 	lu12i.w	$r29,0
1c010ef4:	028003bd 	addi.w	$r29,$r29,0
1c010ef8:	5c6d0d5c 	bne	$r10,$r28,27916(0x6d0c) # 1c017c04 <inst_error>
1c010efc:	5c6d097d 	bne	$r11,$r29,27912(0x6d08) # 1c017c04 <inst_error>
1c010f00:	153ea0d0 	lu12i.w	$r16,-396026(0x9f506)
1c010f04:	02ae6210 	addi.w	$r16,$r16,-1128(0xb98)
1c010f08:	156dc651 	lu12i.w	$r17,-299470(0xb6e32)
1c010f0c:	02892a31 	addi.w	$r17,$r17,586(0x24a)
1c010f10:	1400000a 	lu12i.w	$r10,0
1c010f14:	1400000b 	lu12i.w	$r11,0
1c010f18:	50001400 	b	20(0x14) # 1c010f2c <n16_beq_test+0x8cc>
1c010f1c:	153ea0ca 	lu12i.w	$r10,-396026(0x9f506)
1c010f20:	02ae614a 	addi.w	$r10,$r10,-1128(0xb98)
1c010f24:	580021ac 	beq	$r13,$r12,32(0x20) # 1c010f44 <n16_beq_test+0x8e4>
1c010f28:	50002400 	b	36(0x24) # 1c010f4c <n16_beq_test+0x8ec>
1c010f2c:	14b2692c 	lu12i.w	$r12,365385(0x59349)
1c010f30:	028a298c 	addi.w	$r12,$r12,650(0x28a)
1c010f34:	147d948d 	lu12i.w	$r13,257188(0x3eca4)
1c010f38:	029381ad 	addi.w	$r13,$r13,1248(0x4e0)
1c010f3c:	5bffe18d 	beq	$r12,$r13,-32(0x3ffe0) # 1c010f1c <n16_beq_test+0x8bc>
1c010f40:	50000c00 	b	12(0xc) # 1c010f4c <n16_beq_test+0x8ec>
1c010f44:	156dc64b 	lu12i.w	$r11,-299470(0xb6e32)
1c010f48:	0289296b 	addi.w	$r11,$r11,586(0x24a)
1c010f4c:	1400001c 	lu12i.w	$r28,0
1c010f50:	0280039c 	addi.w	$r28,$r28,0
1c010f54:	1400001d 	lu12i.w	$r29,0
1c010f58:	028003bd 	addi.w	$r29,$r29,0
1c010f5c:	5c6ca95c 	bne	$r10,$r28,27816(0x6ca8) # 1c017c04 <inst_error>
1c010f60:	5c6ca57d 	bne	$r11,$r29,27812(0x6ca4) # 1c017c04 <inst_error>
1c010f64:	15d94250 	lu12i.w	$r16,-79342(0xeca12)
1c010f68:	02adf210 	addi.w	$r16,$r16,-1156(0xb7c)
1c010f6c:	15455471 	lu12i.w	$r17,-382301(0xa2aa3)
1c010f70:	02820231 	addi.w	$r17,$r17,128(0x80)
1c010f74:	1400000a 	lu12i.w	$r10,0
1c010f78:	1400000b 	lu12i.w	$r11,0
1c010f7c:	50001400 	b	20(0x14) # 1c010f90 <n16_beq_test+0x930>
1c010f80:	15d9424a 	lu12i.w	$r10,-79342(0xeca12)
1c010f84:	02adf14a 	addi.w	$r10,$r10,-1156(0xb7c)
1c010f88:	580021ac 	beq	$r13,$r12,32(0x20) # 1c010fa8 <n16_beq_test+0x948>
1c010f8c:	50002400 	b	36(0x24) # 1c010fb0 <n16_beq_test+0x950>
1c010f90:	15049fcc 	lu12i.w	$r12,-514818(0x824fe)
1c010f94:	028f698c 	addi.w	$r12,$r12,986(0x3da)
1c010f98:	1570bfed 	lu12i.w	$r13,-293377(0xb85ff)
1c010f9c:	028b21ad 	addi.w	$r13,$r13,712(0x2c8)
1c010fa0:	5bffe18d 	beq	$r12,$r13,-32(0x3ffe0) # 1c010f80 <n16_beq_test+0x920>
1c010fa4:	50000c00 	b	12(0xc) # 1c010fb0 <n16_beq_test+0x950>
1c010fa8:	1545546b 	lu12i.w	$r11,-382301(0xa2aa3)
1c010fac:	0282016b 	addi.w	$r11,$r11,128(0x80)
1c010fb0:	1400001c 	lu12i.w	$r28,0
1c010fb4:	0280039c 	addi.w	$r28,$r28,0
1c010fb8:	1400001d 	lu12i.w	$r29,0
1c010fbc:	028003bd 	addi.w	$r29,$r29,0
1c010fc0:	5c6c455c 	bne	$r10,$r28,27716(0x6c44) # 1c017c04 <inst_error>
1c010fc4:	5c6c417d 	bne	$r11,$r29,27712(0x6c40) # 1c017c04 <inst_error>
1c010fc8:	14153210 	lu12i.w	$r16,43408(0xa990)
1c010fcc:	028fce10 	addi.w	$r16,$r16,1011(0x3f3)
1c010fd0:	15470d71 	lu12i.w	$r17,-378773(0xa386b)
1c010fd4:	02a5da31 	addi.w	$r17,$r17,-1674(0x976)
1c010fd8:	1400000a 	lu12i.w	$r10,0
1c010fdc:	1400000b 	lu12i.w	$r11,0
1c010fe0:	50001400 	b	20(0x14) # 1c010ff4 <n16_beq_test+0x994>
1c010fe4:	1415320a 	lu12i.w	$r10,43408(0xa990)
1c010fe8:	028fcd4a 	addi.w	$r10,$r10,1011(0x3f3)
1c010fec:	580021ac 	beq	$r13,$r12,32(0x20) # 1c01100c <n16_beq_test+0x9ac>
1c010ff0:	50002400 	b	36(0x24) # 1c011014 <n16_beq_test+0x9b4>
1c010ff4:	1479808c 	lu12i.w	$r12,248836(0x3cc04)
1c010ff8:	0292318c 	addi.w	$r12,$r12,1164(0x48c)
1c010ffc:	1523fbad 	lu12i.w	$r13,-450595(0x91fdd)
1c011000:	028159ad 	addi.w	$r13,$r13,86(0x56)
1c011004:	5bffe18d 	beq	$r12,$r13,-32(0x3ffe0) # 1c010fe4 <n16_beq_test+0x984>
1c011008:	50000c00 	b	12(0xc) # 1c011014 <n16_beq_test+0x9b4>
1c01100c:	15470d6b 	lu12i.w	$r11,-378773(0xa386b)
1c011010:	02a5d96b 	addi.w	$r11,$r11,-1674(0x976)
1c011014:	1400001c 	lu12i.w	$r28,0
1c011018:	0280039c 	addi.w	$r28,$r28,0
1c01101c:	1400001d 	lu12i.w	$r29,0
1c011020:	028003bd 	addi.w	$r29,$r29,0
1c011024:	5c6be15c 	bne	$r10,$r28,27616(0x6be0) # 1c017c04 <inst_error>
1c011028:	5c6bdd7d 	bne	$r11,$r29,27612(0x6bdc) # 1c017c04 <inst_error>
1c01102c:	15ddda50 	lu12i.w	$r16,-69934(0xeeed2)
1c011030:	02906210 	addi.w	$r16,$r16,1048(0x418)
1c011034:	150b4371 	lu12i.w	$r17,-501221(0x85a1b)
1c011038:	02b70e31 	addi.w	$r17,$r17,-573(0xdc3)
1c01103c:	1400000a 	lu12i.w	$r10,0
1c011040:	1400000b 	lu12i.w	$r11,0
1c011044:	50001400 	b	20(0x14) # 1c011058 <n16_beq_test+0x9f8>
1c011048:	15ddda4a 	lu12i.w	$r10,-69934(0xeeed2)
1c01104c:	0290614a 	addi.w	$r10,$r10,1048(0x418)
1c011050:	580021ac 	beq	$r13,$r12,32(0x20) # 1c011070 <n16_beq_test+0xa10>
1c011054:	50002400 	b	36(0x24) # 1c011078 <n16_beq_test+0xa18>
1c011058:	149f226c 	lu12i.w	$r12,325907(0x4f913)
1c01105c:	028b018c 	addi.w	$r12,$r12,704(0x2c0)
1c011060:	1551f84d 	lu12i.w	$r13,-356414(0xa8fc2)
1c011064:	02a929ad 	addi.w	$r13,$r13,-1462(0xa4a)
1c011068:	5bffe18d 	beq	$r12,$r13,-32(0x3ffe0) # 1c011048 <n16_beq_test+0x9e8>
1c01106c:	50000c00 	b	12(0xc) # 1c011078 <n16_beq_test+0xa18>
1c011070:	150b436b 	lu12i.w	$r11,-501221(0x85a1b)
1c011074:	02b70d6b 	addi.w	$r11,$r11,-573(0xdc3)
1c011078:	1400001c 	lu12i.w	$r28,0
1c01107c:	0280039c 	addi.w	$r28,$r28,0
1c011080:	1400001d 	lu12i.w	$r29,0
1c011084:	028003bd 	addi.w	$r29,$r29,0
1c011088:	5c6b7d5c 	bne	$r10,$r28,27516(0x6b7c) # 1c017c04 <inst_error>
1c01108c:	5c6b797d 	bne	$r11,$r29,27512(0x6b78) # 1c017c04 <inst_error>
1c011090:	152b1b70 	lu12i.w	$r16,-436005(0x958db)
1c011094:	02bee210 	addi.w	$r16,$r16,-72(0xfb8)
1c011098:	15d7e391 	lu12i.w	$r17,-82148(0xebf1c)
1c01109c:	02848231 	addi.w	$r17,$r17,288(0x120)
1c0110a0:	1400000a 	lu12i.w	$r10,0
1c0110a4:	1400000b 	lu12i.w	$r11,0
1c0110a8:	50001400 	b	20(0x14) # 1c0110bc <n16_beq_test+0xa5c>
1c0110ac:	152b1b6a 	lu12i.w	$r10,-436005(0x958db)
1c0110b0:	02bee14a 	addi.w	$r10,$r10,-72(0xfb8)
1c0110b4:	580021ac 	beq	$r13,$r12,32(0x20) # 1c0110d4 <n16_beq_test+0xa74>
1c0110b8:	50002400 	b	36(0x24) # 1c0110dc <n16_beq_test+0xa7c>
1c0110bc:	14fb414c 	lu12i.w	$r12,514570(0x7da0a)
1c0110c0:	02b1218c 	addi.w	$r12,$r12,-952(0xc48)
1c0110c4:	15c9a88d 	lu12i.w	$r13,-111292(0xe4d44)
1c0110c8:	02bad5ad 	addi.w	$r13,$r13,-331(0xeb5)
1c0110cc:	5bffe18d 	beq	$r12,$r13,-32(0x3ffe0) # 1c0110ac <n16_beq_test+0xa4c>
1c0110d0:	50000c00 	b	12(0xc) # 1c0110dc <n16_beq_test+0xa7c>
1c0110d4:	15d7e38b 	lu12i.w	$r11,-82148(0xebf1c)
1c0110d8:	0284816b 	addi.w	$r11,$r11,288(0x120)
1c0110dc:	1400001c 	lu12i.w	$r28,0
1c0110e0:	0280039c 	addi.w	$r28,$r28,0
1c0110e4:	1400001d 	lu12i.w	$r29,0
1c0110e8:	028003bd 	addi.w	$r29,$r29,0
1c0110ec:	5c6b195c 	bne	$r10,$r28,27416(0x6b18) # 1c017c04 <inst_error>
1c0110f0:	5c6b157d 	bne	$r11,$r29,27412(0x6b14) # 1c017c04 <inst_error>
1c0110f4:	14e7c710 	lu12i.w	$r16,474680(0x73e38)
1c0110f8:	029e0210 	addi.w	$r16,$r16,1920(0x780)
1c0110fc:	14b42ab1 	lu12i.w	$r17,368981(0x5a155)
1c011100:	02883a31 	addi.w	$r17,$r17,526(0x20e)
1c011104:	1400000a 	lu12i.w	$r10,0
1c011108:	1400000b 	lu12i.w	$r11,0
1c01110c:	50001400 	b	20(0x14) # 1c011120 <n16_beq_test+0xac0>
1c011110:	14e7c70a 	lu12i.w	$r10,474680(0x73e38)
1c011114:	029e014a 	addi.w	$r10,$r10,1920(0x780)
1c011118:	580021ac 	beq	$r13,$r12,32(0x20) # 1c011138 <n16_beq_test+0xad8>
1c01111c:	50002400 	b	36(0x24) # 1c011140 <n16_beq_test+0xae0>
1c011120:	142fd46c 	lu12i.w	$r12,97955(0x17ea3)
1c011124:	02b3f18c 	addi.w	$r12,$r12,-772(0xcfc)
1c011128:	1529178d 	lu12i.w	$r13,-440132(0x948bc)
1c01112c:	02a6f1ad 	addi.w	$r13,$r13,-1604(0x9bc)
1c011130:	5bffe18d 	beq	$r12,$r13,-32(0x3ffe0) # 1c011110 <n16_beq_test+0xab0>
1c011134:	50000c00 	b	12(0xc) # 1c011140 <n16_beq_test+0xae0>
1c011138:	14b42aab 	lu12i.w	$r11,368981(0x5a155)
1c01113c:	0288396b 	addi.w	$r11,$r11,526(0x20e)
1c011140:	1400001c 	lu12i.w	$r28,0
1c011144:	0280039c 	addi.w	$r28,$r28,0
1c011148:	1400001d 	lu12i.w	$r29,0
1c01114c:	028003bd 	addi.w	$r29,$r29,0
1c011150:	5c6ab55c 	bne	$r10,$r28,27316(0x6ab4) # 1c017c04 <inst_error>
1c011154:	5c6ab17d 	bne	$r11,$r29,27312(0x6ab0) # 1c017c04 <inst_error>
1c011158:	15570690 	lu12i.w	$r16,-346060(0xab834)
1c01115c:	02932210 	addi.w	$r16,$r16,1224(0x4c8)
1c011160:	1523f891 	lu12i.w	$r17,-450620(0x91fc4)
1c011164:	029c0231 	addi.w	$r17,$r17,1792(0x700)
1c011168:	1400000a 	lu12i.w	$r10,0
1c01116c:	1400000b 	lu12i.w	$r11,0
1c011170:	50001400 	b	20(0x14) # 1c011184 <n16_beq_test+0xb24>
1c011174:	1557068a 	lu12i.w	$r10,-346060(0xab834)
1c011178:	0293214a 	addi.w	$r10,$r10,1224(0x4c8)
1c01117c:	580021ac 	beq	$r13,$r12,32(0x20) # 1c01119c <n16_beq_test+0xb3c>
1c011180:	50002400 	b	36(0x24) # 1c0111a4 <n16_beq_test+0xb44>
1c011184:	1400894c 	lu12i.w	$r12,1098(0x44a)
1c011188:	02ba4d8c 	addi.w	$r12,$r12,-365(0xe93)
1c01118c:	158283cd 	lu12i.w	$r13,-256994(0xc141e)
1c011190:	0287fdad 	addi.w	$r13,$r13,511(0x1ff)
1c011194:	5bffe18d 	beq	$r12,$r13,-32(0x3ffe0) # 1c011174 <n16_beq_test+0xb14>
1c011198:	50000c00 	b	12(0xc) # 1c0111a4 <n16_beq_test+0xb44>
1c01119c:	1523f88b 	lu12i.w	$r11,-450620(0x91fc4)
1c0111a0:	029c016b 	addi.w	$r11,$r11,1792(0x700)
1c0111a4:	1400001c 	lu12i.w	$r28,0
1c0111a8:	0280039c 	addi.w	$r28,$r28,0
1c0111ac:	1400001d 	lu12i.w	$r29,0
1c0111b0:	028003bd 	addi.w	$r29,$r29,0
1c0111b4:	5c6a515c 	bne	$r10,$r28,27216(0x6a50) # 1c017c04 <inst_error>
1c0111b8:	5c6a4d7d 	bne	$r11,$r29,27212(0x6a4c) # 1c017c04 <inst_error>
1c0111bc:	1598a550 	lu12i.w	$r16,-211670(0xcc52a)
1c0111c0:	0299e210 	addi.w	$r16,$r16,1656(0x678)
1c0111c4:	14a59e51 	lu12i.w	$r17,339186(0x52cf2)
1c0111c8:	02a55231 	addi.w	$r17,$r17,-1708(0x954)
1c0111cc:	1400000a 	lu12i.w	$r10,0
1c0111d0:	1400000b 	lu12i.w	$r11,0
1c0111d4:	50001400 	b	20(0x14) # 1c0111e8 <n16_beq_test+0xb88>
1c0111d8:	1598a54a 	lu12i.w	$r10,-211670(0xcc52a)
1c0111dc:	0299e14a 	addi.w	$r10,$r10,1656(0x678)
1c0111e0:	580021ac 	beq	$r13,$r12,32(0x20) # 1c011200 <n16_beq_test+0xba0>
1c0111e4:	50002400 	b	36(0x24) # 1c011208 <n16_beq_test+0xba8>
1c0111e8:	156335ec 	lu12i.w	$r12,-321105(0xb19af)
1c0111ec:	02bfe18c 	addi.w	$r12,$r12,-8(0xff8)
1c0111f0:	14601f4d 	lu12i.w	$r13,196858(0x300fa)
1c0111f4:	028751ad 	addi.w	$r13,$r13,468(0x1d4)
1c0111f8:	5bffe18d 	beq	$r12,$r13,-32(0x3ffe0) # 1c0111d8 <n16_beq_test+0xb78>
1c0111fc:	50000c00 	b	12(0xc) # 1c011208 <n16_beq_test+0xba8>
1c011200:	14a59e4b 	lu12i.w	$r11,339186(0x52cf2)
1c011204:	02a5516b 	addi.w	$r11,$r11,-1708(0x954)
1c011208:	1400001c 	lu12i.w	$r28,0
1c01120c:	0280039c 	addi.w	$r28,$r28,0
1c011210:	1400001d 	lu12i.w	$r29,0
1c011214:	028003bd 	addi.w	$r29,$r29,0
1c011218:	5c69ed5c 	bne	$r10,$r28,27116(0x69ec) # 1c017c04 <inst_error>
1c01121c:	5c69e97d 	bne	$r11,$r29,27112(0x69e8) # 1c017c04 <inst_error>
1c011220:	14d361b0 	lu12i.w	$r16,432909(0x69b0d)
1c011224:	02b26210 	addi.w	$r16,$r16,-872(0xc98)
1c011228:	14d3e671 	lu12i.w	$r17,433971(0x69f33)
1c01122c:	02be6231 	addi.w	$r17,$r17,-104(0xf98)
1c011230:	1400000a 	lu12i.w	$r10,0
1c011234:	1400000b 	lu12i.w	$r11,0
1c011238:	50001400 	b	20(0x14) # 1c01124c <n16_beq_test+0xbec>
1c01123c:	14d361aa 	lu12i.w	$r10,432909(0x69b0d)
1c011240:	02b2614a 	addi.w	$r10,$r10,-872(0xc98)
1c011244:	580021ac 	beq	$r13,$r12,32(0x20) # 1c011264 <n16_beq_test+0xc04>
1c011248:	50002400 	b	36(0x24) # 1c01126c <n16_beq_test+0xc0c>
1c01124c:	14c02e8c 	lu12i.w	$r12,393588(0x60174)
1c011250:	029dd18c 	addi.w	$r12,$r12,1908(0x774)
1c011254:	14db0dad 	lu12i.w	$r13,448621(0x6d86d)
1c011258:	029da1ad 	addi.w	$r13,$r13,1896(0x768)
1c01125c:	5bffe18d 	beq	$r12,$r13,-32(0x3ffe0) # 1c01123c <n16_beq_test+0xbdc>
1c011260:	50000c00 	b	12(0xc) # 1c01126c <n16_beq_test+0xc0c>
1c011264:	14d3e66b 	lu12i.w	$r11,433971(0x69f33)
1c011268:	02be616b 	addi.w	$r11,$r11,-104(0xf98)
1c01126c:	1400001c 	lu12i.w	$r28,0
1c011270:	0280039c 	addi.w	$r28,$r28,0
1c011274:	1400001d 	lu12i.w	$r29,0
1c011278:	028003bd 	addi.w	$r29,$r29,0
1c01127c:	5c69895c 	bne	$r10,$r28,27016(0x6988) # 1c017c04 <inst_error>
1c011280:	5c69857d 	bne	$r11,$r29,27012(0x6984) # 1c017c04 <inst_error>
1c011284:	15bbbdd0 	lu12i.w	$r16,-139794(0xdddee)
1c011288:	0284fe10 	addi.w	$r16,$r16,319(0x13f)
1c01128c:	152c9e91 	lu12i.w	$r17,-432908(0x964f4)
1c011290:	0283a231 	addi.w	$r17,$r17,232(0xe8)
1c011294:	1400000a 	lu12i.w	$r10,0
1c011298:	1400000b 	lu12i.w	$r11,0
1c01129c:	50001400 	b	20(0x14) # 1c0112b0 <n16_beq_test+0xc50>
1c0112a0:	15bbbdca 	lu12i.w	$r10,-139794(0xdddee)
1c0112a4:	0284fd4a 	addi.w	$r10,$r10,319(0x13f)
1c0112a8:	580021ac 	beq	$r13,$r12,32(0x20) # 1c0112c8 <n16_beq_test+0xc68>
1c0112ac:	50002400 	b	36(0x24) # 1c0112d0 <n16_beq_test+0xc70>
1c0112b0:	14d64e4c 	lu12i.w	$r12,438898(0x6b272)
1c0112b4:	0288818c 	addi.w	$r12,$r12,544(0x220)
1c0112b8:	155b314d 	lu12i.w	$r13,-337526(0xad98a)
1c0112bc:	029531ad 	addi.w	$r13,$r13,1356(0x54c)
1c0112c0:	5bffe18d 	beq	$r12,$r13,-32(0x3ffe0) # 1c0112a0 <n16_beq_test+0xc40>
1c0112c4:	50000c00 	b	12(0xc) # 1c0112d0 <n16_beq_test+0xc70>
1c0112c8:	152c9e8b 	lu12i.w	$r11,-432908(0x964f4)
1c0112cc:	0283a16b 	addi.w	$r11,$r11,232(0xe8)
1c0112d0:	1400001c 	lu12i.w	$r28,0
1c0112d4:	0280039c 	addi.w	$r28,$r28,0
1c0112d8:	1400001d 	lu12i.w	$r29,0
1c0112dc:	028003bd 	addi.w	$r29,$r29,0
1c0112e0:	5c69255c 	bne	$r10,$r28,26916(0x6924) # 1c017c04 <inst_error>
1c0112e4:	5c69217d 	bne	$r11,$r29,26912(0x6920) # 1c017c04 <inst_error>
1c0112e8:	153cdab0 	lu12i.w	$r16,-399659(0x9e6d5)
1c0112ec:	02809a10 	addi.w	$r16,$r16,38(0x26)
1c0112f0:	14f51851 	lu12i.w	$r17,501954(0x7a8c2)
1c0112f4:	02bd0231 	addi.w	$r17,$r17,-192(0xf40)
1c0112f8:	1400000a 	lu12i.w	$r10,0
1c0112fc:	1400000b 	lu12i.w	$r11,0
1c011300:	50001400 	b	20(0x14) # 1c011314 <n16_beq_test+0xcb4>
1c011304:	153cdaaa 	lu12i.w	$r10,-399659(0x9e6d5)
1c011308:	0280994a 	addi.w	$r10,$r10,38(0x26)
1c01130c:	580021ac 	beq	$r13,$r12,32(0x20) # 1c01132c <n16_beq_test+0xccc>
1c011310:	50002400 	b	36(0x24) # 1c011334 <n16_beq_test+0xcd4>
1c011314:	141ef50c 	lu12i.w	$r12,63400(0xf7a8)
1c011318:	028b718c 	addi.w	$r12,$r12,732(0x2dc)
1c01131c:	1400e56d 	lu12i.w	$r13,1835(0x72b)
1c011320:	029401ad 	addi.w	$r13,$r13,1280(0x500)
1c011324:	5bffe18d 	beq	$r12,$r13,-32(0x3ffe0) # 1c011304 <n16_beq_test+0xca4>
1c011328:	50000c00 	b	12(0xc) # 1c011334 <n16_beq_test+0xcd4>
1c01132c:	14f5184b 	lu12i.w	$r11,501954(0x7a8c2)
1c011330:	02bd016b 	addi.w	$r11,$r11,-192(0xf40)
1c011334:	1400001c 	lu12i.w	$r28,0
1c011338:	0280039c 	addi.w	$r28,$r28,0
1c01133c:	1400001d 	lu12i.w	$r29,0
1c011340:	028003bd 	addi.w	$r29,$r29,0
1c011344:	5c68c15c 	bne	$r10,$r28,26816(0x68c0) # 1c017c04 <inst_error>
1c011348:	5c68bd7d 	bne	$r11,$r29,26812(0x68bc) # 1c017c04 <inst_error>
1c01134c:	15241870 	lu12i.w	$r16,-450365(0x920c3)
1c011350:	02bfc210 	addi.w	$r16,$r16,-16(0xff0)
1c011354:	15e61191 	lu12i.w	$r17,-53108(0xf308c)
1c011358:	028a0a31 	addi.w	$r17,$r17,642(0x282)
1c01135c:	1400000a 	lu12i.w	$r10,0
1c011360:	1400000b 	lu12i.w	$r11,0
1c011364:	50001400 	b	20(0x14) # 1c011378 <n16_beq_test+0xd18>
1c011368:	1524186a 	lu12i.w	$r10,-450365(0x920c3)
1c01136c:	02bfc14a 	addi.w	$r10,$r10,-16(0xff0)
1c011370:	580021ac 	beq	$r13,$r12,32(0x20) # 1c011390 <n16_beq_test+0xd30>
1c011374:	50002400 	b	36(0x24) # 1c011398 <n16_beq_test+0xd38>
1c011378:	1419048c 	lu12i.w	$r12,51236(0xc824)
1c01137c:	02bd8d8c 	addi.w	$r12,$r12,-157(0xf63)
1c011380:	150eb62d 	lu12i.w	$r13,-494159(0x875b1)
1c011384:	028e01ad 	addi.w	$r13,$r13,896(0x380)
1c011388:	5bffe18d 	beq	$r12,$r13,-32(0x3ffe0) # 1c011368 <n16_beq_test+0xd08>
1c01138c:	50000c00 	b	12(0xc) # 1c011398 <n16_beq_test+0xd38>
1c011390:	15e6118b 	lu12i.w	$r11,-53108(0xf308c)
1c011394:	028a096b 	addi.w	$r11,$r11,642(0x282)
1c011398:	1400001c 	lu12i.w	$r28,0
1c01139c:	0280039c 	addi.w	$r28,$r28,0
1c0113a0:	1400001d 	lu12i.w	$r29,0
1c0113a4:	028003bd 	addi.w	$r29,$r29,0
1c0113a8:	5c685d5c 	bne	$r10,$r28,26716(0x685c) # 1c017c04 <inst_error>
1c0113ac:	5c68597d 	bne	$r11,$r29,26712(0x6858) # 1c017c04 <inst_error>
1c0113b0:	14e96650 	lu12i.w	$r16,478002(0x74b32)
1c0113b4:	028d0210 	addi.w	$r16,$r16,832(0x340)
1c0113b8:	15680f51 	lu12i.w	$r17,-311174(0xb407a)
1c0113bc:	028c0231 	addi.w	$r17,$r17,768(0x300)
1c0113c0:	1400000a 	lu12i.w	$r10,0
1c0113c4:	1400000b 	lu12i.w	$r11,0
1c0113c8:	50001400 	b	20(0x14) # 1c0113dc <n16_beq_test+0xd7c>
1c0113cc:	14e9664a 	lu12i.w	$r10,478002(0x74b32)
1c0113d0:	028d014a 	addi.w	$r10,$r10,832(0x340)
1c0113d4:	580021ac 	beq	$r13,$r12,32(0x20) # 1c0113f4 <n16_beq_test+0xd94>
1c0113d8:	50002400 	b	36(0x24) # 1c0113fc <n16_beq_test+0xd9c>
1c0113dc:	1574b64c 	lu12i.w	$r12,-285262(0xba5b2)
1c0113e0:	02b7d98c 	addi.w	$r12,$r12,-522(0xdf6)
1c0113e4:	14dd2fad 	lu12i.w	$r13,452989(0x6e97d)
1c0113e8:	0290b1ad 	addi.w	$r13,$r13,1068(0x42c)
1c0113ec:	5bffe18d 	beq	$r12,$r13,-32(0x3ffe0) # 1c0113cc <n16_beq_test+0xd6c>
1c0113f0:	50000c00 	b	12(0xc) # 1c0113fc <n16_beq_test+0xd9c>
1c0113f4:	15680f4b 	lu12i.w	$r11,-311174(0xb407a)
1c0113f8:	028c016b 	addi.w	$r11,$r11,768(0x300)
1c0113fc:	1400001c 	lu12i.w	$r28,0
1c011400:	0280039c 	addi.w	$r28,$r28,0
1c011404:	1400001d 	lu12i.w	$r29,0
1c011408:	028003bd 	addi.w	$r29,$r29,0
1c01140c:	5c67f95c 	bne	$r10,$r28,26616(0x67f8) # 1c017c04 <inst_error>
1c011410:	5c67f57d 	bne	$r11,$r29,26612(0x67f4) # 1c017c04 <inst_error>
1c011414:	14516e50 	lu12i.w	$r16,166770(0x28b72)
1c011418:	02800210 	addi.w	$r16,$r16,0
1c01141c:	145925f1 	lu12i.w	$r17,182575(0x2c92f)
1c011420:	02af2231 	addi.w	$r17,$r17,-1080(0xbc8)
1c011424:	1400000a 	lu12i.w	$r10,0
1c011428:	1400000b 	lu12i.w	$r11,0
1c01142c:	50001400 	b	20(0x14) # 1c011440 <n16_beq_test+0xde0>
1c011430:	14516e4a 	lu12i.w	$r10,166770(0x28b72)
1c011434:	0280014a 	addi.w	$r10,$r10,0
1c011438:	580021ac 	beq	$r13,$r12,32(0x20) # 1c011458 <n16_beq_test+0xdf8>
1c01143c:	50002400 	b	36(0x24) # 1c011460 <n16_beq_test+0xe00>
1c011440:	158630cc 	lu12i.w	$r12,-249466(0xc3186)
1c011444:	0288d18c 	addi.w	$r12,$r12,564(0x234)
1c011448:	1506dc8d 	lu12i.w	$r13,-510236(0x836e4)
1c01144c:	02ae51ad 	addi.w	$r13,$r13,-1132(0xb94)
1c011450:	5bffe18d 	beq	$r12,$r13,-32(0x3ffe0) # 1c011430 <n16_beq_test+0xdd0>
1c011454:	50000c00 	b	12(0xc) # 1c011460 <n16_beq_test+0xe00>
1c011458:	145925eb 	lu12i.w	$r11,182575(0x2c92f)
1c01145c:	02af216b 	addi.w	$r11,$r11,-1080(0xbc8)
1c011460:	1400001c 	lu12i.w	$r28,0
1c011464:	0280039c 	addi.w	$r28,$r28,0
1c011468:	1400001d 	lu12i.w	$r29,0
1c01146c:	028003bd 	addi.w	$r29,$r29,0
1c011470:	5c67955c 	bne	$r10,$r28,26516(0x6794) # 1c017c04 <inst_error>
1c011474:	5c67917d 	bne	$r11,$r29,26512(0x6790) # 1c017c04 <inst_error>
1c011478:	145cd590 	lu12i.w	$r16,190124(0x2e6ac)
1c01147c:	02890210 	addi.w	$r16,$r16,576(0x240)
1c011480:	1561ffb1 	lu12i.w	$r17,-323587(0xb0ffd)
1c011484:	02870231 	addi.w	$r17,$r17,448(0x1c0)
1c011488:	1400000a 	lu12i.w	$r10,0
1c01148c:	1400000b 	lu12i.w	$r11,0
1c011490:	50001400 	b	20(0x14) # 1c0114a4 <n16_beq_test+0xe44>
1c011494:	145cd58a 	lu12i.w	$r10,190124(0x2e6ac)
1c011498:	0289014a 	addi.w	$r10,$r10,576(0x240)
1c01149c:	580021ac 	beq	$r13,$r12,32(0x20) # 1c0114bc <n16_beq_test+0xe5c>
1c0114a0:	50002400 	b	36(0x24) # 1c0114c4 <n16_beq_test+0xe64>
1c0114a4:	1455308c 	lu12i.w	$r12,174468(0x2a984)
1c0114a8:	02b8618c 	addi.w	$r12,$r12,-488(0xe18)
1c0114ac:	145552cd 	lu12i.w	$r13,174742(0x2aa96)
1c0114b0:	029191ad 	addi.w	$r13,$r13,1124(0x464)
1c0114b4:	5bffe18d 	beq	$r12,$r13,-32(0x3ffe0) # 1c011494 <n16_beq_test+0xe34>
1c0114b8:	50000c00 	b	12(0xc) # 1c0114c4 <n16_beq_test+0xe64>
1c0114bc:	1561ffab 	lu12i.w	$r11,-323587(0xb0ffd)
1c0114c0:	0287016b 	addi.w	$r11,$r11,448(0x1c0)
1c0114c4:	1400001c 	lu12i.w	$r28,0
1c0114c8:	0280039c 	addi.w	$r28,$r28,0
1c0114cc:	1400001d 	lu12i.w	$r29,0
1c0114d0:	028003bd 	addi.w	$r29,$r29,0
1c0114d4:	5c67315c 	bne	$r10,$r28,26416(0x6730) # 1c017c04 <inst_error>
1c0114d8:	5c672d7d 	bne	$r11,$r29,26412(0x672c) # 1c017c04 <inst_error>
1c0114dc:	15039d70 	lu12i.w	$r16,-516885(0x81ceb)
1c0114e0:	02a54210 	addi.w	$r16,$r16,-1712(0x950)
1c0114e4:	15d80c31 	lu12i.w	$r17,-81823(0xec061)
1c0114e8:	02b4e231 	addi.w	$r17,$r17,-712(0xd38)
1c0114ec:	1400000a 	lu12i.w	$r10,0
1c0114f0:	1400000b 	lu12i.w	$r11,0
1c0114f4:	50001400 	b	20(0x14) # 1c011508 <n16_beq_test+0xea8>
1c0114f8:	15039d6a 	lu12i.w	$r10,-516885(0x81ceb)
1c0114fc:	02a5414a 	addi.w	$r10,$r10,-1712(0x950)
1c011500:	580021ac 	beq	$r13,$r12,32(0x20) # 1c011520 <n16_beq_test+0xec0>
1c011504:	50002400 	b	36(0x24) # 1c011528 <n16_beq_test+0xec8>
1c011508:	1453696c 	lu12i.w	$r12,170827(0x29b4b)
1c01150c:	029b118c 	addi.w	$r12,$r12,1732(0x6c4)
1c011510:	15cf972d 	lu12i.w	$r13,-99143(0xe7cb9)
1c011514:	029cd1ad 	addi.w	$r13,$r13,1844(0x734)
1c011518:	5bffe18d 	beq	$r12,$r13,-32(0x3ffe0) # 1c0114f8 <n16_beq_test+0xe98>
1c01151c:	50000c00 	b	12(0xc) # 1c011528 <n16_beq_test+0xec8>
1c011520:	15d80c2b 	lu12i.w	$r11,-81823(0xec061)
1c011524:	02b4e16b 	addi.w	$r11,$r11,-712(0xd38)
1c011528:	1400001c 	lu12i.w	$r28,0
1c01152c:	0280039c 	addi.w	$r28,$r28,0
1c011530:	1400001d 	lu12i.w	$r29,0
1c011534:	028003bd 	addi.w	$r29,$r29,0
1c011538:	5c66cd5c 	bne	$r10,$r28,26316(0x66cc) # 1c017c04 <inst_error>
1c01153c:	5c66c97d 	bne	$r11,$r29,26312(0x66c8) # 1c017c04 <inst_error>
1c011540:	144c56d0 	lu12i.w	$r16,156342(0x262b6)
1c011544:	02be1210 	addi.w	$r16,$r16,-124(0xf84)
1c011548:	14c26a11 	lu12i.w	$r17,398160(0x61350)
1c01154c:	02a20231 	addi.w	$r17,$r17,-1920(0x880)
1c011550:	1400000a 	lu12i.w	$r10,0
1c011554:	1400000b 	lu12i.w	$r11,0
1c011558:	50001400 	b	20(0x14) # 1c01156c <n16_beq_test+0xf0c>
1c01155c:	144c56ca 	lu12i.w	$r10,156342(0x262b6)
1c011560:	02be114a 	addi.w	$r10,$r10,-124(0xf84)
1c011564:	580021ac 	beq	$r13,$r12,32(0x20) # 1c011584 <n16_beq_test+0xf24>
1c011568:	50002400 	b	36(0x24) # 1c01158c <n16_beq_test+0xf2c>
1c01156c:	147a618c 	lu12i.w	$r12,250636(0x3d30c)
1c011570:	0286018c 	addi.w	$r12,$r12,384(0x180)
1c011574:	15cbeb4d 	lu12i.w	$r13,-106662(0xe5f5a)
1c011578:	0295c1ad 	addi.w	$r13,$r13,1392(0x570)
1c01157c:	5bffe18d 	beq	$r12,$r13,-32(0x3ffe0) # 1c01155c <n16_beq_test+0xefc>
1c011580:	50000c00 	b	12(0xc) # 1c01158c <n16_beq_test+0xf2c>
1c011584:	14c26a0b 	lu12i.w	$r11,398160(0x61350)
1c011588:	02a2016b 	addi.w	$r11,$r11,-1920(0x880)
1c01158c:	1400001c 	lu12i.w	$r28,0
1c011590:	0280039c 	addi.w	$r28,$r28,0
1c011594:	1400001d 	lu12i.w	$r29,0
1c011598:	028003bd 	addi.w	$r29,$r29,0
1c01159c:	5c66695c 	bne	$r10,$r28,26216(0x6668) # 1c017c04 <inst_error>
1c0115a0:	5c66657d 	bne	$r11,$r29,26212(0x6664) # 1c017c04 <inst_error>
1c0115a4:	15b75e50 	lu12i.w	$r16,-148750(0xdbaf2)
1c0115a8:	02940210 	addi.w	$r16,$r16,1280(0x500)
1c0115ac:	15771ff1 	lu12i.w	$r17,-280321(0xbb8ff)
1c0115b0:	02a8c231 	addi.w	$r17,$r17,-1488(0xa30)
1c0115b4:	1400000a 	lu12i.w	$r10,0
1c0115b8:	1400000b 	lu12i.w	$r11,0
1c0115bc:	50001400 	b	20(0x14) # 1c0115d0 <n16_beq_test+0xf70>
1c0115c0:	15b75e4a 	lu12i.w	$r10,-148750(0xdbaf2)
1c0115c4:	0294014a 	addi.w	$r10,$r10,1280(0x500)
1c0115c8:	580021ac 	beq	$r13,$r12,32(0x20) # 1c0115e8 <n16_beq_test+0xf88>
1c0115cc:	50002400 	b	36(0x24) # 1c0115f0 <n16_beq_test+0xf90>
1c0115d0:	149c0d4c 	lu12i.w	$r12,319594(0x4e06a)
1c0115d4:	0290318c 	addi.w	$r12,$r12,1036(0x40c)
1c0115d8:	1588e4ed 	lu12i.w	$r13,-243929(0xc4727)
1c0115dc:	02a249ad 	addi.w	$r13,$r13,-1902(0x892)
1c0115e0:	5bffe18d 	beq	$r12,$r13,-32(0x3ffe0) # 1c0115c0 <n16_beq_test+0xf60>
1c0115e4:	50000c00 	b	12(0xc) # 1c0115f0 <n16_beq_test+0xf90>
1c0115e8:	15771feb 	lu12i.w	$r11,-280321(0xbb8ff)
1c0115ec:	02a8c16b 	addi.w	$r11,$r11,-1488(0xa30)
1c0115f0:	1400001c 	lu12i.w	$r28,0
1c0115f4:	0280039c 	addi.w	$r28,$r28,0
1c0115f8:	1400001d 	lu12i.w	$r29,0
1c0115fc:	028003bd 	addi.w	$r29,$r29,0
1c011600:	5c66055c 	bne	$r10,$r28,26116(0x6604) # 1c017c04 <inst_error>
1c011604:	5c66017d 	bne	$r11,$r29,26112(0x6600) # 1c017c04 <inst_error>
1c011608:	14b0baf0 	lu12i.w	$r16,361943(0x585d7)
1c01160c:	029e8610 	addi.w	$r16,$r16,1953(0x7a1)
1c011610:	1431d331 	lu12i.w	$r17,102041(0x18e99)
1c011614:	02850231 	addi.w	$r17,$r17,320(0x140)
1c011618:	1400000a 	lu12i.w	$r10,0
1c01161c:	1400000b 	lu12i.w	$r11,0
1c011620:	50001400 	b	20(0x14) # 1c011634 <n16_beq_test+0xfd4>
1c011624:	14b0baea 	lu12i.w	$r10,361943(0x585d7)
1c011628:	029e854a 	addi.w	$r10,$r10,1953(0x7a1)
1c01162c:	580021ac 	beq	$r13,$r12,32(0x20) # 1c01164c <n16_beq_test+0xfec>
1c011630:	50002400 	b	36(0x24) # 1c011654 <n16_beq_test+0xff4>
1c011634:	147a02ac 	lu12i.w	$r12,249877(0x3d015)
1c011638:	02a8918c 	addi.w	$r12,$r12,-1500(0xa24)
1c01163c:	148414ad 	lu12i.w	$r13,270501(0x420a5)
1c011640:	02ab41ad 	addi.w	$r13,$r13,-1328(0xad0)
1c011644:	5bffe18d 	beq	$r12,$r13,-32(0x3ffe0) # 1c011624 <n16_beq_test+0xfc4>
1c011648:	50000c00 	b	12(0xc) # 1c011654 <n16_beq_test+0xff4>
1c01164c:	1431d32b 	lu12i.w	$r11,102041(0x18e99)
1c011650:	0285016b 	addi.w	$r11,$r11,320(0x140)
1c011654:	1400001c 	lu12i.w	$r28,0
1c011658:	0280039c 	addi.w	$r28,$r28,0
1c01165c:	1400001d 	lu12i.w	$r29,0
1c011660:	028003bd 	addi.w	$r29,$r29,0
1c011664:	5c65a15c 	bne	$r10,$r28,26016(0x65a0) # 1c017c04 <inst_error>
1c011668:	5c659d7d 	bne	$r11,$r29,26012(0x659c) # 1c017c04 <inst_error>
1c01166c:	1426a4d0 	lu12i.w	$r16,79142(0x13526)
1c011670:	02beaa10 	addi.w	$r16,$r16,-86(0xfaa)
1c011674:	142bd591 	lu12i.w	$r17,89772(0x15eac)
1c011678:	02896231 	addi.w	$r17,$r17,600(0x258)
1c01167c:	1400000a 	lu12i.w	$r10,0
1c011680:	1400000b 	lu12i.w	$r11,0
1c011684:	50001400 	b	20(0x14) # 1c011698 <n16_beq_test+0x1038>
1c011688:	1426a4ca 	lu12i.w	$r10,79142(0x13526)
1c01168c:	02bea94a 	addi.w	$r10,$r10,-86(0xfaa)
1c011690:	580021ac 	beq	$r13,$r12,32(0x20) # 1c0116b0 <n16_beq_test+0x1050>
1c011694:	50002400 	b	36(0x24) # 1c0116b8 <n16_beq_test+0x1058>
1c011698:	1400846c 	lu12i.w	$r12,1059(0x423)
1c01169c:	02bfd18c 	addi.w	$r12,$r12,-12(0xff4)
1c0116a0:	14d4618d 	lu12i.w	$r13,434956(0x6a30c)
1c0116a4:	029a71ad 	addi.w	$r13,$r13,1692(0x69c)
1c0116a8:	5bffe18d 	beq	$r12,$r13,-32(0x3ffe0) # 1c011688 <n16_beq_test+0x1028>
1c0116ac:	50000c00 	b	12(0xc) # 1c0116b8 <n16_beq_test+0x1058>
1c0116b0:	142bd58b 	lu12i.w	$r11,89772(0x15eac)
1c0116b4:	0289616b 	addi.w	$r11,$r11,600(0x258)
1c0116b8:	1400001c 	lu12i.w	$r28,0
1c0116bc:	0280039c 	addi.w	$r28,$r28,0
1c0116c0:	1400001d 	lu12i.w	$r29,0
1c0116c4:	028003bd 	addi.w	$r29,$r29,0
1c0116c8:	5c653d5c 	bne	$r10,$r28,25916(0x653c) # 1c017c04 <inst_error>
1c0116cc:	5c65397d 	bne	$r11,$r29,25912(0x6538) # 1c017c04 <inst_error>
1c0116d0:	156ac410 	lu12i.w	$r16,-305632(0xb5620)
1c0116d4:	02850210 	addi.w	$r16,$r16,320(0x140)
1c0116d8:	15b42691 	lu12i.w	$r17,-155340(0xda134)
1c0116dc:	02877231 	addi.w	$r17,$r17,476(0x1dc)
1c0116e0:	1400000a 	lu12i.w	$r10,0
1c0116e4:	1400000b 	lu12i.w	$r11,0
1c0116e8:	50001400 	b	20(0x14) # 1c0116fc <n16_beq_test+0x109c>
1c0116ec:	156ac40a 	lu12i.w	$r10,-305632(0xb5620)
1c0116f0:	0285014a 	addi.w	$r10,$r10,320(0x140)
1c0116f4:	580021ac 	beq	$r13,$r12,32(0x20) # 1c011714 <n16_beq_test+0x10b4>
1c0116f8:	50002400 	b	36(0x24) # 1c01171c <n16_beq_test+0x10bc>
1c0116fc:	15e5b3ec 	lu12i.w	$r12,-53857(0xf2d9f)
1c011700:	02aa918c 	addi.w	$r12,$r12,-1372(0xaa4)
1c011704:	1427606d 	lu12i.w	$r13,80643(0x13b03)
1c011708:	029879ad 	addi.w	$r13,$r13,1566(0x61e)
1c01170c:	5bffe18d 	beq	$r12,$r13,-32(0x3ffe0) # 1c0116ec <n16_beq_test+0x108c>
1c011710:	50000c00 	b	12(0xc) # 1c01171c <n16_beq_test+0x10bc>
1c011714:	15b4268b 	lu12i.w	$r11,-155340(0xda134)
1c011718:	0287716b 	addi.w	$r11,$r11,476(0x1dc)
1c01171c:	1400001c 	lu12i.w	$r28,0
1c011720:	0280039c 	addi.w	$r28,$r28,0
1c011724:	1400001d 	lu12i.w	$r29,0
1c011728:	028003bd 	addi.w	$r29,$r29,0
1c01172c:	5c64d95c 	bne	$r10,$r28,25816(0x64d8) # 1c017c04 <inst_error>
1c011730:	5c64d57d 	bne	$r11,$r29,25812(0x64d4) # 1c017c04 <inst_error>
1c011734:	1511bb50 	lu12i.w	$r16,-487974(0x88dda)
1c011738:	02aa9210 	addi.w	$r16,$r16,-1372(0xaa4)
1c01173c:	14f78e11 	lu12i.w	$r17,506992(0x7bc70)
1c011740:	02ae6231 	addi.w	$r17,$r17,-1128(0xb98)
1c011744:	1400000a 	lu12i.w	$r10,0
1c011748:	1400000b 	lu12i.w	$r11,0
1c01174c:	50001400 	b	20(0x14) # 1c011760 <n16_beq_test+0x1100>
1c011750:	1511bb4a 	lu12i.w	$r10,-487974(0x88dda)
1c011754:	02aa914a 	addi.w	$r10,$r10,-1372(0xaa4)
1c011758:	580021ac 	beq	$r13,$r12,32(0x20) # 1c011778 <n16_beq_test+0x1118>
1c01175c:	50002400 	b	36(0x24) # 1c011780 <n16_beq_test+0x1120>
1c011760:	142ad7ac 	lu12i.w	$r12,87741(0x156bd)
1c011764:	02b0c18c 	addi.w	$r12,$r12,-976(0xc30)
1c011768:	14ff33cd 	lu12i.w	$r13,522654(0x7f99e)
1c01176c:	02ba81ad 	addi.w	$r13,$r13,-352(0xea0)
1c011770:	5bffe18d 	beq	$r12,$r13,-32(0x3ffe0) # 1c011750 <n16_beq_test+0x10f0>
1c011774:	50000c00 	b	12(0xc) # 1c011780 <n16_beq_test+0x1120>
1c011778:	14f78e0b 	lu12i.w	$r11,506992(0x7bc70)
1c01177c:	02ae616b 	addi.w	$r11,$r11,-1128(0xb98)
1c011780:	1400001c 	lu12i.w	$r28,0
1c011784:	0280039c 	addi.w	$r28,$r28,0
1c011788:	1400001d 	lu12i.w	$r29,0
1c01178c:	028003bd 	addi.w	$r29,$r29,0
1c011790:	5c64755c 	bne	$r10,$r28,25716(0x6474) # 1c017c04 <inst_error>
1c011794:	5c64717d 	bne	$r11,$r29,25712(0x6470) # 1c017c04 <inst_error>
1c011798:	159cac50 	lu12i.w	$r16,-203422(0xce562)
1c01179c:	02a38210 	addi.w	$r16,$r16,-1824(0x8e0)
1c0117a0:	14f7d3b1 	lu12i.w	$r17,507549(0x7be9d)
1c0117a4:	029a7631 	addi.w	$r17,$r17,1693(0x69d)
1c0117a8:	1400000a 	lu12i.w	$r10,0
1c0117ac:	1400000b 	lu12i.w	$r11,0
1c0117b0:	50001400 	b	20(0x14) # 1c0117c4 <n16_beq_test+0x1164>
1c0117b4:	159cac4a 	lu12i.w	$r10,-203422(0xce562)
1c0117b8:	02a3814a 	addi.w	$r10,$r10,-1824(0x8e0)
1c0117bc:	580021ac 	beq	$r13,$r12,32(0x20) # 1c0117dc <n16_beq_test+0x117c>
1c0117c0:	50002400 	b	36(0x24) # 1c0117e4 <n16_beq_test+0x1184>
1c0117c4:	15e83a0c 	lu12i.w	$r12,-48688(0xf41d0)
1c0117c8:	0295718c 	addi.w	$r12,$r12,1372(0x55c)
1c0117cc:	1597d04d 	lu12i.w	$r13,-213374(0xcbe82)
1c0117d0:	02be81ad 	addi.w	$r13,$r13,-96(0xfa0)
1c0117d4:	5bffe18d 	beq	$r12,$r13,-32(0x3ffe0) # 1c0117b4 <n16_beq_test+0x1154>
1c0117d8:	50000c00 	b	12(0xc) # 1c0117e4 <n16_beq_test+0x1184>
1c0117dc:	14f7d3ab 	lu12i.w	$r11,507549(0x7be9d)
1c0117e0:	029a756b 	addi.w	$r11,$r11,1693(0x69d)
1c0117e4:	1400001c 	lu12i.w	$r28,0
1c0117e8:	0280039c 	addi.w	$r28,$r28,0
1c0117ec:	1400001d 	lu12i.w	$r29,0
1c0117f0:	028003bd 	addi.w	$r29,$r29,0
1c0117f4:	5c64115c 	bne	$r10,$r28,25616(0x6410) # 1c017c04 <inst_error>
1c0117f8:	5c640d7d 	bne	$r11,$r29,25612(0x640c) # 1c017c04 <inst_error>
1c0117fc:	14c287b0 	lu12i.w	$r16,398397(0x6143d)
1c011800:	0298aa10 	addi.w	$r16,$r16,1578(0x62a)
1c011804:	14901311 	lu12i.w	$r17,295064(0x48098)
1c011808:	028dba31 	addi.w	$r17,$r17,878(0x36e)
1c01180c:	1400000a 	lu12i.w	$r10,0
1c011810:	1400000b 	lu12i.w	$r11,0
1c011814:	50001400 	b	20(0x14) # 1c011828 <n16_beq_test+0x11c8>
1c011818:	14c287aa 	lu12i.w	$r10,398397(0x6143d)
1c01181c:	0298a94a 	addi.w	$r10,$r10,1578(0x62a)
1c011820:	580021ac 	beq	$r13,$r12,32(0x20) # 1c011840 <n16_beq_test+0x11e0>
1c011824:	50002400 	b	36(0x24) # 1c011848 <n16_beq_test+0x11e8>
1c011828:	1588ca4c 	lu12i.w	$r12,-244142(0xc4652)
1c01182c:	02ab418c 	addi.w	$r12,$r12,-1328(0xad0)
1c011830:	1515c9ed 	lu12i.w	$r13,-479665(0x8ae4f)
1c011834:	029979ad 	addi.w	$r13,$r13,1630(0x65e)
1c011838:	5bffe18d 	beq	$r12,$r13,-32(0x3ffe0) # 1c011818 <n16_beq_test+0x11b8>
1c01183c:	50000c00 	b	12(0xc) # 1c011848 <n16_beq_test+0x11e8>
1c011840:	1490130b 	lu12i.w	$r11,295064(0x48098)
1c011844:	028db96b 	addi.w	$r11,$r11,878(0x36e)
1c011848:	1400001c 	lu12i.w	$r28,0
1c01184c:	0280039c 	addi.w	$r28,$r28,0
1c011850:	1400001d 	lu12i.w	$r29,0
1c011854:	028003bd 	addi.w	$r29,$r29,0
1c011858:	5c63ad5c 	bne	$r10,$r28,25516(0x63ac) # 1c017c04 <inst_error>
1c01185c:	5c63a97d 	bne	$r11,$r29,25512(0x63a8) # 1c017c04 <inst_error>
1c011860:	15da06d0 	lu12i.w	$r16,-77770(0xed036)
1c011864:	02bf5210 	addi.w	$r16,$r16,-44(0xfd4)
1c011868:	141769d1 	lu12i.w	$r17,47950(0xbb4e)
1c01186c:	02a4b231 	addi.w	$r17,$r17,-1748(0x92c)
1c011870:	1400000a 	lu12i.w	$r10,0
1c011874:	1400000b 	lu12i.w	$r11,0
1c011878:	50001400 	b	20(0x14) # 1c01188c <n16_beq_test+0x122c>
1c01187c:	15da06ca 	lu12i.w	$r10,-77770(0xed036)
1c011880:	02bf514a 	addi.w	$r10,$r10,-44(0xfd4)
1c011884:	580021ac 	beq	$r13,$r12,32(0x20) # 1c0118a4 <n16_beq_test+0x1244>
1c011888:	50002400 	b	36(0x24) # 1c0118ac <n16_beq_test+0x124c>
1c01188c:	1528990c 	lu12i.w	$r12,-441144(0x944c8)
1c011890:	0285818c 	addi.w	$r12,$r12,352(0x160)
1c011894:	14c91d8d 	lu12i.w	$r13,411884(0x648ec)
1c011898:	02a221ad 	addi.w	$r13,$r13,-1912(0x888)
1c01189c:	5bffe18d 	beq	$r12,$r13,-32(0x3ffe0) # 1c01187c <n16_beq_test+0x121c>
1c0118a0:	50000c00 	b	12(0xc) # 1c0118ac <n16_beq_test+0x124c>
1c0118a4:	141769cb 	lu12i.w	$r11,47950(0xbb4e)
1c0118a8:	02a4b16b 	addi.w	$r11,$r11,-1748(0x92c)
1c0118ac:	1400001c 	lu12i.w	$r28,0
1c0118b0:	0280039c 	addi.w	$r28,$r28,0
1c0118b4:	1400001d 	lu12i.w	$r29,0
1c0118b8:	028003bd 	addi.w	$r29,$r29,0
1c0118bc:	5c63495c 	bne	$r10,$r28,25416(0x6348) # 1c017c04 <inst_error>
1c0118c0:	5c63457d 	bne	$r11,$r29,25412(0x6344) # 1c017c04 <inst_error>
1c0118c4:	155a7410 	lu12i.w	$r16,-339040(0xad3a0)
1c0118c8:	028e1610 	addi.w	$r16,$r16,901(0x385)
1c0118cc:	158d6b51 	lu12i.w	$r17,-234662(0xc6b5a)
1c0118d0:	02b1ba31 	addi.w	$r17,$r17,-914(0xc6e)
1c0118d4:	1400000a 	lu12i.w	$r10,0
1c0118d8:	1400000b 	lu12i.w	$r11,0
1c0118dc:	50001400 	b	20(0x14) # 1c0118f0 <n16_beq_test+0x1290>
1c0118e0:	155a740a 	lu12i.w	$r10,-339040(0xad3a0)
1c0118e4:	028e154a 	addi.w	$r10,$r10,901(0x385)
1c0118e8:	580021ac 	beq	$r13,$r12,32(0x20) # 1c011908 <n16_beq_test+0x12a8>
1c0118ec:	50002400 	b	36(0x24) # 1c011910 <n16_beq_test+0x12b0>
1c0118f0:	152810ec 	lu12i.w	$r12,-442233(0x94087)
1c0118f4:	0290718c 	addi.w	$r12,$r12,1052(0x41c)
1c0118f8:	143b43ad 	lu12i.w	$r13,121373(0x1da1d)
1c0118fc:	028181ad 	addi.w	$r13,$r13,96(0x60)
1c011900:	5bffe18d 	beq	$r12,$r13,-32(0x3ffe0) # 1c0118e0 <n16_beq_test+0x1280>
1c011904:	50000c00 	b	12(0xc) # 1c011910 <n16_beq_test+0x12b0>
1c011908:	158d6b4b 	lu12i.w	$r11,-234662(0xc6b5a)
1c01190c:	02b1b96b 	addi.w	$r11,$r11,-914(0xc6e)
1c011910:	1400001c 	lu12i.w	$r28,0
1c011914:	0280039c 	addi.w	$r28,$r28,0
1c011918:	1400001d 	lu12i.w	$r29,0
1c01191c:	028003bd 	addi.w	$r29,$r29,0
1c011920:	5c62e55c 	bne	$r10,$r28,25316(0x62e4) # 1c017c04 <inst_error>
1c011924:	5c62e17d 	bne	$r11,$r29,25312(0x62e0) # 1c017c04 <inst_error>
1c011928:	1571e010 	lu12i.w	$r16,-291072(0xb8f00)
1c01192c:	0295e210 	addi.w	$r16,$r16,1400(0x578)
1c011930:	14f93991 	lu12i.w	$r17,510412(0x7c9cc)
1c011934:	02b86231 	addi.w	$r17,$r17,-488(0xe18)
1c011938:	1400000a 	lu12i.w	$r10,0
1c01193c:	1400000b 	lu12i.w	$r11,0
1c011940:	50001400 	b	20(0x14) # 1c011954 <n16_beq_test+0x12f4>
1c011944:	1571e00a 	lu12i.w	$r10,-291072(0xb8f00)
1c011948:	0295e14a 	addi.w	$r10,$r10,1400(0x578)
1c01194c:	580021ac 	beq	$r13,$r12,32(0x20) # 1c01196c <n16_beq_test+0x130c>
1c011950:	50002400 	b	36(0x24) # 1c011974 <n16_beq_test+0x1314>
1c011954:	15643c2c 	lu12i.w	$r12,-319007(0xb21e1)
1c011958:	0293458c 	addi.w	$r12,$r12,1233(0x4d1)
1c01195c:	159169cd 	lu12i.w	$r13,-226482(0xc8b4e)
1c011960:	02ae01ad 	addi.w	$r13,$r13,-1152(0xb80)
1c011964:	5bffe18d 	beq	$r12,$r13,-32(0x3ffe0) # 1c011944 <n16_beq_test+0x12e4>
1c011968:	50000c00 	b	12(0xc) # 1c011974 <n16_beq_test+0x1314>
1c01196c:	14f9398b 	lu12i.w	$r11,510412(0x7c9cc)
1c011970:	02b8616b 	addi.w	$r11,$r11,-488(0xe18)
1c011974:	1400001c 	lu12i.w	$r28,0
1c011978:	0280039c 	addi.w	$r28,$r28,0
1c01197c:	1400001d 	lu12i.w	$r29,0
1c011980:	028003bd 	addi.w	$r29,$r29,0
1c011984:	5c62815c 	bne	$r10,$r28,25216(0x6280) # 1c017c04 <inst_error>
1c011988:	5c627d7d 	bne	$r11,$r29,25212(0x627c) # 1c017c04 <inst_error>
1c01198c:	15251cd0 	lu12i.w	$r16,-448282(0x928e6)
1c011990:	02a2de10 	addi.w	$r16,$r16,-1865(0x8b7)
1c011994:	14cce531 	lu12i.w	$r17,419625(0x66729)
1c011998:	02be0231 	addi.w	$r17,$r17,-128(0xf80)
1c01199c:	1400000a 	lu12i.w	$r10,0
1c0119a0:	1400000b 	lu12i.w	$r11,0
1c0119a4:	50001400 	b	20(0x14) # 1c0119b8 <n16_beq_test+0x1358>
1c0119a8:	15251cca 	lu12i.w	$r10,-448282(0x928e6)
1c0119ac:	02a2dd4a 	addi.w	$r10,$r10,-1865(0x8b7)
1c0119b0:	580021ac 	beq	$r13,$r12,32(0x20) # 1c0119d0 <n16_beq_test+0x1370>
1c0119b4:	50002400 	b	36(0x24) # 1c0119d8 <n16_beq_test+0x1378>
1c0119b8:	14381c0c 	lu12i.w	$r12,114912(0x1c0e0)
1c0119bc:	02bc198c 	addi.w	$r12,$r12,-250(0xf06)
1c0119c0:	14dcc4ad 	lu12i.w	$r13,452133(0x6e625)
1c0119c4:	028b01ad 	addi.w	$r13,$r13,704(0x2c0)
1c0119c8:	5bffe18d 	beq	$r12,$r13,-32(0x3ffe0) # 1c0119a8 <n16_beq_test+0x1348>
1c0119cc:	50000c00 	b	12(0xc) # 1c0119d8 <n16_beq_test+0x1378>
1c0119d0:	14cce52b 	lu12i.w	$r11,419625(0x66729)
1c0119d4:	02be016b 	addi.w	$r11,$r11,-128(0xf80)
1c0119d8:	1400001c 	lu12i.w	$r28,0
1c0119dc:	0280039c 	addi.w	$r28,$r28,0
1c0119e0:	1400001d 	lu12i.w	$r29,0
1c0119e4:	028003bd 	addi.w	$r29,$r29,0
1c0119e8:	5c621d5c 	bne	$r10,$r28,25116(0x621c) # 1c017c04 <inst_error>
1c0119ec:	5c62197d 	bne	$r11,$r29,25112(0x6218) # 1c017c04 <inst_error>
1c0119f0:	15266d30 	lu12i.w	$r16,-445591(0x93369)
1c0119f4:	02b44210 	addi.w	$r16,$r16,-752(0xd10)
1c0119f8:	15a03cd1 	lu12i.w	$r17,-196122(0xd01e6)
1c0119fc:	02a56a31 	addi.w	$r17,$r17,-1702(0x95a)
1c011a00:	1400000a 	lu12i.w	$r10,0
1c011a04:	1400000b 	lu12i.w	$r11,0
1c011a08:	50001400 	b	20(0x14) # 1c011a1c <n16_beq_test+0x13bc>
1c011a0c:	15266d2a 	lu12i.w	$r10,-445591(0x93369)
1c011a10:	02b4414a 	addi.w	$r10,$r10,-752(0xd10)
1c011a14:	580021ac 	beq	$r13,$r12,32(0x20) # 1c011a34 <n16_beq_test+0x13d4>
1c011a18:	50002400 	b	36(0x24) # 1c011a3c <n16_beq_test+0x13dc>
1c011a1c:	143a4b6c 	lu12i.w	$r12,119387(0x1d25b)
1c011a20:	0289d18c 	addi.w	$r12,$r12,628(0x274)
1c011a24:	15f89ecd 	lu12i.w	$r13,-15114(0xfc4f6)
1c011a28:	029b19ad 	addi.w	$r13,$r13,1734(0x6c6)
1c011a2c:	5bffe18d 	beq	$r12,$r13,-32(0x3ffe0) # 1c011a0c <n16_beq_test+0x13ac>
1c011a30:	50000c00 	b	12(0xc) # 1c011a3c <n16_beq_test+0x13dc>
1c011a34:	15a03ccb 	lu12i.w	$r11,-196122(0xd01e6)
1c011a38:	02a5696b 	addi.w	$r11,$r11,-1702(0x95a)
1c011a3c:	1400001c 	lu12i.w	$r28,0
1c011a40:	0280039c 	addi.w	$r28,$r28,0
1c011a44:	1400001d 	lu12i.w	$r29,0
1c011a48:	028003bd 	addi.w	$r29,$r29,0
1c011a4c:	5c61b95c 	bne	$r10,$r28,25016(0x61b8) # 1c017c04 <inst_error>
1c011a50:	5c61b57d 	bne	$r11,$r29,25012(0x61b4) # 1c017c04 <inst_error>
1c011a54:	15980670 	lu12i.w	$r16,-212941(0xcc033)
1c011a58:	029e9210 	addi.w	$r16,$r16,1956(0x7a4)
1c011a5c:	155ec4f1 	lu12i.w	$r17,-330201(0xaf627)
1c011a60:	02a1b231 	addi.w	$r17,$r17,-1940(0x86c)
1c011a64:	1400000a 	lu12i.w	$r10,0
1c011a68:	1400000b 	lu12i.w	$r11,0
1c011a6c:	50001400 	b	20(0x14) # 1c011a80 <n16_beq_test+0x1420>
1c011a70:	1598066a 	lu12i.w	$r10,-212941(0xcc033)
1c011a74:	029e914a 	addi.w	$r10,$r10,1956(0x7a4)
1c011a78:	580021ac 	beq	$r13,$r12,32(0x20) # 1c011a98 <n16_beq_test+0x1438>
1c011a7c:	50002400 	b	36(0x24) # 1c011aa0 <n16_beq_test+0x1440>
1c011a80:	14f4d20c 	lu12i.w	$r12,501392(0x7a690)
1c011a84:	0288618c 	addi.w	$r12,$r12,536(0x218)
1c011a88:	1448178d 	lu12i.w	$r13,147644(0x240bc)
1c011a8c:	029545ad 	addi.w	$r13,$r13,1361(0x551)
1c011a90:	5bffe18d 	beq	$r12,$r13,-32(0x3ffe0) # 1c011a70 <n16_beq_test+0x1410>
1c011a94:	50000c00 	b	12(0xc) # 1c011aa0 <n16_beq_test+0x1440>
1c011a98:	155ec4eb 	lu12i.w	$r11,-330201(0xaf627)
1c011a9c:	02a1b16b 	addi.w	$r11,$r11,-1940(0x86c)
1c011aa0:	1400001c 	lu12i.w	$r28,0
1c011aa4:	0280039c 	addi.w	$r28,$r28,0
1c011aa8:	1400001d 	lu12i.w	$r29,0
1c011aac:	028003bd 	addi.w	$r29,$r29,0
1c011ab0:	5c61555c 	bne	$r10,$r28,24916(0x6154) # 1c017c04 <inst_error>
1c011ab4:	5c61517d 	bne	$r11,$r29,24912(0x6150) # 1c017c04 <inst_error>
1c011ab8:	14bf9eb0 	lu12i.w	$r16,392437(0x5fcf5)
1c011abc:	0290da10 	addi.w	$r16,$r16,1078(0x436)
1c011ac0:	153aa171 	lu12i.w	$r17,-404213(0x9d50b)
1c011ac4:	02b40231 	addi.w	$r17,$r17,-768(0xd00)
1c011ac8:	1400000a 	lu12i.w	$r10,0
1c011acc:	1400000b 	lu12i.w	$r11,0
1c011ad0:	50001400 	b	20(0x14) # 1c011ae4 <n16_beq_test+0x1484>
1c011ad4:	14bf9eaa 	lu12i.w	$r10,392437(0x5fcf5)
1c011ad8:	0290d94a 	addi.w	$r10,$r10,1078(0x436)
1c011adc:	580021ac 	beq	$r13,$r12,32(0x20) # 1c011afc <n16_beq_test+0x149c>
1c011ae0:	50002400 	b	36(0x24) # 1c011b04 <n16_beq_test+0x14a4>
1c011ae4:	1566a10c 	lu12i.w	$r12,-314104(0xb3508)
1c011ae8:	0290458c 	addi.w	$r12,$r12,1041(0x411)
1c011aec:	1429c60d 	lu12i.w	$r13,85552(0x14e30)
1c011af0:	02b5a9ad 	addi.w	$r13,$r13,-662(0xd6a)
1c011af4:	5bffe18d 	beq	$r12,$r13,-32(0x3ffe0) # 1c011ad4 <n16_beq_test+0x1474>
1c011af8:	50000c00 	b	12(0xc) # 1c011b04 <n16_beq_test+0x14a4>
1c011afc:	153aa16b 	lu12i.w	$r11,-404213(0x9d50b)
1c011b00:	02b4016b 	addi.w	$r11,$r11,-768(0xd00)
1c011b04:	1400001c 	lu12i.w	$r28,0
1c011b08:	0280039c 	addi.w	$r28,$r28,0
1c011b0c:	1400001d 	lu12i.w	$r29,0
1c011b10:	028003bd 	addi.w	$r29,$r29,0
1c011b14:	5c60f15c 	bne	$r10,$r28,24816(0x60f0) # 1c017c04 <inst_error>
1c011b18:	5c60ed7d 	bne	$r11,$r29,24812(0x60ec) # 1c017c04 <inst_error>
1c011b1c:	1542e570 	lu12i.w	$r16,-387285(0xa172b)
1c011b20:	02b22e10 	addi.w	$r16,$r16,-885(0xc8b)
1c011b24:	15e9ad71 	lu12i.w	$r17,-45717(0xf4d6b)
1c011b28:	02800231 	addi.w	$r17,$r17,0
1c011b2c:	1400000a 	lu12i.w	$r10,0
1c011b30:	1400000b 	lu12i.w	$r11,0
1c011b34:	50001400 	b	20(0x14) # 1c011b48 <n16_beq_test+0x14e8>
1c011b38:	1542e56a 	lu12i.w	$r10,-387285(0xa172b)
1c011b3c:	02b22d4a 	addi.w	$r10,$r10,-885(0xc8b)
1c011b40:	580021ac 	beq	$r13,$r12,32(0x20) # 1c011b60 <n16_beq_test+0x1500>
1c011b44:	50002400 	b	36(0x24) # 1c011b68 <n16_beq_test+0x1508>
1c011b48:	154fa98c 	lu12i.w	$r12,-361140(0xa7d4c)
1c011b4c:	0280318c 	addi.w	$r12,$r12,12(0xc)
1c011b50:	143166ad 	lu12i.w	$r13,101173(0x18b35)
1c011b54:	029f81ad 	addi.w	$r13,$r13,2016(0x7e0)
1c011b58:	5bffe18d 	beq	$r12,$r13,-32(0x3ffe0) # 1c011b38 <n16_beq_test+0x14d8>
1c011b5c:	50000c00 	b	12(0xc) # 1c011b68 <n16_beq_test+0x1508>
1c011b60:	15e9ad6b 	lu12i.w	$r11,-45717(0xf4d6b)
1c011b64:	0280016b 	addi.w	$r11,$r11,0
1c011b68:	1400001c 	lu12i.w	$r28,0
1c011b6c:	0280039c 	addi.w	$r28,$r28,0
1c011b70:	1400001d 	lu12i.w	$r29,0
1c011b74:	028003bd 	addi.w	$r29,$r29,0
1c011b78:	5c608d5c 	bne	$r10,$r28,24716(0x608c) # 1c017c04 <inst_error>
1c011b7c:	5c60897d 	bne	$r11,$r29,24712(0x6088) # 1c017c04 <inst_error>
1c011b80:	1561bdf0 	lu12i.w	$r16,-324113(0xb0def)
1c011b84:	02b70a10 	addi.w	$r16,$r16,-574(0xdc2)
1c011b88:	153fda51 	lu12i.w	$r17,-393518(0x9fed2)
1c011b8c:	02b42a31 	addi.w	$r17,$r17,-758(0xd0a)
1c011b90:	1400000a 	lu12i.w	$r10,0
1c011b94:	1400000b 	lu12i.w	$r11,0
1c011b98:	50001400 	b	20(0x14) # 1c011bac <n16_beq_test+0x154c>
1c011b9c:	1561bdea 	lu12i.w	$r10,-324113(0xb0def)
1c011ba0:	02b7094a 	addi.w	$r10,$r10,-574(0xdc2)
1c011ba4:	580021ac 	beq	$r13,$r12,32(0x20) # 1c011bc4 <n16_beq_test+0x1564>
1c011ba8:	50002400 	b	36(0x24) # 1c011bcc <n16_beq_test+0x156c>
1c011bac:	15c251ac 	lu12i.w	$r12,-126323(0xe128d)
1c011bb0:	0285918c 	addi.w	$r12,$r12,356(0x164)
1c011bb4:	148fe28d 	lu12i.w	$r13,294676(0x47f14)
1c011bb8:	02be01ad 	addi.w	$r13,$r13,-128(0xf80)
1c011bbc:	5bffe18d 	beq	$r12,$r13,-32(0x3ffe0) # 1c011b9c <n16_beq_test+0x153c>
1c011bc0:	50000c00 	b	12(0xc) # 1c011bcc <n16_beq_test+0x156c>
1c011bc4:	153fda4b 	lu12i.w	$r11,-393518(0x9fed2)
1c011bc8:	02b4296b 	addi.w	$r11,$r11,-758(0xd0a)
1c011bcc:	1400001c 	lu12i.w	$r28,0
1c011bd0:	0280039c 	addi.w	$r28,$r28,0
1c011bd4:	1400001d 	lu12i.w	$r29,0
1c011bd8:	028003bd 	addi.w	$r29,$r29,0
1c011bdc:	5c60295c 	bne	$r10,$r28,24616(0x6028) # 1c017c04 <inst_error>
1c011be0:	5c60257d 	bne	$r11,$r29,24612(0x6024) # 1c017c04 <inst_error>
1c011be4:	1597d510 	lu12i.w	$r16,-213336(0xcbea8)
1c011be8:	028a6210 	addi.w	$r16,$r16,664(0x298)
1c011bec:	14f6c251 	lu12i.w	$r17,505362(0x7b612)
1c011bf0:	02885a31 	addi.w	$r17,$r17,534(0x216)
1c011bf4:	1400000a 	lu12i.w	$r10,0
1c011bf8:	1400000b 	lu12i.w	$r11,0
1c011bfc:	50001400 	b	20(0x14) # 1c011c10 <n16_beq_test+0x15b0>
1c011c00:	1597d50a 	lu12i.w	$r10,-213336(0xcbea8)
1c011c04:	028a614a 	addi.w	$r10,$r10,664(0x298)
1c011c08:	580021ac 	beq	$r13,$r12,32(0x20) # 1c011c28 <n16_beq_test+0x15c8>
1c011c0c:	50002400 	b	36(0x24) # 1c011c30 <n16_beq_test+0x15d0>
1c011c10:	153543ec 	lu12i.w	$r12,-415201(0x9aa1f)
1c011c14:	02bd798c 	addi.w	$r12,$r12,-162(0xf5e)
1c011c18:	15dbd74d 	lu12i.w	$r13,-74054(0xedeba)
1c011c1c:	029a81ad 	addi.w	$r13,$r13,1696(0x6a0)
1c011c20:	5bffe18d 	beq	$r12,$r13,-32(0x3ffe0) # 1c011c00 <n16_beq_test+0x15a0>
1c011c24:	50000c00 	b	12(0xc) # 1c011c30 <n16_beq_test+0x15d0>
1c011c28:	14f6c24b 	lu12i.w	$r11,505362(0x7b612)
1c011c2c:	0288596b 	addi.w	$r11,$r11,534(0x216)
1c011c30:	1400001c 	lu12i.w	$r28,0
1c011c34:	0280039c 	addi.w	$r28,$r28,0
1c011c38:	1400001d 	lu12i.w	$r29,0
1c011c3c:	028003bd 	addi.w	$r29,$r29,0
1c011c40:	5c5fc55c 	bne	$r10,$r28,24516(0x5fc4) # 1c017c04 <inst_error>
1c011c44:	5c5fc17d 	bne	$r11,$r29,24512(0x5fc0) # 1c017c04 <inst_error>
1c011c48:	15631250 	lu12i.w	$r16,-321390(0xb1892)
1c011c4c:	029b6210 	addi.w	$r16,$r16,1752(0x6d8)
1c011c50:	145c4231 	lu12i.w	$r17,188945(0x2e211)
1c011c54:	029d0231 	addi.w	$r17,$r17,1856(0x740)
1c011c58:	1400000a 	lu12i.w	$r10,0
1c011c5c:	1400000b 	lu12i.w	$r11,0
1c011c60:	50001400 	b	20(0x14) # 1c011c74 <n16_beq_test+0x1614>
1c011c64:	1563124a 	lu12i.w	$r10,-321390(0xb1892)
1c011c68:	029b614a 	addi.w	$r10,$r10,1752(0x6d8)
1c011c6c:	580021ac 	beq	$r13,$r12,32(0x20) # 1c011c8c <n16_beq_test+0x162c>
1c011c70:	50002400 	b	36(0x24) # 1c011c94 <n16_beq_test+0x1634>
1c011c74:	15fe19ec 	lu12i.w	$r12,-3889(0xff0cf)
1c011c78:	02b5318c 	addi.w	$r12,$r12,-692(0xd4c)
1c011c7c:	146d9b6d 	lu12i.w	$r13,224475(0x36cdb)
1c011c80:	02a211ad 	addi.w	$r13,$r13,-1916(0x884)
1c011c84:	5bffe18d 	beq	$r12,$r13,-32(0x3ffe0) # 1c011c64 <n16_beq_test+0x1604>
1c011c88:	50000c00 	b	12(0xc) # 1c011c94 <n16_beq_test+0x1634>
1c011c8c:	145c422b 	lu12i.w	$r11,188945(0x2e211)
1c011c90:	029d016b 	addi.w	$r11,$r11,1856(0x740)
1c011c94:	1400001c 	lu12i.w	$r28,0
1c011c98:	0280039c 	addi.w	$r28,$r28,0
1c011c9c:	1400001d 	lu12i.w	$r29,0
1c011ca0:	028003bd 	addi.w	$r29,$r29,0
1c011ca4:	5c5f615c 	bne	$r10,$r28,24416(0x5f60) # 1c017c04 <inst_error>
1c011ca8:	5c5f5d7d 	bne	$r11,$r29,24412(0x5f5c) # 1c017c04 <inst_error>
1c011cac:	15528b70 	lu12i.w	$r16,-355237(0xa945b)
1c011cb0:	02bfba10 	addi.w	$r16,$r16,-18(0xfee)
1c011cb4:	15955ed1 	lu12i.w	$r17,-218378(0xcaaf6)
1c011cb8:	02ab0231 	addi.w	$r17,$r17,-1344(0xac0)
1c011cbc:	1400000a 	lu12i.w	$r10,0
1c011cc0:	1400000b 	lu12i.w	$r11,0
1c011cc4:	50001400 	b	20(0x14) # 1c011cd8 <n16_beq_test+0x1678>
1c011cc8:	15528b6a 	lu12i.w	$r10,-355237(0xa945b)
1c011ccc:	02bfb94a 	addi.w	$r10,$r10,-18(0xfee)
1c011cd0:	580021ac 	beq	$r13,$r12,32(0x20) # 1c011cf0 <n16_beq_test+0x1690>
1c011cd4:	50002400 	b	36(0x24) # 1c011cf8 <n16_beq_test+0x1698>
1c011cd8:	154d036c 	lu12i.w	$r12,-366565(0xa681b)
1c011cdc:	029e018c 	addi.w	$r12,$r12,1920(0x780)
1c011ce0:	148bfb6d 	lu12i.w	$r13,286683(0x45fdb)
1c011ce4:	028ac1ad 	addi.w	$r13,$r13,688(0x2b0)
1c011ce8:	5bffe18d 	beq	$r12,$r13,-32(0x3ffe0) # 1c011cc8 <n16_beq_test+0x1668>
1c011cec:	50000c00 	b	12(0xc) # 1c011cf8 <n16_beq_test+0x1698>
1c011cf0:	15955ecb 	lu12i.w	$r11,-218378(0xcaaf6)
1c011cf4:	02ab016b 	addi.w	$r11,$r11,-1344(0xac0)
1c011cf8:	1400001c 	lu12i.w	$r28,0
1c011cfc:	0280039c 	addi.w	$r28,$r28,0
1c011d00:	1400001d 	lu12i.w	$r29,0
1c011d04:	028003bd 	addi.w	$r29,$r29,0
1c011d08:	5c5efd5c 	bne	$r10,$r28,24316(0x5efc) # 1c017c04 <inst_error>
1c011d0c:	5c5ef97d 	bne	$r11,$r29,24312(0x5ef8) # 1c017c04 <inst_error>
1c011d10:	14b09d50 	lu12i.w	$r16,361706(0x584ea)
1c011d14:	0295d210 	addi.w	$r16,$r16,1396(0x574)
1c011d18:	15b2ff71 	lu12i.w	$r17,-157701(0xd97fb)
1c011d1c:	02be5a31 	addi.w	$r17,$r17,-106(0xf96)
1c011d20:	1400000a 	lu12i.w	$r10,0
1c011d24:	1400000b 	lu12i.w	$r11,0
1c011d28:	50001400 	b	20(0x14) # 1c011d3c <n16_beq_test+0x16dc>
1c011d2c:	14b09d4a 	lu12i.w	$r10,361706(0x584ea)
1c011d30:	0295d14a 	addi.w	$r10,$r10,1396(0x574)
1c011d34:	580021ac 	beq	$r13,$r12,32(0x20) # 1c011d54 <n16_beq_test+0x16f4>
1c011d38:	50002400 	b	36(0x24) # 1c011d5c <n16_beq_test+0x16fc>
1c011d3c:	147693cc 	lu12i.w	$r12,242846(0x3b49e)
1c011d40:	02b5d98c 	addi.w	$r12,$r12,-650(0xd76)
1c011d44:	1539cead 	lu12i.w	$r13,-405899(0x9ce75)
1c011d48:	0282e1ad 	addi.w	$r13,$r13,184(0xb8)
1c011d4c:	5bffe18d 	beq	$r12,$r13,-32(0x3ffe0) # 1c011d2c <n16_beq_test+0x16cc>
1c011d50:	50000c00 	b	12(0xc) # 1c011d5c <n16_beq_test+0x16fc>
1c011d54:	15b2ff6b 	lu12i.w	$r11,-157701(0xd97fb)
1c011d58:	02be596b 	addi.w	$r11,$r11,-106(0xf96)
1c011d5c:	1400001c 	lu12i.w	$r28,0
1c011d60:	0280039c 	addi.w	$r28,$r28,0
1c011d64:	1400001d 	lu12i.w	$r29,0
1c011d68:	028003bd 	addi.w	$r29,$r29,0
1c011d6c:	5c5e995c 	bne	$r10,$r28,24216(0x5e98) # 1c017c04 <inst_error>
1c011d70:	5c5e957d 	bne	$r11,$r29,24212(0x5e94) # 1c017c04 <inst_error>
1c011d74:	14102bf0 	lu12i.w	$r16,33119(0x815f)
1c011d78:	02aa0210 	addi.w	$r16,$r16,-1408(0xa80)
1c011d7c:	15663391 	lu12i.w	$r17,-314980(0xb319c)
1c011d80:	02860231 	addi.w	$r17,$r17,384(0x180)
1c011d84:	1400000a 	lu12i.w	$r10,0
1c011d88:	1400000b 	lu12i.w	$r11,0
1c011d8c:	50001400 	b	20(0x14) # 1c011da0 <n16_beq_test+0x1740>
1c011d90:	14102bea 	lu12i.w	$r10,33119(0x815f)
1c011d94:	02aa014a 	addi.w	$r10,$r10,-1408(0xa80)
1c011d98:	580021ac 	beq	$r13,$r12,32(0x20) # 1c011db8 <n16_beq_test+0x1758>
1c011d9c:	50002400 	b	36(0x24) # 1c011dc0 <n16_beq_test+0x1760>
1c011da0:	14e47b8c 	lu12i.w	$r12,467932(0x723dc)
1c011da4:	0292018c 	addi.w	$r12,$r12,1152(0x480)
1c011da8:	15fe8fed 	lu12i.w	$r13,-2945(0xff47f)
1c011dac:	02bd01ad 	addi.w	$r13,$r13,-192(0xf40)
1c011db0:	5bffe18d 	beq	$r12,$r13,-32(0x3ffe0) # 1c011d90 <n16_beq_test+0x1730>
1c011db4:	50000c00 	b	12(0xc) # 1c011dc0 <n16_beq_test+0x1760>
1c011db8:	1566338b 	lu12i.w	$r11,-314980(0xb319c)
1c011dbc:	0286016b 	addi.w	$r11,$r11,384(0x180)
1c011dc0:	1400001c 	lu12i.w	$r28,0
1c011dc4:	0280039c 	addi.w	$r28,$r28,0
1c011dc8:	1400001d 	lu12i.w	$r29,0
1c011dcc:	028003bd 	addi.w	$r29,$r29,0
1c011dd0:	5c5e355c 	bne	$r10,$r28,24116(0x5e34) # 1c017c04 <inst_error>
1c011dd4:	5c5e317d 	bne	$r11,$r29,24112(0x5e30) # 1c017c04 <inst_error>
1c011dd8:	145f96d0 	lu12i.w	$r16,195766(0x2fcb6)
1c011ddc:	0282e210 	addi.w	$r16,$r16,184(0xb8)
1c011de0:	14b37751 	lu12i.w	$r17,367546(0x59bba)
1c011de4:	0283a231 	addi.w	$r17,$r17,232(0xe8)
1c011de8:	1400000a 	lu12i.w	$r10,0
1c011dec:	1400000b 	lu12i.w	$r11,0
1c011df0:	50001400 	b	20(0x14) # 1c011e04 <n16_beq_test+0x17a4>
1c011df4:	145f96ca 	lu12i.w	$r10,195766(0x2fcb6)
1c011df8:	0282e14a 	addi.w	$r10,$r10,184(0xb8)
1c011dfc:	580021ac 	beq	$r13,$r12,32(0x20) # 1c011e1c <n16_beq_test+0x17bc>
1c011e00:	50002400 	b	36(0x24) # 1c011e24 <n16_beq_test+0x17c4>
1c011e04:	150d670c 	lu12i.w	$r12,-496840(0x86b38)
1c011e08:	0281758c 	addi.w	$r12,$r12,93(0x5d)
1c011e0c:	14e3b56d 	lu12i.w	$r13,466347(0x71dab)
1c011e10:	02ae61ad 	addi.w	$r13,$r13,-1128(0xb98)
1c011e14:	5bffe18d 	beq	$r12,$r13,-32(0x3ffe0) # 1c011df4 <n16_beq_test+0x1794>
1c011e18:	50000c00 	b	12(0xc) # 1c011e24 <n16_beq_test+0x17c4>
1c011e1c:	14b3774b 	lu12i.w	$r11,367546(0x59bba)
1c011e20:	0283a16b 	addi.w	$r11,$r11,232(0xe8)
1c011e24:	1400001c 	lu12i.w	$r28,0
1c011e28:	0280039c 	addi.w	$r28,$r28,0
1c011e2c:	1400001d 	lu12i.w	$r29,0
1c011e30:	028003bd 	addi.w	$r29,$r29,0
1c011e34:	5c5dd15c 	bne	$r10,$r28,24016(0x5dd0) # 1c017c04 <inst_error>
1c011e38:	5c5dcd7d 	bne	$r11,$r29,24012(0x5dcc) # 1c017c04 <inst_error>
1c011e3c:	151571d0 	lu12i.w	$r16,-480370(0x8ab8e)
1c011e40:	02b40210 	addi.w	$r16,$r16,-768(0xd00)
1c011e44:	15bfbc31 	lu12i.w	$r17,-131615(0xdfde1)
1c011e48:	02885231 	addi.w	$r17,$r17,532(0x214)
1c011e4c:	1400000a 	lu12i.w	$r10,0
1c011e50:	1400000b 	lu12i.w	$r11,0
1c011e54:	50001400 	b	20(0x14) # 1c011e68 <n16_beq_test+0x1808>
1c011e58:	151571ca 	lu12i.w	$r10,-480370(0x8ab8e)
1c011e5c:	02b4014a 	addi.w	$r10,$r10,-768(0xd00)
1c011e60:	580021ac 	beq	$r13,$r12,32(0x20) # 1c011e80 <n16_beq_test+0x1820>
1c011e64:	50002400 	b	36(0x24) # 1c011e88 <n16_beq_test+0x1828>
1c011e68:	15a0c72c 	lu12i.w	$r12,-195015(0xd0639)
1c011e6c:	028f298c 	addi.w	$r12,$r12,970(0x3ca)
1c011e70:	15ec016d 	lu12i.w	$r13,-40949(0xf600b)
1c011e74:	028c91ad 	addi.w	$r13,$r13,804(0x324)
1c011e78:	5bffe18d 	beq	$r12,$r13,-32(0x3ffe0) # 1c011e58 <n16_beq_test+0x17f8>
1c011e7c:	50000c00 	b	12(0xc) # 1c011e88 <n16_beq_test+0x1828>
1c011e80:	15bfbc2b 	lu12i.w	$r11,-131615(0xdfde1)
1c011e84:	0288516b 	addi.w	$r11,$r11,532(0x214)
1c011e88:	1400001c 	lu12i.w	$r28,0
1c011e8c:	0280039c 	addi.w	$r28,$r28,0
1c011e90:	1400001d 	lu12i.w	$r29,0
1c011e94:	028003bd 	addi.w	$r29,$r29,0
1c011e98:	5c5d6d5c 	bne	$r10,$r28,23916(0x5d6c) # 1c017c04 <inst_error>
1c011e9c:	5c5d697d 	bne	$r11,$r29,23912(0x5d68) # 1c017c04 <inst_error>
1c011ea0:	1589b790 	lu12i.w	$r16,-242244(0xc4dbc)
1c011ea4:	02af7210 	addi.w	$r16,$r16,-1060(0xbdc)
1c011ea8:	14a30b71 	lu12i.w	$r17,333915(0x5185b)
1c011eac:	028aea31 	addi.w	$r17,$r17,698(0x2ba)
1c011eb0:	1400000a 	lu12i.w	$r10,0
1c011eb4:	1400000b 	lu12i.w	$r11,0
1c011eb8:	50001400 	b	20(0x14) # 1c011ecc <n16_beq_test+0x186c>
1c011ebc:	1589b78a 	lu12i.w	$r10,-242244(0xc4dbc)
1c011ec0:	02af714a 	addi.w	$r10,$r10,-1060(0xbdc)
1c011ec4:	580021ac 	beq	$r13,$r12,32(0x20) # 1c011ee4 <n16_beq_test+0x1884>
1c011ec8:	50002400 	b	36(0x24) # 1c011eec <n16_beq_test+0x188c>
1c011ecc:	14d7404c 	lu12i.w	$r12,440834(0x6ba02)
1c011ed0:	02ae618c 	addi.w	$r12,$r12,-1128(0xb98)
1c011ed4:	14d5be4d 	lu12i.w	$r13,437746(0x6adf2)
1c011ed8:	028d29ad 	addi.w	$r13,$r13,842(0x34a)
1c011edc:	5bffe18d 	beq	$r12,$r13,-32(0x3ffe0) # 1c011ebc <n16_beq_test+0x185c>
1c011ee0:	50000c00 	b	12(0xc) # 1c011eec <n16_beq_test+0x188c>
1c011ee4:	14a30b6b 	lu12i.w	$r11,333915(0x5185b)
1c011ee8:	028ae96b 	addi.w	$r11,$r11,698(0x2ba)
1c011eec:	1400001c 	lu12i.w	$r28,0
1c011ef0:	0280039c 	addi.w	$r28,$r28,0
1c011ef4:	1400001d 	lu12i.w	$r29,0
1c011ef8:	028003bd 	addi.w	$r29,$r29,0
1c011efc:	5c5d095c 	bne	$r10,$r28,23816(0x5d08) # 1c017c04 <inst_error>
1c011f00:	5c5d057d 	bne	$r11,$r29,23812(0x5d04) # 1c017c04 <inst_error>
1c011f04:	142220f0 	lu12i.w	$r16,69895(0x11107)
1c011f08:	02b4f210 	addi.w	$r16,$r16,-708(0xd3c)
1c011f0c:	15975711 	lu12i.w	$r17,-214344(0xcbab8)
1c011f10:	028d5a31 	addi.w	$r17,$r17,854(0x356)
1c011f14:	1400000a 	lu12i.w	$r10,0
1c011f18:	1400000b 	lu12i.w	$r11,0
1c011f1c:	50001400 	b	20(0x14) # 1c011f30 <n16_beq_test+0x18d0>
1c011f20:	142220ea 	lu12i.w	$r10,69895(0x11107)
1c011f24:	02b4f14a 	addi.w	$r10,$r10,-708(0xd3c)
1c011f28:	580021ac 	beq	$r13,$r12,32(0x20) # 1c011f48 <n16_beq_test+0x18e8>
1c011f2c:	50002400 	b	36(0x24) # 1c011f50 <n16_beq_test+0x18f0>
1c011f30:	142be8cc 	lu12i.w	$r12,89926(0x15f46)
1c011f34:	02ac818c 	addi.w	$r12,$r12,-1248(0xb20)
1c011f38:	14cfc4ed 	lu12i.w	$r13,425511(0x67e27)
1c011f3c:	028c49ad 	addi.w	$r13,$r13,786(0x312)
1c011f40:	5bffe18d 	beq	$r12,$r13,-32(0x3ffe0) # 1c011f20 <n16_beq_test+0x18c0>
1c011f44:	50000c00 	b	12(0xc) # 1c011f50 <n16_beq_test+0x18f0>
1c011f48:	1597570b 	lu12i.w	$r11,-214344(0xcbab8)
1c011f4c:	028d596b 	addi.w	$r11,$r11,854(0x356)
1c011f50:	1400001c 	lu12i.w	$r28,0
1c011f54:	0280039c 	addi.w	$r28,$r28,0
1c011f58:	1400001d 	lu12i.w	$r29,0
1c011f5c:	028003bd 	addi.w	$r29,$r29,0
1c011f60:	5c5ca55c 	bne	$r10,$r28,23716(0x5ca4) # 1c017c04 <inst_error>
1c011f64:	5c5ca17d 	bne	$r11,$r29,23712(0x5ca0) # 1c017c04 <inst_error>
1c011f68:	1559f8b0 	lu12i.w	$r16,-340027(0xacfc5)
1c011f6c:	0296b610 	addi.w	$r16,$r16,1453(0x5ad)
1c011f70:	14b59bd1 	lu12i.w	$r17,371934(0x5acde)
1c011f74:	02940231 	addi.w	$r17,$r17,1280(0x500)
1c011f78:	1400000a 	lu12i.w	$r10,0
1c011f7c:	1400000b 	lu12i.w	$r11,0
1c011f80:	50001400 	b	20(0x14) # 1c011f94 <n16_beq_test+0x1934>
1c011f84:	1559f8aa 	lu12i.w	$r10,-340027(0xacfc5)
1c011f88:	0296b54a 	addi.w	$r10,$r10,1453(0x5ad)
1c011f8c:	580021ac 	beq	$r13,$r12,32(0x20) # 1c011fac <n16_beq_test+0x194c>
1c011f90:	50002400 	b	36(0x24) # 1c011fb4 <n16_beq_test+0x1954>
1c011f94:	1487a46c 	lu12i.w	$r12,277795(0x43d23)
1c011f98:	02a1958c 	addi.w	$r12,$r12,-1947(0x865)
1c011f9c:	142d886d 	lu12i.w	$r13,93251(0x16c43)
1c011fa0:	029319ad 	addi.w	$r13,$r13,1222(0x4c6)
1c011fa4:	5bffe18d 	beq	$r12,$r13,-32(0x3ffe0) # 1c011f84 <n16_beq_test+0x1924>
1c011fa8:	50000c00 	b	12(0xc) # 1c011fb4 <n16_beq_test+0x1954>
1c011fac:	14b59bcb 	lu12i.w	$r11,371934(0x5acde)
1c011fb0:	0294016b 	addi.w	$r11,$r11,1280(0x500)
1c011fb4:	1400001c 	lu12i.w	$r28,0
1c011fb8:	0280039c 	addi.w	$r28,$r28,0
1c011fbc:	1400001d 	lu12i.w	$r29,0
1c011fc0:	028003bd 	addi.w	$r29,$r29,0
1c011fc4:	5c5c415c 	bne	$r10,$r28,23616(0x5c40) # 1c017c04 <inst_error>
1c011fc8:	5c5c3d7d 	bne	$r11,$r29,23612(0x5c3c) # 1c017c04 <inst_error>
1c011fcc:	15f54370 	lu12i.w	$r16,-21989(0xfaa1b)
1c011fd0:	02a78210 	addi.w	$r16,$r16,-1568(0x9e0)
1c011fd4:	1591f371 	lu12i.w	$r17,-225381(0xc8f9b)
1c011fd8:	02958231 	addi.w	$r17,$r17,1376(0x560)
1c011fdc:	1400000a 	lu12i.w	$r10,0
1c011fe0:	1400000b 	lu12i.w	$r11,0
1c011fe4:	50001400 	b	20(0x14) # 1c011ff8 <n16_beq_test+0x1998>
1c011fe8:	15f5436a 	lu12i.w	$r10,-21989(0xfaa1b)
1c011fec:	02a7814a 	addi.w	$r10,$r10,-1568(0x9e0)
1c011ff0:	580021ac 	beq	$r13,$r12,32(0x20) # 1c012010 <n16_beq_test+0x19b0>
1c011ff4:	50002400 	b	36(0x24) # 1c012018 <n16_beq_test+0x19b8>
1c011ff8:	151f242c 	lu12i.w	$r12,-460511(0x8f921)
1c011ffc:	02961d8c 	addi.w	$r12,$r12,1415(0x587)
1c012000:	1435a46d 	lu12i.w	$r13,109859(0x1ad23)
1c012004:	02be6dad 	addi.w	$r13,$r13,-101(0xf9b)
1c012008:	5bffe18d 	beq	$r12,$r13,-32(0x3ffe0) # 1c011fe8 <n16_beq_test+0x1988>
1c01200c:	50000c00 	b	12(0xc) # 1c012018 <n16_beq_test+0x19b8>
1c012010:	1591f36b 	lu12i.w	$r11,-225381(0xc8f9b)
1c012014:	0295816b 	addi.w	$r11,$r11,1376(0x560)
1c012018:	1400001c 	lu12i.w	$r28,0
1c01201c:	0280039c 	addi.w	$r28,$r28,0
1c012020:	1400001d 	lu12i.w	$r29,0
1c012024:	028003bd 	addi.w	$r29,$r29,0
1c012028:	5c5bdd5c 	bne	$r10,$r28,23516(0x5bdc) # 1c017c04 <inst_error>
1c01202c:	5c5bd97d 	bne	$r11,$r29,23512(0x5bd8) # 1c017c04 <inst_error>
1c012030:	15693230 	lu12i.w	$r16,-308847(0xb4991)
1c012034:	028e8210 	addi.w	$r16,$r16,928(0x3a0)
1c012038:	14118811 	lu12i.w	$r17,35904(0x8c40)
1c01203c:	02b3da31 	addi.w	$r17,$r17,-778(0xcf6)
1c012040:	1400000a 	lu12i.w	$r10,0
1c012044:	1400000b 	lu12i.w	$r11,0
1c012048:	50001400 	b	20(0x14) # 1c01205c <n16_beq_test+0x19fc>
1c01204c:	1569322a 	lu12i.w	$r10,-308847(0xb4991)
1c012050:	028e814a 	addi.w	$r10,$r10,928(0x3a0)
1c012054:	580021ac 	beq	$r13,$r12,32(0x20) # 1c012074 <n16_beq_test+0x1a14>
1c012058:	50002400 	b	36(0x24) # 1c01207c <n16_beq_test+0x1a1c>
1c01205c:	145d80ec 	lu12i.w	$r12,191495(0x2ec07)
1c012060:	0288518c 	addi.w	$r12,$r12,532(0x214)
1c012064:	14eb7ccd 	lu12i.w	$r13,482278(0x75be6)
1c012068:	0293b1ad 	addi.w	$r13,$r13,1260(0x4ec)
1c01206c:	5bffe18d 	beq	$r12,$r13,-32(0x3ffe0) # 1c01204c <n16_beq_test+0x19ec>
1c012070:	50000c00 	b	12(0xc) # 1c01207c <n16_beq_test+0x1a1c>
1c012074:	1411880b 	lu12i.w	$r11,35904(0x8c40)
1c012078:	02b3d96b 	addi.w	$r11,$r11,-778(0xcf6)
1c01207c:	1400001c 	lu12i.w	$r28,0
1c012080:	0280039c 	addi.w	$r28,$r28,0
1c012084:	1400001d 	lu12i.w	$r29,0
1c012088:	028003bd 	addi.w	$r29,$r29,0
1c01208c:	5c5b795c 	bne	$r10,$r28,23416(0x5b78) # 1c017c04 <inst_error>
1c012090:	5c5b757d 	bne	$r11,$r29,23412(0x5b74) # 1c017c04 <inst_error>
1c012094:	14ccad30 	lu12i.w	$r16,419177(0x66569)
1c012098:	02817210 	addi.w	$r16,$r16,92(0x5c)
1c01209c:	154dceb1 	lu12i.w	$r17,-364939(0xa6e75)
1c0120a0:	02a12231 	addi.w	$r17,$r17,-1976(0x848)
1c0120a4:	1400000a 	lu12i.w	$r10,0
1c0120a8:	1400000b 	lu12i.w	$r11,0
1c0120ac:	50001400 	b	20(0x14) # 1c0120c0 <n16_beq_test+0x1a60>
1c0120b0:	14ccad2a 	lu12i.w	$r10,419177(0x66569)
1c0120b4:	0281714a 	addi.w	$r10,$r10,92(0x5c)
1c0120b8:	580021ac 	beq	$r13,$r12,32(0x20) # 1c0120d8 <n16_beq_test+0x1a78>
1c0120bc:	50002400 	b	36(0x24) # 1c0120e0 <n16_beq_test+0x1a80>
1c0120c0:	14c4144c 	lu12i.w	$r12,401570(0x620a2)
1c0120c4:	028b118c 	addi.w	$r12,$r12,708(0x2c4)
1c0120c8:	15eeb84d 	lu12i.w	$r13,-35390(0xf75c2)
1c0120cc:	029aa1ad 	addi.w	$r13,$r13,1704(0x6a8)
1c0120d0:	5bffe18d 	beq	$r12,$r13,-32(0x3ffe0) # 1c0120b0 <n16_beq_test+0x1a50>
1c0120d4:	50000c00 	b	12(0xc) # 1c0120e0 <n16_beq_test+0x1a80>
1c0120d8:	154dceab 	lu12i.w	$r11,-364939(0xa6e75)
1c0120dc:	02a1216b 	addi.w	$r11,$r11,-1976(0x848)
1c0120e0:	1400001c 	lu12i.w	$r28,0
1c0120e4:	0280039c 	addi.w	$r28,$r28,0
1c0120e8:	1400001d 	lu12i.w	$r29,0
1c0120ec:	028003bd 	addi.w	$r29,$r29,0
1c0120f0:	5c5b155c 	bne	$r10,$r28,23316(0x5b14) # 1c017c04 <inst_error>
1c0120f4:	5c5b117d 	bne	$r11,$r29,23312(0x5b10) # 1c017c04 <inst_error>
1c0120f8:	14b7eb90 	lu12i.w	$r16,376668(0x5bf5c)
1c0120fc:	02aee210 	addi.w	$r16,$r16,-1096(0xbb8)
1c012100:	147a7231 	lu12i.w	$r17,250769(0x3d391)
1c012104:	02ac6231 	addi.w	$r17,$r17,-1256(0xb18)
1c012108:	1400000a 	lu12i.w	$r10,0
1c01210c:	1400000b 	lu12i.w	$r11,0
1c012110:	50001400 	b	20(0x14) # 1c012124 <n16_beq_test+0x1ac4>
1c012114:	14b7eb8a 	lu12i.w	$r10,376668(0x5bf5c)
1c012118:	02aee14a 	addi.w	$r10,$r10,-1096(0xbb8)
1c01211c:	580021ac 	beq	$r13,$r12,32(0x20) # 1c01213c <n16_beq_test+0x1adc>
1c012120:	50002400 	b	36(0x24) # 1c012144 <n16_beq_test+0x1ae4>
1c012124:	147594ec 	lu12i.w	$r12,240807(0x3aca7)
1c012128:	0282dd8c 	addi.w	$r12,$r12,183(0xb7)
1c01212c:	1416d90d 	lu12i.w	$r13,46792(0xb6c8)
1c012130:	029701ad 	addi.w	$r13,$r13,1472(0x5c0)
1c012134:	5bffe18d 	beq	$r12,$r13,-32(0x3ffe0) # 1c012114 <n16_beq_test+0x1ab4>
1c012138:	50000c00 	b	12(0xc) # 1c012144 <n16_beq_test+0x1ae4>
1c01213c:	147a722b 	lu12i.w	$r11,250769(0x3d391)
1c012140:	02ac616b 	addi.w	$r11,$r11,-1256(0xb18)
1c012144:	1400001c 	lu12i.w	$r28,0
1c012148:	0280039c 	addi.w	$r28,$r28,0
1c01214c:	1400001d 	lu12i.w	$r29,0
1c012150:	028003bd 	addi.w	$r29,$r29,0
1c012154:	5c5ab15c 	bne	$r10,$r28,23216(0x5ab0) # 1c017c04 <inst_error>
1c012158:	5c5aad7d 	bne	$r11,$r29,23212(0x5aac) # 1c017c04 <inst_error>
1c01215c:	153e0210 	lu12i.w	$r16,-397296(0x9f010)
1c012160:	02a91a10 	addi.w	$r16,$r16,-1466(0xa46)
1c012164:	14d2b571 	lu12i.w	$r17,431531(0x695ab)
1c012168:	02820231 	addi.w	$r17,$r17,128(0x80)
1c01216c:	1400000a 	lu12i.w	$r10,0
1c012170:	1400000b 	lu12i.w	$r11,0
1c012174:	50001400 	b	20(0x14) # 1c012188 <n16_beq_test+0x1b28>
1c012178:	153e020a 	lu12i.w	$r10,-397296(0x9f010)
1c01217c:	02a9194a 	addi.w	$r10,$r10,-1466(0xa46)
1c012180:	580021ac 	beq	$r13,$r12,32(0x20) # 1c0121a0 <n16_beq_test+0x1b40>
1c012184:	50002400 	b	36(0x24) # 1c0121a8 <n16_beq_test+0x1b48>
1c012188:	1401294c 	lu12i.w	$r12,2378(0x94a)
1c01218c:	02ada98c 	addi.w	$r12,$r12,-1174(0xb6a)
1c012190:	159d858d 	lu12i.w	$r13,-201684(0xcec2c)
1c012194:	02b629ad 	addi.w	$r13,$r13,-630(0xd8a)
1c012198:	5bffe18d 	beq	$r12,$r13,-32(0x3ffe0) # 1c012178 <n16_beq_test+0x1b18>
1c01219c:	50000c00 	b	12(0xc) # 1c0121a8 <n16_beq_test+0x1b48>
1c0121a0:	14d2b56b 	lu12i.w	$r11,431531(0x695ab)
1c0121a4:	0282016b 	addi.w	$r11,$r11,128(0x80)
1c0121a8:	1400001c 	lu12i.w	$r28,0
1c0121ac:	0280039c 	addi.w	$r28,$r28,0
1c0121b0:	1400001d 	lu12i.w	$r29,0
1c0121b4:	028003bd 	addi.w	$r29,$r29,0
1c0121b8:	5c5a4d5c 	bne	$r10,$r28,23116(0x5a4c) # 1c017c04 <inst_error>
1c0121bc:	5c5a497d 	bne	$r11,$r29,23112(0x5a48) # 1c017c04 <inst_error>
1c0121c0:	145f5ab0 	lu12i.w	$r16,195285(0x2fad5)
1c0121c4:	02a40210 	addi.w	$r16,$r16,-1792(0x900)
1c0121c8:	1503b591 	lu12i.w	$r17,-516692(0x81dac)
1c0121cc:	029bd231 	addi.w	$r17,$r17,1780(0x6f4)
1c0121d0:	1400000a 	lu12i.w	$r10,0
1c0121d4:	1400000b 	lu12i.w	$r11,0
1c0121d8:	50001400 	b	20(0x14) # 1c0121ec <n16_beq_test+0x1b8c>
1c0121dc:	145f5aaa 	lu12i.w	$r10,195285(0x2fad5)
1c0121e0:	02a4014a 	addi.w	$r10,$r10,-1792(0x900)
1c0121e4:	580021ac 	beq	$r13,$r12,32(0x20) # 1c012204 <n16_beq_test+0x1ba4>
1c0121e8:	50002400 	b	36(0x24) # 1c01220c <n16_beq_test+0x1bac>
1c0121ec:	145b0cec 	lu12i.w	$r12,186471(0x2d867)
1c0121f0:	028c918c 	addi.w	$r12,$r12,804(0x324)
1c0121f4:	1588926d 	lu12i.w	$r13,-244589(0xc4493)
1c0121f8:	02b661ad 	addi.w	$r13,$r13,-616(0xd98)
1c0121fc:	5bffe18d 	beq	$r12,$r13,-32(0x3ffe0) # 1c0121dc <n16_beq_test+0x1b7c>
1c012200:	50000c00 	b	12(0xc) # 1c01220c <n16_beq_test+0x1bac>
1c012204:	1503b58b 	lu12i.w	$r11,-516692(0x81dac)
1c012208:	029bd16b 	addi.w	$r11,$r11,1780(0x6f4)
1c01220c:	1400001c 	lu12i.w	$r28,0
1c012210:	0280039c 	addi.w	$r28,$r28,0
1c012214:	1400001d 	lu12i.w	$r29,0
1c012218:	028003bd 	addi.w	$r29,$r29,0
1c01221c:	5c59e95c 	bne	$r10,$r28,23016(0x59e8) # 1c017c04 <inst_error>
1c012220:	5c59e57d 	bne	$r11,$r29,23012(0x59e4) # 1c017c04 <inst_error>
1c012224:	15730330 	lu12i.w	$r16,-288743(0xb9819)
1c012228:	02adf210 	addi.w	$r16,$r16,-1156(0xb7c)
1c01222c:	14a22791 	lu12i.w	$r17,332092(0x5113c)
1c012230:	02a56231 	addi.w	$r17,$r17,-1704(0x958)
1c012234:	1400000a 	lu12i.w	$r10,0
1c012238:	1400000b 	lu12i.w	$r11,0
1c01223c:	50001400 	b	20(0x14) # 1c012250 <n16_beq_test+0x1bf0>
1c012240:	1573032a 	lu12i.w	$r10,-288743(0xb9819)
1c012244:	02adf14a 	addi.w	$r10,$r10,-1156(0xb7c)
1c012248:	580021ac 	beq	$r13,$r12,32(0x20) # 1c012268 <n16_beq_test+0x1c08>
1c01224c:	50002400 	b	36(0x24) # 1c012270 <n16_beq_test+0x1c10>
1c012250:	14a9596c 	lu12i.w	$r12,346827(0x54acb)
1c012254:	0290c58c 	addi.w	$r12,$r12,1073(0x431)
1c012258:	14acb86d 	lu12i.w	$r13,353731(0x565c3)
1c01225c:	029c59ad 	addi.w	$r13,$r13,1814(0x716)
1c012260:	5bffe18d 	beq	$r12,$r13,-32(0x3ffe0) # 1c012240 <n16_beq_test+0x1be0>
1c012264:	50000c00 	b	12(0xc) # 1c012270 <n16_beq_test+0x1c10>
1c012268:	14a2278b 	lu12i.w	$r11,332092(0x5113c)
1c01226c:	02a5616b 	addi.w	$r11,$r11,-1704(0x958)
1c012270:	1400001c 	lu12i.w	$r28,0
1c012274:	0280039c 	addi.w	$r28,$r28,0
1c012278:	1400001d 	lu12i.w	$r29,0
1c01227c:	028003bd 	addi.w	$r29,$r29,0
1c012280:	5c59855c 	bne	$r10,$r28,22916(0x5984) # 1c017c04 <inst_error>
1c012284:	5c59817d 	bne	$r11,$r29,22912(0x5980) # 1c017c04 <inst_error>
1c012288:	14157cb0 	lu12i.w	$r16,44005(0xabe5)
1c01228c:	02970210 	addi.w	$r16,$r16,1472(0x5c0)
1c012290:	14ac91d1 	lu12i.w	$r17,353422(0x5648e)
1c012294:	02b68a31 	addi.w	$r17,$r17,-606(0xda2)
1c012298:	1400000a 	lu12i.w	$r10,0
1c01229c:	1400000b 	lu12i.w	$r11,0
1c0122a0:	50001400 	b	20(0x14) # 1c0122b4 <n16_beq_test+0x1c54>
1c0122a4:	14157caa 	lu12i.w	$r10,44005(0xabe5)
1c0122a8:	0297014a 	addi.w	$r10,$r10,1472(0x5c0)
1c0122ac:	580021ac 	beq	$r13,$r12,32(0x20) # 1c0122cc <n16_beq_test+0x1c6c>
1c0122b0:	50002400 	b	36(0x24) # 1c0122d4 <n16_beq_test+0x1c74>
1c0122b4:	157b1fac 	lu12i.w	$r12,-272131(0xbd8fd)
1c0122b8:	02a4e98c 	addi.w	$r12,$r12,-1734(0x93a)
1c0122bc:	15539fcd 	lu12i.w	$r13,-353026(0xa9cfe)
1c0122c0:	02a645ad 	addi.w	$r13,$r13,-1647(0x991)
1c0122c4:	5bffe18d 	beq	$r12,$r13,-32(0x3ffe0) # 1c0122a4 <n16_beq_test+0x1c44>
1c0122c8:	50000c00 	b	12(0xc) # 1c0122d4 <n16_beq_test+0x1c74>
1c0122cc:	14ac91cb 	lu12i.w	$r11,353422(0x5648e)
1c0122d0:	02b6896b 	addi.w	$r11,$r11,-606(0xda2)
1c0122d4:	1400001c 	lu12i.w	$r28,0
1c0122d8:	0280039c 	addi.w	$r28,$r28,0
1c0122dc:	1400001d 	lu12i.w	$r29,0
1c0122e0:	028003bd 	addi.w	$r29,$r29,0
1c0122e4:	5c59215c 	bne	$r10,$r28,22816(0x5920) # 1c017c04 <inst_error>
1c0122e8:	5c591d7d 	bne	$r11,$r29,22812(0x591c) # 1c017c04 <inst_error>
1c0122ec:	154090b0 	lu12i.w	$r16,-392059(0xa0485)
1c0122f0:	02bf0210 	addi.w	$r16,$r16,-64(0xfc0)
1c0122f4:	142c0891 	lu12i.w	$r17,90180(0x16044)
1c0122f8:	0291ca31 	addi.w	$r17,$r17,1138(0x472)
1c0122fc:	1400000a 	lu12i.w	$r10,0
1c012300:	1400000b 	lu12i.w	$r11,0
1c012304:	50001400 	b	20(0x14) # 1c012318 <n16_beq_test+0x1cb8>
1c012308:	154090aa 	lu12i.w	$r10,-392059(0xa0485)
1c01230c:	02bf014a 	addi.w	$r10,$r10,-64(0xfc0)
1c012310:	580021ac 	beq	$r13,$r12,32(0x20) # 1c012330 <n16_beq_test+0x1cd0>
1c012314:	50002400 	b	36(0x24) # 1c012338 <n16_beq_test+0x1cd8>
1c012318:	14ebbd6c 	lu12i.w	$r12,482795(0x75deb)
1c01231c:	02be018c 	addi.w	$r12,$r12,-128(0xf80)
1c012320:	152978ed 	lu12i.w	$r13,-439353(0x94bc7)
1c012324:	0280e9ad 	addi.w	$r13,$r13,58(0x3a)
1c012328:	5bffe18d 	beq	$r12,$r13,-32(0x3ffe0) # 1c012308 <n16_beq_test+0x1ca8>
1c01232c:	50000c00 	b	12(0xc) # 1c012338 <n16_beq_test+0x1cd8>
1c012330:	142c088b 	lu12i.w	$r11,90180(0x16044)
1c012334:	0291c96b 	addi.w	$r11,$r11,1138(0x472)
1c012338:	1400001c 	lu12i.w	$r28,0
1c01233c:	0280039c 	addi.w	$r28,$r28,0
1c012340:	1400001d 	lu12i.w	$r29,0
1c012344:	028003bd 	addi.w	$r29,$r29,0
1c012348:	5c58bd5c 	bne	$r10,$r28,22716(0x58bc) # 1c017c04 <inst_error>
1c01234c:	5c58b97d 	bne	$r11,$r29,22712(0x58b8) # 1c017c04 <inst_error>
1c012350:	152130f0 	lu12i.w	$r16,-456313(0x90987)
1c012354:	0282ea10 	addi.w	$r16,$r16,186(0xba)
1c012358:	15ab5331 	lu12i.w	$r17,-173415(0xd5a99)
1c01235c:	02a42231 	addi.w	$r17,$r17,-1784(0x908)
1c012360:	1400000a 	lu12i.w	$r10,0
1c012364:	1400000b 	lu12i.w	$r11,0
1c012368:	50001400 	b	20(0x14) # 1c01237c <n16_beq_test+0x1d1c>
1c01236c:	152130ea 	lu12i.w	$r10,-456313(0x90987)
1c012370:	0282e94a 	addi.w	$r10,$r10,186(0xba)
1c012374:	580021ac 	beq	$r13,$r12,32(0x20) # 1c012394 <n16_beq_test+0x1d34>
1c012378:	50002400 	b	36(0x24) # 1c01239c <n16_beq_test+0x1d3c>
1c01237c:	15347bec 	lu12i.w	$r12,-416801(0x9a3df)
1c012380:	02af618c 	addi.w	$r12,$r12,-1064(0xbd8)
1c012384:	14de35ed 	lu12i.w	$r13,455087(0x6f1af)
1c012388:	02a461ad 	addi.w	$r13,$r13,-1768(0x918)
1c01238c:	5bffe18d 	beq	$r12,$r13,-32(0x3ffe0) # 1c01236c <n16_beq_test+0x1d0c>
1c012390:	50000c00 	b	12(0xc) # 1c01239c <n16_beq_test+0x1d3c>
1c012394:	15ab532b 	lu12i.w	$r11,-173415(0xd5a99)
1c012398:	02a4216b 	addi.w	$r11,$r11,-1784(0x908)
1c01239c:	1400001c 	lu12i.w	$r28,0
1c0123a0:	0280039c 	addi.w	$r28,$r28,0
1c0123a4:	1400001d 	lu12i.w	$r29,0
1c0123a8:	028003bd 	addi.w	$r29,$r29,0
1c0123ac:	5c58595c 	bne	$r10,$r28,22616(0x5858) # 1c017c04 <inst_error>
1c0123b0:	5c58557d 	bne	$r11,$r29,22612(0x5854) # 1c017c04 <inst_error>
1c0123b4:	14db17f0 	lu12i.w	$r16,448703(0x6d8bf)
1c0123b8:	02a80210 	addi.w	$r16,$r16,-1536(0xa00)
1c0123bc:	142c9491 	lu12i.w	$r17,91300(0x164a4)
1c0123c0:	029f8231 	addi.w	$r17,$r17,2016(0x7e0)
1c0123c4:	1400000a 	lu12i.w	$r10,0
1c0123c8:	1400000b 	lu12i.w	$r11,0
1c0123cc:	50001400 	b	20(0x14) # 1c0123e0 <n16_beq_test+0x1d80>
1c0123d0:	14db17ea 	lu12i.w	$r10,448703(0x6d8bf)
1c0123d4:	02a8014a 	addi.w	$r10,$r10,-1536(0xa00)
1c0123d8:	580021ac 	beq	$r13,$r12,32(0x20) # 1c0123f8 <n16_beq_test+0x1d98>
1c0123dc:	50002400 	b	36(0x24) # 1c012400 <n16_beq_test+0x1da0>
1c0123e0:	14916b0c 	lu12i.w	$r12,297816(0x48b58)
1c0123e4:	029d718c 	addi.w	$r12,$r12,1884(0x75c)
1c0123e8:	1576b60d 	lu12i.w	$r13,-281168(0xbb5b0)
1c0123ec:	02b3c1ad 	addi.w	$r13,$r13,-784(0xcf0)
1c0123f0:	5bffe18d 	beq	$r12,$r13,-32(0x3ffe0) # 1c0123d0 <n16_beq_test+0x1d70>
1c0123f4:	50000c00 	b	12(0xc) # 1c012400 <n16_beq_test+0x1da0>
1c0123f8:	142c948b 	lu12i.w	$r11,91300(0x164a4)
1c0123fc:	029f816b 	addi.w	$r11,$r11,2016(0x7e0)
1c012400:	1400001c 	lu12i.w	$r28,0
1c012404:	0280039c 	addi.w	$r28,$r28,0
1c012408:	1400001d 	lu12i.w	$r29,0
1c01240c:	028003bd 	addi.w	$r29,$r29,0
1c012410:	5c57f55c 	bne	$r10,$r28,22516(0x57f4) # 1c017c04 <inst_error>
1c012414:	5c57f17d 	bne	$r11,$r29,22512(0x57f0) # 1c017c04 <inst_error>
1c012418:	1474cd90 	lu12i.w	$r16,239212(0x3a66c)
1c01241c:	02872210 	addi.w	$r16,$r16,456(0x1c8)
1c012420:	1466b2f1 	lu12i.w	$r17,210327(0x33597)
1c012424:	02a97231 	addi.w	$r17,$r17,-1444(0xa5c)
1c012428:	1400000a 	lu12i.w	$r10,0
1c01242c:	1400000b 	lu12i.w	$r11,0
1c012430:	50001400 	b	20(0x14) # 1c012444 <n16_beq_test+0x1de4>
1c012434:	1474cd8a 	lu12i.w	$r10,239212(0x3a66c)
1c012438:	0287214a 	addi.w	$r10,$r10,456(0x1c8)
1c01243c:	580021ac 	beq	$r13,$r12,32(0x20) # 1c01245c <n16_beq_test+0x1dfc>
1c012440:	50002400 	b	36(0x24) # 1c012464 <n16_beq_test+0x1e04>
1c012444:	14816fcc 	lu12i.w	$r12,265086(0x40b7e)
1c012448:	0289b98c 	addi.w	$r12,$r12,622(0x26e)
1c01244c:	1547ab4d 	lu12i.w	$r13,-377510(0xa3d5a)
1c012450:	02b271ad 	addi.w	$r13,$r13,-868(0xc9c)
1c012454:	5bffe18d 	beq	$r12,$r13,-32(0x3ffe0) # 1c012434 <n16_beq_test+0x1dd4>
1c012458:	50000c00 	b	12(0xc) # 1c012464 <n16_beq_test+0x1e04>
1c01245c:	1466b2eb 	lu12i.w	$r11,210327(0x33597)
1c012460:	02a9716b 	addi.w	$r11,$r11,-1444(0xa5c)
1c012464:	1400001c 	lu12i.w	$r28,0
1c012468:	0280039c 	addi.w	$r28,$r28,0
1c01246c:	1400001d 	lu12i.w	$r29,0
1c012470:	028003bd 	addi.w	$r29,$r29,0
1c012474:	5c57915c 	bne	$r10,$r28,22416(0x5790) # 1c017c04 <inst_error>
1c012478:	5c578d7d 	bne	$r11,$r29,22412(0x578c) # 1c017c04 <inst_error>
1c01247c:	14468330 	lu12i.w	$r16,144409(0x23419)
1c012480:	02852210 	addi.w	$r16,$r16,328(0x148)
1c012484:	152521d1 	lu12i.w	$r17,-448242(0x9290e)
1c012488:	02b0e631 	addi.w	$r17,$r17,-967(0xc39)
1c01248c:	1400000a 	lu12i.w	$r10,0
1c012490:	1400000b 	lu12i.w	$r11,0
1c012494:	50001400 	b	20(0x14) # 1c0124a8 <n16_beq_test+0x1e48>
1c012498:	1446832a 	lu12i.w	$r10,144409(0x23419)
1c01249c:	0285214a 	addi.w	$r10,$r10,328(0x148)
1c0124a0:	580021ac 	beq	$r13,$r12,32(0x20) # 1c0124c0 <n16_beq_test+0x1e60>
1c0124a4:	50002400 	b	36(0x24) # 1c0124c8 <n16_beq_test+0x1e68>
1c0124a8:	1537960c 	lu12i.w	$r12,-410448(0x9bcb0)
1c0124ac:	02a1318c 	addi.w	$r12,$r12,-1972(0x84c)
1c0124b0:	1516456d 	lu12i.w	$r13,-478677(0x8b22b)
1c0124b4:	02b831ad 	addi.w	$r13,$r13,-500(0xe0c)
1c0124b8:	5bffe18d 	beq	$r12,$r13,-32(0x3ffe0) # 1c012498 <n16_beq_test+0x1e38>
1c0124bc:	50000c00 	b	12(0xc) # 1c0124c8 <n16_beq_test+0x1e68>
1c0124c0:	152521cb 	lu12i.w	$r11,-448242(0x9290e)
1c0124c4:	02b0e56b 	addi.w	$r11,$r11,-967(0xc39)
1c0124c8:	1400001c 	lu12i.w	$r28,0
1c0124cc:	0280039c 	addi.w	$r28,$r28,0
1c0124d0:	1400001d 	lu12i.w	$r29,0
1c0124d4:	028003bd 	addi.w	$r29,$r29,0
1c0124d8:	5c572d5c 	bne	$r10,$r28,22316(0x572c) # 1c017c04 <inst_error>
1c0124dc:	5c57297d 	bne	$r11,$r29,22312(0x5728) # 1c017c04 <inst_error>
1c0124e0:	1575b8d0 	lu12i.w	$r16,-283194(0xbadc6)
1c0124e4:	02b2f210 	addi.w	$r16,$r16,-836(0xcbc)
1c0124e8:	15c150b1 	lu12i.w	$r17,-128379(0xe0a85)
1c0124ec:	02b88231 	addi.w	$r17,$r17,-480(0xe20)
1c0124f0:	1400000a 	lu12i.w	$r10,0
1c0124f4:	1400000b 	lu12i.w	$r11,0
1c0124f8:	50001400 	b	20(0x14) # 1c01250c <n16_beq_test+0x1eac>
1c0124fc:	1575b8ca 	lu12i.w	$r10,-283194(0xbadc6)
1c012500:	02b2f14a 	addi.w	$r10,$r10,-836(0xcbc)
1c012504:	580021ac 	beq	$r13,$r12,32(0x20) # 1c012524 <n16_beq_test+0x1ec4>
1c012508:	50002400 	b	36(0x24) # 1c01252c <n16_beq_test+0x1ecc>
1c01250c:	14a81e8c 	lu12i.w	$r12,344308(0x540f4)
1c012510:	02b2218c 	addi.w	$r12,$r12,-888(0xc88)
1c012514:	15b37f2d 	lu12i.w	$r13,-156679(0xd9bf9)
1c012518:	029a81ad 	addi.w	$r13,$r13,1696(0x6a0)
1c01251c:	5bffe18d 	beq	$r12,$r13,-32(0x3ffe0) # 1c0124fc <n16_beq_test+0x1e9c>
1c012520:	50000c00 	b	12(0xc) # 1c01252c <n16_beq_test+0x1ecc>
1c012524:	15c150ab 	lu12i.w	$r11,-128379(0xe0a85)
1c012528:	02b8816b 	addi.w	$r11,$r11,-480(0xe20)
1c01252c:	1400001c 	lu12i.w	$r28,0
1c012530:	0280039c 	addi.w	$r28,$r28,0
1c012534:	1400001d 	lu12i.w	$r29,0
1c012538:	028003bd 	addi.w	$r29,$r29,0
1c01253c:	5c56c95c 	bne	$r10,$r28,22216(0x56c8) # 1c017c04 <inst_error>
1c012540:	5c56c57d 	bne	$r11,$r29,22212(0x56c4) # 1c017c04 <inst_error>
1c012544:	15bb0950 	lu12i.w	$r16,-141238(0xdd84a)
1c012548:	029d0210 	addi.w	$r16,$r16,1856(0x740)
1c01254c:	140afd31 	lu12i.w	$r17,22505(0x57e9)
1c012550:	02980231 	addi.w	$r17,$r17,1536(0x600)
1c012554:	1400000a 	lu12i.w	$r10,0
1c012558:	1400000b 	lu12i.w	$r11,0
1c01255c:	50001400 	b	20(0x14) # 1c012570 <n16_beq_test+0x1f10>
1c012560:	15bb094a 	lu12i.w	$r10,-141238(0xdd84a)
1c012564:	029d014a 	addi.w	$r10,$r10,1856(0x740)
1c012568:	580021ac 	beq	$r13,$r12,32(0x20) # 1c012588 <n16_beq_test+0x1f28>
1c01256c:	50002400 	b	36(0x24) # 1c012590 <n16_beq_test+0x1f30>
1c012570:	151166ec 	lu12i.w	$r12,-488649(0x88b37)
1c012574:	02aae18c 	addi.w	$r12,$r12,-1352(0xab8)
1c012578:	15b4d4cd 	lu12i.w	$r13,-153946(0xda6a6)
1c01257c:	028901ad 	addi.w	$r13,$r13,576(0x240)
1c012580:	5bffe18d 	beq	$r12,$r13,-32(0x3ffe0) # 1c012560 <n16_beq_test+0x1f00>
1c012584:	50000c00 	b	12(0xc) # 1c012590 <n16_beq_test+0x1f30>
1c012588:	140afd2b 	lu12i.w	$r11,22505(0x57e9)
1c01258c:	0298016b 	addi.w	$r11,$r11,1536(0x600)
1c012590:	1400001c 	lu12i.w	$r28,0
1c012594:	0280039c 	addi.w	$r28,$r28,0
1c012598:	1400001d 	lu12i.w	$r29,0
1c01259c:	028003bd 	addi.w	$r29,$r29,0
1c0125a0:	5c56655c 	bne	$r10,$r28,22116(0x5664) # 1c017c04 <inst_error>
1c0125a4:	5c56617d 	bne	$r11,$r29,22112(0x5660) # 1c017c04 <inst_error>
1c0125a8:	14a3c470 	lu12i.w	$r16,335395(0x51e23)
1c0125ac:	02a52210 	addi.w	$r16,$r16,-1720(0x948)
1c0125b0:	151d67b1 	lu12i.w	$r17,-464067(0x8eb3d)
1c0125b4:	02b16a31 	addi.w	$r17,$r17,-934(0xc5a)
1c0125b8:	1400000a 	lu12i.w	$r10,0
1c0125bc:	1400000b 	lu12i.w	$r11,0
1c0125c0:	50001400 	b	20(0x14) # 1c0125d4 <n16_beq_test+0x1f74>
1c0125c4:	14a3c46a 	lu12i.w	$r10,335395(0x51e23)
1c0125c8:	02a5214a 	addi.w	$r10,$r10,-1720(0x948)
1c0125cc:	580021ac 	beq	$r13,$r12,32(0x20) # 1c0125ec <n16_beq_test+0x1f8c>
1c0125d0:	50002400 	b	36(0x24) # 1c0125f4 <n16_beq_test+0x1f94>
1c0125d4:	14ffdbcc 	lu12i.w	$r12,523998(0x7fede)
1c0125d8:	02b7098c 	addi.w	$r12,$r12,-574(0xdc2)
1c0125dc:	1506610d 	lu12i.w	$r13,-511224(0x83308)
1c0125e0:	02bfe9ad 	addi.w	$r13,$r13,-6(0xffa)
1c0125e4:	5bffe18d 	beq	$r12,$r13,-32(0x3ffe0) # 1c0125c4 <n16_beq_test+0x1f64>
1c0125e8:	50000c00 	b	12(0xc) # 1c0125f4 <n16_beq_test+0x1f94>
1c0125ec:	151d67ab 	lu12i.w	$r11,-464067(0x8eb3d)
1c0125f0:	02b1696b 	addi.w	$r11,$r11,-934(0xc5a)
1c0125f4:	1400001c 	lu12i.w	$r28,0
1c0125f8:	0280039c 	addi.w	$r28,$r28,0
1c0125fc:	1400001d 	lu12i.w	$r29,0
1c012600:	028003bd 	addi.w	$r29,$r29,0
1c012604:	5c56015c 	bne	$r10,$r28,22016(0x5600) # 1c017c04 <inst_error>
1c012608:	5c55fd7d 	bne	$r11,$r29,22012(0x55fc) # 1c017c04 <inst_error>
1c01260c:	1495d010 	lu12i.w	$r16,306816(0x4ae80)
1c012610:	029bc210 	addi.w	$r16,$r16,1776(0x6f0)
1c012614:	14abacd1 	lu12i.w	$r17,351590(0x55d66)
1c012618:	02821231 	addi.w	$r17,$r17,132(0x84)
1c01261c:	1400000a 	lu12i.w	$r10,0
1c012620:	1400000b 	lu12i.w	$r11,0
1c012624:	50001400 	b	20(0x14) # 1c012638 <n16_beq_test+0x1fd8>
1c012628:	1495d00a 	lu12i.w	$r10,306816(0x4ae80)
1c01262c:	029bc14a 	addi.w	$r10,$r10,1776(0x6f0)
1c012630:	580021ac 	beq	$r13,$r12,32(0x20) # 1c012650 <n16_beq_test+0x1ff0>
1c012634:	50002400 	b	36(0x24) # 1c012658 <n16_beq_test+0x1ff8>
1c012638:	157036ac 	lu12i.w	$r12,-294475(0xb81b5)
1c01263c:	02af818c 	addi.w	$r12,$r12,-1056(0xbe0)
1c012640:	14ba02ad 	lu12i.w	$r13,380949(0x5d015)
1c012644:	029001ad 	addi.w	$r13,$r13,1024(0x400)
1c012648:	5bffe18d 	beq	$r12,$r13,-32(0x3ffe0) # 1c012628 <n16_beq_test+0x1fc8>
1c01264c:	50000c00 	b	12(0xc) # 1c012658 <n16_beq_test+0x1ff8>
1c012650:	14abaccb 	lu12i.w	$r11,351590(0x55d66)
1c012654:	0282116b 	addi.w	$r11,$r11,132(0x84)
1c012658:	1400001c 	lu12i.w	$r28,0
1c01265c:	0280039c 	addi.w	$r28,$r28,0
1c012660:	1400001d 	lu12i.w	$r29,0
1c012664:	028003bd 	addi.w	$r29,$r29,0
1c012668:	5c559d5c 	bne	$r10,$r28,21916(0x559c) # 1c017c04 <inst_error>
1c01266c:	5c55997d 	bne	$r11,$r29,21912(0x5598) # 1c017c04 <inst_error>
1c012670:	1429d150 	lu12i.w	$r16,85642(0x14e8a)
1c012674:	02b30210 	addi.w	$r16,$r16,-832(0xcc0)
1c012678:	151d4511 	lu12i.w	$r17,-464344(0x8ea28)
1c01267c:	029e0231 	addi.w	$r17,$r17,1920(0x780)
1c012680:	1400000a 	lu12i.w	$r10,0
1c012684:	1400000b 	lu12i.w	$r11,0
1c012688:	50001400 	b	20(0x14) # 1c01269c <n16_beq_test+0x203c>
1c01268c:	1429d14a 	lu12i.w	$r10,85642(0x14e8a)
1c012690:	02b3014a 	addi.w	$r10,$r10,-832(0xcc0)
1c012694:	580021ac 	beq	$r13,$r12,32(0x20) # 1c0126b4 <n16_beq_test+0x2054>
1c012698:	50002400 	b	36(0x24) # 1c0126bc <n16_beq_test+0x205c>
1c01269c:	150f812c 	lu12i.w	$r12,-492535(0x87c09)
1c0126a0:	02b6218c 	addi.w	$r12,$r12,-632(0xd88)
1c0126a4:	1529d52d 	lu12i.w	$r13,-438615(0x94ea9)
1c0126a8:	029b25ad 	addi.w	$r13,$r13,1737(0x6c9)
1c0126ac:	5bffe18d 	beq	$r12,$r13,-32(0x3ffe0) # 1c01268c <n16_beq_test+0x202c>
1c0126b0:	50000c00 	b	12(0xc) # 1c0126bc <n16_beq_test+0x205c>
1c0126b4:	151d450b 	lu12i.w	$r11,-464344(0x8ea28)
1c0126b8:	029e016b 	addi.w	$r11,$r11,1920(0x780)
1c0126bc:	1400001c 	lu12i.w	$r28,0
1c0126c0:	0280039c 	addi.w	$r28,$r28,0
1c0126c4:	1400001d 	lu12i.w	$r29,0
1c0126c8:	028003bd 	addi.w	$r29,$r29,0
1c0126cc:	5c55395c 	bne	$r10,$r28,21816(0x5538) # 1c017c04 <inst_error>
1c0126d0:	5c55357d 	bne	$r11,$r29,21812(0x5534) # 1c017c04 <inst_error>
1c0126d4:	159bbbd0 	lu12i.w	$r16,-205346(0xcddde)
1c0126d8:	02bcba10 	addi.w	$r16,$r16,-210(0xf2e)
1c0126dc:	1468d5f1 	lu12i.w	$r17,214703(0x346af)
1c0126e0:	02916a31 	addi.w	$r17,$r17,1114(0x45a)
1c0126e4:	1400000a 	lu12i.w	$r10,0
1c0126e8:	1400000b 	lu12i.w	$r11,0
1c0126ec:	50001400 	b	20(0x14) # 1c012700 <n16_beq_test+0x20a0>
1c0126f0:	159bbbca 	lu12i.w	$r10,-205346(0xcddde)
1c0126f4:	02bcb94a 	addi.w	$r10,$r10,-210(0xf2e)
1c0126f8:	580021ac 	beq	$r13,$r12,32(0x20) # 1c012718 <n16_beq_test+0x20b8>
1c0126fc:	50002400 	b	36(0x24) # 1c012720 <n16_beq_test+0x20c0>
1c012700:	14d0542c 	lu12i.w	$r12,426657(0x682a1)
1c012704:	02975d8c 	addi.w	$r12,$r12,1495(0x5d7)
1c012708:	1541f02d 	lu12i.w	$r13,-389247(0xa0f81)
1c01270c:	02ad21ad 	addi.w	$r13,$r13,-1208(0xb48)
1c012710:	5bffe18d 	beq	$r12,$r13,-32(0x3ffe0) # 1c0126f0 <n16_beq_test+0x2090>
1c012714:	50000c00 	b	12(0xc) # 1c012720 <n16_beq_test+0x20c0>
1c012718:	1468d5eb 	lu12i.w	$r11,214703(0x346af)
1c01271c:	0291696b 	addi.w	$r11,$r11,1114(0x45a)
1c012720:	1400001c 	lu12i.w	$r28,0
1c012724:	0280039c 	addi.w	$r28,$r28,0
1c012728:	1400001d 	lu12i.w	$r29,0
1c01272c:	028003bd 	addi.w	$r29,$r29,0
1c012730:	5c54d55c 	bne	$r10,$r28,21716(0x54d4) # 1c017c04 <inst_error>
1c012734:	5c54d17d 	bne	$r11,$r29,21712(0x54d0) # 1c017c04 <inst_error>
1c012738:	15191350 	lu12i.w	$r16,-472934(0x8c89a)
1c01273c:	02a1c210 	addi.w	$r16,$r16,-1936(0x870)
1c012740:	15e7a011 	lu12i.w	$r17,-49920(0xf3d00)
1c012744:	02904a31 	addi.w	$r17,$r17,1042(0x412)
1c012748:	1400000a 	lu12i.w	$r10,0
1c01274c:	1400000b 	lu12i.w	$r11,0
1c012750:	50001400 	b	20(0x14) # 1c012764 <n16_beq_test+0x2104>
1c012754:	1519134a 	lu12i.w	$r10,-472934(0x8c89a)
1c012758:	02a1c14a 	addi.w	$r10,$r10,-1936(0x870)
1c01275c:	580021ac 	beq	$r13,$r12,32(0x20) # 1c01277c <n16_beq_test+0x211c>
1c012760:	50002400 	b	36(0x24) # 1c012784 <n16_beq_test+0x2124>
1c012764:	141de06c 	lu12i.w	$r12,61187(0xef03)
1c012768:	02ab018c 	addi.w	$r12,$r12,-1344(0xac0)
1c01276c:	1500900d 	lu12i.w	$r13,-523136(0x80480)
1c012770:	0294a1ad 	addi.w	$r13,$r13,1320(0x528)
1c012774:	5bffe18d 	beq	$r12,$r13,-32(0x3ffe0) # 1c012754 <n16_beq_test+0x20f4>
1c012778:	50000c00 	b	12(0xc) # 1c012784 <n16_beq_test+0x2124>
1c01277c:	15e7a00b 	lu12i.w	$r11,-49920(0xf3d00)
1c012780:	0290496b 	addi.w	$r11,$r11,1042(0x412)
1c012784:	1400001c 	lu12i.w	$r28,0
1c012788:	0280039c 	addi.w	$r28,$r28,0
1c01278c:	1400001d 	lu12i.w	$r29,0
1c012790:	028003bd 	addi.w	$r29,$r29,0
1c012794:	5c54715c 	bne	$r10,$r28,21616(0x5470) # 1c017c04 <inst_error>
1c012798:	5c546d7d 	bne	$r11,$r29,21612(0x546c) # 1c017c04 <inst_error>
1c01279c:	1573ef30 	lu12i.w	$r16,-286855(0xb9f79)
1c0127a0:	029d2210 	addi.w	$r16,$r16,1864(0x748)
1c0127a4:	1565b811 	lu12i.w	$r17,-315968(0xb2dc0)
1c0127a8:	02ac6231 	addi.w	$r17,$r17,-1256(0xb18)
1c0127ac:	1400000a 	lu12i.w	$r10,0
1c0127b0:	1400000b 	lu12i.w	$r11,0
1c0127b4:	50001400 	b	20(0x14) # 1c0127c8 <n16_beq_test+0x2168>
1c0127b8:	1573ef2a 	lu12i.w	$r10,-286855(0xb9f79)
1c0127bc:	029d214a 	addi.w	$r10,$r10,1864(0x748)
1c0127c0:	580021ac 	beq	$r13,$r12,32(0x20) # 1c0127e0 <n16_beq_test+0x2180>
1c0127c4:	50002400 	b	36(0x24) # 1c0127e8 <n16_beq_test+0x2188>
1c0127c8:	14dc590c 	lu12i.w	$r12,451272(0x6e2c8)
1c0127cc:	02ae018c 	addi.w	$r12,$r12,-1152(0xb80)
1c0127d0:	144b64cd 	lu12i.w	$r13,154406(0x25b26)
1c0127d4:	02b301ad 	addi.w	$r13,$r13,-832(0xcc0)
1c0127d8:	5bffe18d 	beq	$r12,$r13,-32(0x3ffe0) # 1c0127b8 <n16_beq_test+0x2158>
1c0127dc:	50000c00 	b	12(0xc) # 1c0127e8 <n16_beq_test+0x2188>
1c0127e0:	1565b80b 	lu12i.w	$r11,-315968(0xb2dc0)
1c0127e4:	02ac616b 	addi.w	$r11,$r11,-1256(0xb18)
1c0127e8:	1400001c 	lu12i.w	$r28,0
1c0127ec:	0280039c 	addi.w	$r28,$r28,0
1c0127f0:	1400001d 	lu12i.w	$r29,0
1c0127f4:	028003bd 	addi.w	$r29,$r29,0
1c0127f8:	5c540d5c 	bne	$r10,$r28,21516(0x540c) # 1c017c04 <inst_error>
1c0127fc:	5c54097d 	bne	$r11,$r29,21512(0x5408) # 1c017c04 <inst_error>
1c012800:	1566faf0 	lu12i.w	$r16,-313385(0xb37d7)
1c012804:	02b03210 	addi.w	$r16,$r16,-1012(0xc0c)
1c012808:	15615f51 	lu12i.w	$r17,-324870(0xb0afa)
1c01280c:	02ac4231 	addi.w	$r17,$r17,-1264(0xb10)
1c012810:	1400000a 	lu12i.w	$r10,0
1c012814:	1400000b 	lu12i.w	$r11,0
1c012818:	50001400 	b	20(0x14) # 1c01282c <n16_beq_test+0x21cc>
1c01281c:	1566faea 	lu12i.w	$r10,-313385(0xb37d7)
1c012820:	02b0314a 	addi.w	$r10,$r10,-1012(0xc0c)
1c012824:	580021ac 	beq	$r13,$r12,32(0x20) # 1c012844 <n16_beq_test+0x21e4>
1c012828:	50002400 	b	36(0x24) # 1c01284c <n16_beq_test+0x21ec>
1c01282c:	144cf54c 	lu12i.w	$r12,157610(0x267aa)
1c012830:	02a2818c 	addi.w	$r12,$r12,-1888(0x8a0)
1c012834:	1453c36d 	lu12i.w	$r13,171547(0x29e1b)
1c012838:	0292c9ad 	addi.w	$r13,$r13,1202(0x4b2)
1c01283c:	5bffe18d 	beq	$r12,$r13,-32(0x3ffe0) # 1c01281c <n16_beq_test+0x21bc>
1c012840:	50000c00 	b	12(0xc) # 1c01284c <n16_beq_test+0x21ec>
1c012844:	15615f4b 	lu12i.w	$r11,-324870(0xb0afa)
1c012848:	02ac416b 	addi.w	$r11,$r11,-1264(0xb10)
1c01284c:	1400001c 	lu12i.w	$r28,0
1c012850:	0280039c 	addi.w	$r28,$r28,0
1c012854:	1400001d 	lu12i.w	$r29,0
1c012858:	028003bd 	addi.w	$r29,$r29,0
1c01285c:	5c53a95c 	bne	$r10,$r28,21416(0x53a8) # 1c017c04 <inst_error>
1c012860:	5c53a57d 	bne	$r11,$r29,21412(0x53a4) # 1c017c04 <inst_error>
1c012864:	1550e2d0 	lu12i.w	$r16,-358634(0xa8716)
1c012868:	02a8c210 	addi.w	$r16,$r16,-1488(0xa30)
1c01286c:	15fadf91 	lu12i.w	$r17,-10500(0xfd6fc)
1c012870:	02afd231 	addi.w	$r17,$r17,-1036(0xbf4)
1c012874:	1400000a 	lu12i.w	$r10,0
1c012878:	1400000b 	lu12i.w	$r11,0
1c01287c:	50001400 	b	20(0x14) # 1c012890 <n16_beq_test+0x2230>
1c012880:	1550e2ca 	lu12i.w	$r10,-358634(0xa8716)
1c012884:	02a8c14a 	addi.w	$r10,$r10,-1488(0xa30)
1c012888:	580021ac 	beq	$r13,$r12,32(0x20) # 1c0128a8 <n16_beq_test+0x2248>
1c01288c:	50002400 	b	36(0x24) # 1c0128b0 <n16_beq_test+0x2250>
1c012890:	15a0304c 	lu12i.w	$r12,-196222(0xd0182)
1c012894:	0298458c 	addi.w	$r12,$r12,1553(0x611)
1c012898:	14c3226d 	lu12i.w	$r13,399635(0x61913)
1c01289c:	0293f5ad 	addi.w	$r13,$r13,1277(0x4fd)
1c0128a0:	5bffe18d 	beq	$r12,$r13,-32(0x3ffe0) # 1c012880 <n16_beq_test+0x2220>
1c0128a4:	50000c00 	b	12(0xc) # 1c0128b0 <n16_beq_test+0x2250>
1c0128a8:	15fadf8b 	lu12i.w	$r11,-10500(0xfd6fc)
1c0128ac:	02afd16b 	addi.w	$r11,$r11,-1036(0xbf4)
1c0128b0:	1400001c 	lu12i.w	$r28,0
1c0128b4:	0280039c 	addi.w	$r28,$r28,0
1c0128b8:	1400001d 	lu12i.w	$r29,0
1c0128bc:	028003bd 	addi.w	$r29,$r29,0
1c0128c0:	5c53455c 	bne	$r10,$r28,21316(0x5344) # 1c017c04 <inst_error>
1c0128c4:	5c53417d 	bne	$r11,$r29,21312(0x5340) # 1c017c04 <inst_error>
1c0128c8:	14747010 	lu12i.w	$r16,238464(0x3a380)
1c0128cc:	02ac0210 	addi.w	$r16,$r16,-1280(0xb00)
1c0128d0:	151e6751 	lu12i.w	$r17,-462022(0x8f33a)
1c0128d4:	02b54231 	addi.w	$r17,$r17,-688(0xd50)
1c0128d8:	1400000a 	lu12i.w	$r10,0
1c0128dc:	1400000b 	lu12i.w	$r11,0
1c0128e0:	50001400 	b	20(0x14) # 1c0128f4 <n16_beq_test+0x2294>
1c0128e4:	1474700a 	lu12i.w	$r10,238464(0x3a380)
1c0128e8:	02ac014a 	addi.w	$r10,$r10,-1280(0xb00)
1c0128ec:	580021ac 	beq	$r13,$r12,32(0x20) # 1c01290c <n16_beq_test+0x22ac>
1c0128f0:	50002400 	b	36(0x24) # 1c012914 <n16_beq_test+0x22b4>
1c0128f4:	14d57f8c 	lu12i.w	$r12,437244(0x6abfc)
1c0128f8:	02b2018c 	addi.w	$r12,$r12,-896(0xc80)
1c0128fc:	157f7fed 	lu12i.w	$r13,-263169(0xbfbff)
1c012900:	028781ad 	addi.w	$r13,$r13,480(0x1e0)
1c012904:	5bffe18d 	beq	$r12,$r13,-32(0x3ffe0) # 1c0128e4 <n16_beq_test+0x2284>
1c012908:	50000c00 	b	12(0xc) # 1c012914 <n16_beq_test+0x22b4>
1c01290c:	151e674b 	lu12i.w	$r11,-462022(0x8f33a)
1c012910:	02b5416b 	addi.w	$r11,$r11,-688(0xd50)
1c012914:	1400001c 	lu12i.w	$r28,0
1c012918:	0280039c 	addi.w	$r28,$r28,0
1c01291c:	1400001d 	lu12i.w	$r29,0
1c012920:	028003bd 	addi.w	$r29,$r29,0
1c012924:	5c52e15c 	bne	$r10,$r28,21216(0x52e0) # 1c017c04 <inst_error>
1c012928:	5c52dd7d 	bne	$r11,$r29,21212(0x52dc) # 1c017c04 <inst_error>
1c01292c:	14bea770 	lu12i.w	$r16,390459(0x5f53b)
1c012930:	02afda10 	addi.w	$r16,$r16,-1034(0xbf6)
1c012934:	14e778b1 	lu12i.w	$r17,474053(0x73bc5)
1c012938:	02a1fa31 	addi.w	$r17,$r17,-1922(0x87e)
1c01293c:	1400000a 	lu12i.w	$r10,0
1c012940:	1400000b 	lu12i.w	$r11,0
1c012944:	50001400 	b	20(0x14) # 1c012958 <n16_beq_test+0x22f8>
1c012948:	14bea76a 	lu12i.w	$r10,390459(0x5f53b)
1c01294c:	02afd94a 	addi.w	$r10,$r10,-1034(0xbf6)
1c012950:	580021ac 	beq	$r13,$r12,32(0x20) # 1c012970 <n16_beq_test+0x2310>
1c012954:	50002400 	b	36(0x24) # 1c012978 <n16_beq_test+0x2318>
1c012958:	15c9c6cc 	lu12i.w	$r12,-111050(0xe4e36)
1c01295c:	0290e98c 	addi.w	$r12,$r12,1082(0x43a)
1c012960:	140ac4ad 	lu12i.w	$r13,22053(0x5625)
1c012964:	02a7c1ad 	addi.w	$r13,$r13,-1552(0x9f0)
1c012968:	5bffe18d 	beq	$r12,$r13,-32(0x3ffe0) # 1c012948 <n16_beq_test+0x22e8>
1c01296c:	50000c00 	b	12(0xc) # 1c012978 <n16_beq_test+0x2318>
1c012970:	14e778ab 	lu12i.w	$r11,474053(0x73bc5)
1c012974:	02a1f96b 	addi.w	$r11,$r11,-1922(0x87e)
1c012978:	1400001c 	lu12i.w	$r28,0
1c01297c:	0280039c 	addi.w	$r28,$r28,0
1c012980:	1400001d 	lu12i.w	$r29,0
1c012984:	028003bd 	addi.w	$r29,$r29,0
1c012988:	5c527d5c 	bne	$r10,$r28,21116(0x527c) # 1c017c04 <inst_error>
1c01298c:	5c52797d 	bne	$r11,$r29,21112(0x5278) # 1c017c04 <inst_error>
1c012990:	157459b0 	lu12i.w	$r16,-286003(0xba2cd)
1c012994:	02968210 	addi.w	$r16,$r16,1440(0x5a0)
1c012998:	144db291 	lu12i.w	$r17,159124(0x26d94)
1c01299c:	029d1631 	addi.w	$r17,$r17,1861(0x745)
1c0129a0:	1400000a 	lu12i.w	$r10,0
1c0129a4:	1400000b 	lu12i.w	$r11,0
1c0129a8:	50001400 	b	20(0x14) # 1c0129bc <n16_beq_test+0x235c>
1c0129ac:	157459aa 	lu12i.w	$r10,-286003(0xba2cd)
1c0129b0:	0296814a 	addi.w	$r10,$r10,1440(0x5a0)
1c0129b4:	580021ac 	beq	$r13,$r12,32(0x20) # 1c0129d4 <n16_beq_test+0x2374>
1c0129b8:	50002400 	b	36(0x24) # 1c0129dc <n16_beq_test+0x237c>
1c0129bc:	15e511ec 	lu12i.w	$r12,-55153(0xf288f)
1c0129c0:	02ad098c 	addi.w	$r12,$r12,-1214(0xb42)
1c0129c4:	1539954d 	lu12i.w	$r13,-406358(0x9ccaa)
1c0129c8:	02b979ad 	addi.w	$r13,$r13,-418(0xe5e)
1c0129cc:	5bffe18d 	beq	$r12,$r13,-32(0x3ffe0) # 1c0129ac <n16_beq_test+0x234c>
1c0129d0:	50000c00 	b	12(0xc) # 1c0129dc <n16_beq_test+0x237c>
1c0129d4:	144db28b 	lu12i.w	$r11,159124(0x26d94)
1c0129d8:	029d156b 	addi.w	$r11,$r11,1861(0x745)
1c0129dc:	1400001c 	lu12i.w	$r28,0
1c0129e0:	0280039c 	addi.w	$r28,$r28,0
1c0129e4:	1400001d 	lu12i.w	$r29,0
1c0129e8:	028003bd 	addi.w	$r29,$r29,0
1c0129ec:	5c52195c 	bne	$r10,$r28,21016(0x5218) # 1c017c04 <inst_error>
1c0129f0:	5c52157d 	bne	$r11,$r29,21012(0x5214) # 1c017c04 <inst_error>
1c0129f4:	153bc850 	lu12i.w	$r16,-401854(0x9de42)
1c0129f8:	02b84210 	addi.w	$r16,$r16,-496(0xe10)
1c0129fc:	141f2e91 	lu12i.w	$r17,63860(0xf974)
1c012a00:	02858231 	addi.w	$r17,$r17,352(0x160)
1c012a04:	1400000a 	lu12i.w	$r10,0
1c012a08:	1400000b 	lu12i.w	$r11,0
1c012a0c:	50001400 	b	20(0x14) # 1c012a20 <n16_beq_test+0x23c0>
1c012a10:	153bc84a 	lu12i.w	$r10,-401854(0x9de42)
1c012a14:	02b8414a 	addi.w	$r10,$r10,-496(0xe10)
1c012a18:	580021ac 	beq	$r13,$r12,32(0x20) # 1c012a38 <n16_beq_test+0x23d8>
1c012a1c:	50002400 	b	36(0x24) # 1c012a40 <n16_beq_test+0x23e0>
1c012a20:	153f754c 	lu12i.w	$r12,-394326(0x9fbaa)
1c012a24:	0290898c 	addi.w	$r12,$r12,1058(0x422)
1c012a28:	1515d14d 	lu12i.w	$r13,-479606(0x8ae8a)
1c012a2c:	029c01ad 	addi.w	$r13,$r13,1792(0x700)
1c012a30:	5bffe18d 	beq	$r12,$r13,-32(0x3ffe0) # 1c012a10 <n16_beq_test+0x23b0>
1c012a34:	50000c00 	b	12(0xc) # 1c012a40 <n16_beq_test+0x23e0>
1c012a38:	141f2e8b 	lu12i.w	$r11,63860(0xf974)
1c012a3c:	0285816b 	addi.w	$r11,$r11,352(0x160)
1c012a40:	1400001c 	lu12i.w	$r28,0
1c012a44:	0280039c 	addi.w	$r28,$r28,0
1c012a48:	1400001d 	lu12i.w	$r29,0
1c012a4c:	028003bd 	addi.w	$r29,$r29,0
1c012a50:	5c51b55c 	bne	$r10,$r28,20916(0x51b4) # 1c017c04 <inst_error>
1c012a54:	5c51b17d 	bne	$r11,$r29,20912(0x51b0) # 1c017c04 <inst_error>
1c012a58:	14a6f9f0 	lu12i.w	$r16,341967(0x537cf)
1c012a5c:	02b79a10 	addi.w	$r16,$r16,-538(0xde6)
1c012a60:	143df491 	lu12i.w	$r17,126884(0x1efa4)
1c012a64:	02b8e231 	addi.w	$r17,$r17,-456(0xe38)
1c012a68:	1400000a 	lu12i.w	$r10,0
1c012a6c:	1400000b 	lu12i.w	$r11,0
1c012a70:	50001400 	b	20(0x14) # 1c012a84 <n16_beq_test+0x2424>
1c012a74:	14a6f9ea 	lu12i.w	$r10,341967(0x537cf)
1c012a78:	02b7994a 	addi.w	$r10,$r10,-538(0xde6)
1c012a7c:	580021ac 	beq	$r13,$r12,32(0x20) # 1c012a9c <n16_beq_test+0x243c>
1c012a80:	50002400 	b	36(0x24) # 1c012aa4 <n16_beq_test+0x2444>
1c012a84:	15205dcc 	lu12i.w	$r12,-458002(0x902ee)
1c012a88:	0287018c 	addi.w	$r12,$r12,448(0x1c0)
1c012a8c:	14b7ffed 	lu12i.w	$r13,376831(0x5bfff)
1c012a90:	02bee5ad 	addi.w	$r13,$r13,-71(0xfb9)
1c012a94:	5bffe18d 	beq	$r12,$r13,-32(0x3ffe0) # 1c012a74 <n16_beq_test+0x2414>
1c012a98:	50000c00 	b	12(0xc) # 1c012aa4 <n16_beq_test+0x2444>
1c012a9c:	143df48b 	lu12i.w	$r11,126884(0x1efa4)
1c012aa0:	02b8e16b 	addi.w	$r11,$r11,-456(0xe38)
1c012aa4:	1400001c 	lu12i.w	$r28,0
1c012aa8:	0280039c 	addi.w	$r28,$r28,0
1c012aac:	1400001d 	lu12i.w	$r29,0
1c012ab0:	028003bd 	addi.w	$r29,$r29,0
1c012ab4:	5c51515c 	bne	$r10,$r28,20816(0x5150) # 1c017c04 <inst_error>
1c012ab8:	5c514d7d 	bne	$r11,$r29,20812(0x514c) # 1c017c04 <inst_error>
1c012abc:	15649490 	lu12i.w	$r16,-318300(0xb24a4)
1c012ac0:	02ae7210 	addi.w	$r16,$r16,-1124(0xb9c)
1c012ac4:	15b06c51 	lu12i.w	$r17,-162974(0xd8362)
1c012ac8:	029a9e31 	addi.w	$r17,$r17,1703(0x6a7)
1c012acc:	1400000a 	lu12i.w	$r10,0
1c012ad0:	1400000b 	lu12i.w	$r11,0
1c012ad4:	50001400 	b	20(0x14) # 1c012ae8 <n16_beq_test+0x2488>
1c012ad8:	1564948a 	lu12i.w	$r10,-318300(0xb24a4)
1c012adc:	02ae714a 	addi.w	$r10,$r10,-1124(0xb9c)
1c012ae0:	580021ac 	beq	$r13,$r12,32(0x20) # 1c012b00 <n16_beq_test+0x24a0>
1c012ae4:	50002400 	b	36(0x24) # 1c012b08 <n16_beq_test+0x24a8>
1c012ae8:	15e56a2c 	lu12i.w	$r12,-54447(0xf2b51)
1c012aec:	02b6018c 	addi.w	$r12,$r12,-640(0xd80)
1c012af0:	15dd1bed 	lu12i.w	$r13,-71457(0xee8df)
1c012af4:	028b01ad 	addi.w	$r13,$r13,704(0x2c0)
1c012af8:	5bffe18d 	beq	$r12,$r13,-32(0x3ffe0) # 1c012ad8 <n16_beq_test+0x2478>
1c012afc:	50000c00 	b	12(0xc) # 1c012b08 <n16_beq_test+0x24a8>
1c012b00:	15b06c4b 	lu12i.w	$r11,-162974(0xd8362)
1c012b04:	029a9d6b 	addi.w	$r11,$r11,1703(0x6a7)
1c012b08:	1400001c 	lu12i.w	$r28,0
1c012b0c:	0280039c 	addi.w	$r28,$r28,0
1c012b10:	1400001d 	lu12i.w	$r29,0
1c012b14:	028003bd 	addi.w	$r29,$r29,0
1c012b18:	5c50ed5c 	bne	$r10,$r28,20716(0x50ec) # 1c017c04 <inst_error>
1c012b1c:	5c50e97d 	bne	$r11,$r29,20712(0x50e8) # 1c017c04 <inst_error>
1c012b20:	15c8b3f0 	lu12i.w	$r16,-113249(0xe459f)
1c012b24:	02a01210 	addi.w	$r16,$r16,-2044(0x804)
1c012b28:	15b95931 	lu12i.w	$r17,-144695(0xdcac9)
1c012b2c:	02aeaa31 	addi.w	$r17,$r17,-1110(0xbaa)
1c012b30:	1400000a 	lu12i.w	$r10,0
1c012b34:	1400000b 	lu12i.w	$r11,0
1c012b38:	50001400 	b	20(0x14) # 1c012b4c <n16_beq_test+0x24ec>
1c012b3c:	15c8b3ea 	lu12i.w	$r10,-113249(0xe459f)
1c012b40:	02a0114a 	addi.w	$r10,$r10,-2044(0x804)
1c012b44:	580021ac 	beq	$r13,$r12,32(0x20) # 1c012b64 <n16_beq_test+0x2504>
1c012b48:	50002400 	b	36(0x24) # 1c012b6c <n16_beq_test+0x250c>
1c012b4c:	15b042ac 	lu12i.w	$r12,-163307(0xd8215)
1c012b50:	029f418c 	addi.w	$r12,$r12,2000(0x7d0)
1c012b54:	15f6bccd 	lu12i.w	$r13,-18970(0xfb5e6)
1c012b58:	02b7e5ad 	addi.w	$r13,$r13,-519(0xdf9)
1c012b5c:	5bffe18d 	beq	$r12,$r13,-32(0x3ffe0) # 1c012b3c <n16_beq_test+0x24dc>
1c012b60:	50000c00 	b	12(0xc) # 1c012b6c <n16_beq_test+0x250c>
1c012b64:	15b9592b 	lu12i.w	$r11,-144695(0xdcac9)
1c012b68:	02aea96b 	addi.w	$r11,$r11,-1110(0xbaa)
1c012b6c:	1400001c 	lu12i.w	$r28,0
1c012b70:	0280039c 	addi.w	$r28,$r28,0
1c012b74:	1400001d 	lu12i.w	$r29,0
1c012b78:	028003bd 	addi.w	$r29,$r29,0
1c012b7c:	5c50895c 	bne	$r10,$r28,20616(0x5088) # 1c017c04 <inst_error>
1c012b80:	5c50857d 	bne	$r11,$r29,20612(0x5084) # 1c017c04 <inst_error>
1c012b84:	14cc0b70 	lu12i.w	$r16,417883(0x6605b)
1c012b88:	02b4e210 	addi.w	$r16,$r16,-712(0xd38)
1c012b8c:	158be311 	lu12i.w	$r17,-237800(0xc5f18)
1c012b90:	02800231 	addi.w	$r17,$r17,0
1c012b94:	1400000a 	lu12i.w	$r10,0
1c012b98:	1400000b 	lu12i.w	$r11,0
1c012b9c:	50001400 	b	20(0x14) # 1c012bb0 <n16_beq_test+0x2550>
1c012ba0:	14cc0b6a 	lu12i.w	$r10,417883(0x6605b)
1c012ba4:	02b4e14a 	addi.w	$r10,$r10,-712(0xd38)
1c012ba8:	580021ac 	beq	$r13,$r12,32(0x20) # 1c012bc8 <n16_beq_test+0x2568>
1c012bac:	50002400 	b	36(0x24) # 1c012bd0 <n16_beq_test+0x2570>
1c012bb0:	1549552c 	lu12i.w	$r12,-374103(0xa4aa9)
1c012bb4:	02a3418c 	addi.w	$r12,$r12,-1840(0x8d0)
1c012bb8:	150252cd 	lu12i.w	$r13,-519530(0x81296)
1c012bbc:	02b351ad 	addi.w	$r13,$r13,-812(0xcd4)
1c012bc0:	5bffe18d 	beq	$r12,$r13,-32(0x3ffe0) # 1c012ba0 <n16_beq_test+0x2540>
1c012bc4:	50000c00 	b	12(0xc) # 1c012bd0 <n16_beq_test+0x2570>
1c012bc8:	158be30b 	lu12i.w	$r11,-237800(0xc5f18)
1c012bcc:	0280016b 	addi.w	$r11,$r11,0
1c012bd0:	1400001c 	lu12i.w	$r28,0
1c012bd4:	0280039c 	addi.w	$r28,$r28,0
1c012bd8:	1400001d 	lu12i.w	$r29,0
1c012bdc:	028003bd 	addi.w	$r29,$r29,0
1c012be0:	5c50255c 	bne	$r10,$r28,20516(0x5024) # 1c017c04 <inst_error>
1c012be4:	5c50217d 	bne	$r11,$r29,20512(0x5020) # 1c017c04 <inst_error>
1c012be8:	15a20ff0 	lu12i.w	$r16,-192385(0xd107f)
1c012bec:	02a8da10 	addi.w	$r16,$r16,-1482(0xa36)
1c012bf0:	14d50431 	lu12i.w	$r17,436257(0x6a821)
1c012bf4:	02878231 	addi.w	$r17,$r17,480(0x1e0)
1c012bf8:	1400000a 	lu12i.w	$r10,0
1c012bfc:	1400000b 	lu12i.w	$r11,0
1c012c00:	50001400 	b	20(0x14) # 1c012c14 <n16_beq_test+0x25b4>
1c012c04:	15a20fea 	lu12i.w	$r10,-192385(0xd107f)
1c012c08:	02a8d94a 	addi.w	$r10,$r10,-1482(0xa36)
1c012c0c:	580021ac 	beq	$r13,$r12,32(0x20) # 1c012c2c <n16_beq_test+0x25cc>
1c012c10:	50002400 	b	36(0x24) # 1c012c34 <n16_beq_test+0x25d4>
1c012c14:	15d42aec 	lu12i.w	$r12,-89769(0xea157)
1c012c18:	02bda18c 	addi.w	$r12,$r12,-152(0xf68)
1c012c1c:	15bcf06d 	lu12i.w	$r13,-137341(0xde783)
1c012c20:	02afa1ad 	addi.w	$r13,$r13,-1048(0xbe8)
1c012c24:	5bffe18d 	beq	$r12,$r13,-32(0x3ffe0) # 1c012c04 <n16_beq_test+0x25a4>
1c012c28:	50000c00 	b	12(0xc) # 1c012c34 <n16_beq_test+0x25d4>
1c012c2c:	14d5042b 	lu12i.w	$r11,436257(0x6a821)
1c012c30:	0287816b 	addi.w	$r11,$r11,480(0x1e0)
1c012c34:	1400001c 	lu12i.w	$r28,0
1c012c38:	0280039c 	addi.w	$r28,$r28,0
1c012c3c:	1400001d 	lu12i.w	$r29,0
1c012c40:	028003bd 	addi.w	$r29,$r29,0
1c012c44:	5c4fc15c 	bne	$r10,$r28,20416(0x4fc0) # 1c017c04 <inst_error>
1c012c48:	5c4fbd7d 	bne	$r11,$r29,20412(0x4fbc) # 1c017c04 <inst_error>
1c012c4c:	15fe2c50 	lu12i.w	$r16,-3742(0xff162)
1c012c50:	02aa1210 	addi.w	$r16,$r16,-1404(0xa84)
1c012c54:	14ff4931 	lu12i.w	$r17,522825(0x7fa49)
1c012c58:	028b5a31 	addi.w	$r17,$r17,726(0x2d6)
1c012c5c:	1400000a 	lu12i.w	$r10,0
1c012c60:	1400000b 	lu12i.w	$r11,0
1c012c64:	50001400 	b	20(0x14) # 1c012c78 <n16_beq_test+0x2618>
1c012c68:	15fe2c4a 	lu12i.w	$r10,-3742(0xff162)
1c012c6c:	02aa114a 	addi.w	$r10,$r10,-1404(0xa84)
1c012c70:	580021ac 	beq	$r13,$r12,32(0x20) # 1c012c90 <n16_beq_test+0x2630>
1c012c74:	50002400 	b	36(0x24) # 1c012c98 <n16_beq_test+0x2638>
1c012c78:	1432c08c 	lu12i.w	$r12,103940(0x19604)
1c012c7c:	02b2798c 	addi.w	$r12,$r12,-866(0xc9e)
1c012c80:	1563a9ed 	lu12i.w	$r13,-320177(0xb1d4f)
1c012c84:	02a289ad 	addi.w	$r13,$r13,-1886(0x8a2)
1c012c88:	5bffe18d 	beq	$r12,$r13,-32(0x3ffe0) # 1c012c68 <n16_beq_test+0x2608>
1c012c8c:	50000c00 	b	12(0xc) # 1c012c98 <n16_beq_test+0x2638>
1c012c90:	14ff492b 	lu12i.w	$r11,522825(0x7fa49)
1c012c94:	028b596b 	addi.w	$r11,$r11,726(0x2d6)
1c012c98:	1400001c 	lu12i.w	$r28,0
1c012c9c:	0280039c 	addi.w	$r28,$r28,0
1c012ca0:	1400001d 	lu12i.w	$r29,0
1c012ca4:	028003bd 	addi.w	$r29,$r29,0
1c012ca8:	5c4f5d5c 	bne	$r10,$r28,20316(0x4f5c) # 1c017c04 <inst_error>
1c012cac:	5c4f597d 	bne	$r11,$r29,20312(0x4f58) # 1c017c04 <inst_error>
1c012cb0:	14155490 	lu12i.w	$r16,43684(0xaaa4)
1c012cb4:	02874210 	addi.w	$r16,$r16,464(0x1d0)
1c012cb8:	15f878f1 	lu12i.w	$r17,-15417(0xfc3c7)
1c012cbc:	02a82a31 	addi.w	$r17,$r17,-1526(0xa0a)
1c012cc0:	1400000a 	lu12i.w	$r10,0
1c012cc4:	1400000b 	lu12i.w	$r11,0
1c012cc8:	50001400 	b	20(0x14) # 1c012cdc <n16_beq_test+0x267c>
1c012ccc:	1415548a 	lu12i.w	$r10,43684(0xaaa4)
1c012cd0:	0287414a 	addi.w	$r10,$r10,464(0x1d0)
1c012cd4:	580021ac 	beq	$r13,$r12,32(0x20) # 1c012cf4 <n16_beq_test+0x2694>
1c012cd8:	50002400 	b	36(0x24) # 1c012cfc <n16_beq_test+0x269c>
1c012cdc:	140aa82c 	lu12i.w	$r12,21825(0x5541)
1c012ce0:	02a8c18c 	addi.w	$r12,$r12,-1488(0xa30)
1c012ce4:	1490d2cd 	lu12i.w	$r13,296598(0x48696)
1c012ce8:	028de9ad 	addi.w	$r13,$r13,890(0x37a)
1c012cec:	5bffe18d 	beq	$r12,$r13,-32(0x3ffe0) # 1c012ccc <n16_beq_test+0x266c>
1c012cf0:	50000c00 	b	12(0xc) # 1c012cfc <n16_beq_test+0x269c>
1c012cf4:	15f878eb 	lu12i.w	$r11,-15417(0xfc3c7)
1c012cf8:	02a8296b 	addi.w	$r11,$r11,-1526(0xa0a)
1c012cfc:	1400001c 	lu12i.w	$r28,0
1c012d00:	0280039c 	addi.w	$r28,$r28,0
1c012d04:	1400001d 	lu12i.w	$r29,0
1c012d08:	028003bd 	addi.w	$r29,$r29,0
1c012d0c:	5c4ef95c 	bne	$r10,$r28,20216(0x4ef8) # 1c017c04 <inst_error>
1c012d10:	5c4ef57d 	bne	$r11,$r29,20212(0x4ef4) # 1c017c04 <inst_error>
1c012d14:	156f66f0 	lu12i.w	$r16,-296137(0xb7b37)
1c012d18:	029d0210 	addi.w	$r16,$r16,1856(0x740)
1c012d1c:	15bb0051 	lu12i.w	$r17,-141310(0xdd802)
1c012d20:	02bb0231 	addi.w	$r17,$r17,-320(0xec0)
1c012d24:	1400000a 	lu12i.w	$r10,0
1c012d28:	1400000b 	lu12i.w	$r11,0
1c012d2c:	50001400 	b	20(0x14) # 1c012d40 <n16_beq_test+0x26e0>
1c012d30:	156f66ea 	lu12i.w	$r10,-296137(0xb7b37)
1c012d34:	029d014a 	addi.w	$r10,$r10,1856(0x740)
1c012d38:	580021ac 	beq	$r13,$r12,32(0x20) # 1c012d58 <n16_beq_test+0x26f8>
1c012d3c:	50002400 	b	36(0x24) # 1c012d60 <n16_beq_test+0x2700>
1c012d40:	15ddb34c 	lu12i.w	$r12,-70246(0xeed9a)
1c012d44:	0284f18c 	addi.w	$r12,$r12,316(0x13c)
1c012d48:	149b324d 	lu12i.w	$r13,317842(0x4d992)
1c012d4c:	02bd21ad 	addi.w	$r13,$r13,-184(0xf48)
1c012d50:	5bffe18d 	beq	$r12,$r13,-32(0x3ffe0) # 1c012d30 <n16_beq_test+0x26d0>
1c012d54:	50000c00 	b	12(0xc) # 1c012d60 <n16_beq_test+0x2700>
1c012d58:	15bb004b 	lu12i.w	$r11,-141310(0xdd802)
1c012d5c:	02bb016b 	addi.w	$r11,$r11,-320(0xec0)
1c012d60:	1400001c 	lu12i.w	$r28,0
1c012d64:	0280039c 	addi.w	$r28,$r28,0
1c012d68:	1400001d 	lu12i.w	$r29,0
1c012d6c:	028003bd 	addi.w	$r29,$r29,0
1c012d70:	5c4e955c 	bne	$r10,$r28,20116(0x4e94) # 1c017c04 <inst_error>
1c012d74:	5c4e917d 	bne	$r11,$r29,20112(0x4e90) # 1c017c04 <inst_error>
1c012d78:	148061d0 	lu12i.w	$r16,262926(0x4030e)
1c012d7c:	02abba10 	addi.w	$r16,$r16,-1298(0xaee)
1c012d80:	14913f71 	lu12i.w	$r17,297467(0x489fb)
1c012d84:	02b28231 	addi.w	$r17,$r17,-864(0xca0)
1c012d88:	1400000a 	lu12i.w	$r10,0
1c012d8c:	1400000b 	lu12i.w	$r11,0
1c012d90:	50001400 	b	20(0x14) # 1c012da4 <n16_beq_test+0x2744>
1c012d94:	148061ca 	lu12i.w	$r10,262926(0x4030e)
1c012d98:	02abb94a 	addi.w	$r10,$r10,-1298(0xaee)
1c012d9c:	580021ac 	beq	$r13,$r12,32(0x20) # 1c012dbc <n16_beq_test+0x275c>
1c012da0:	50002400 	b	36(0x24) # 1c012dc4 <n16_beq_test+0x2764>
1c012da4:	14ab52cc 	lu12i.w	$r12,350870(0x55a96)
1c012da8:	02ac418c 	addi.w	$r12,$r12,-1264(0xb10)
1c012dac:	14ab52cd 	lu12i.w	$r13,350870(0x55a96)
1c012db0:	02ac41ad 	addi.w	$r13,$r13,-1264(0xb10)
1c012db4:	5bffe18d 	beq	$r12,$r13,-32(0x3ffe0) # 1c012d94 <n16_beq_test+0x2734>
1c012db8:	50000c00 	b	12(0xc) # 1c012dc4 <n16_beq_test+0x2764>
1c012dbc:	14913f6b 	lu12i.w	$r11,297467(0x489fb)
1c012dc0:	02b2816b 	addi.w	$r11,$r11,-864(0xca0)
1c012dc4:	148061dc 	lu12i.w	$r28,262926(0x4030e)
1c012dc8:	02abbb9c 	addi.w	$r28,$r28,-1298(0xaee)
1c012dcc:	14913f7d 	lu12i.w	$r29,297467(0x489fb)
1c012dd0:	02b283bd 	addi.w	$r29,$r29,-864(0xca0)
1c012dd4:	5c4e315c 	bne	$r10,$r28,20016(0x4e30) # 1c017c04 <inst_error>
1c012dd8:	5c4e2d7d 	bne	$r11,$r29,20012(0x4e2c) # 1c017c04 <inst_error>
1c012ddc:	15ec4390 	lu12i.w	$r16,-40420(0xf621c)
1c012de0:	02b50210 	addi.w	$r16,$r16,-704(0xd40)
1c012de4:	14308df1 	lu12i.w	$r17,99439(0x1846f)
1c012de8:	02804231 	addi.w	$r17,$r17,16(0x10)
1c012dec:	1400000a 	lu12i.w	$r10,0
1c012df0:	1400000b 	lu12i.w	$r11,0
1c012df4:	50001400 	b	20(0x14) # 1c012e08 <n16_beq_test+0x27a8>
1c012df8:	15ec438a 	lu12i.w	$r10,-40420(0xf621c)
1c012dfc:	02b5014a 	addi.w	$r10,$r10,-704(0xd40)
1c012e00:	580021ac 	beq	$r13,$r12,32(0x20) # 1c012e20 <n16_beq_test+0x27c0>
1c012e04:	50002400 	b	36(0x24) # 1c012e28 <n16_beq_test+0x27c8>
1c012e08:	158ff60c 	lu12i.w	$r12,-229456(0xc7fb0)
1c012e0c:	02b1b98c 	addi.w	$r12,$r12,-914(0xc6e)
1c012e10:	158ff60d 	lu12i.w	$r13,-229456(0xc7fb0)
1c012e14:	02b1b9ad 	addi.w	$r13,$r13,-914(0xc6e)
1c012e18:	5bffe18d 	beq	$r12,$r13,-32(0x3ffe0) # 1c012df8 <n16_beq_test+0x2798>
1c012e1c:	50000c00 	b	12(0xc) # 1c012e28 <n16_beq_test+0x27c8>
1c012e20:	14308deb 	lu12i.w	$r11,99439(0x1846f)
1c012e24:	0280416b 	addi.w	$r11,$r11,16(0x10)
1c012e28:	15ec439c 	lu12i.w	$r28,-40420(0xf621c)
1c012e2c:	02b5039c 	addi.w	$r28,$r28,-704(0xd40)
1c012e30:	14308dfd 	lu12i.w	$r29,99439(0x1846f)
1c012e34:	028043bd 	addi.w	$r29,$r29,16(0x10)
1c012e38:	5c4dcd5c 	bne	$r10,$r28,19916(0x4dcc) # 1c017c04 <inst_error>
1c012e3c:	5c4dc97d 	bne	$r11,$r29,19912(0x4dc8) # 1c017c04 <inst_error>
1c012e40:	14d941f0 	lu12i.w	$r16,444943(0x6ca0f)
1c012e44:	028fa210 	addi.w	$r16,$r16,1000(0x3e8)
1c012e48:	151cdd11 	lu12i.w	$r17,-465176(0x8e6e8)
1c012e4c:	02992a31 	addi.w	$r17,$r17,1610(0x64a)
1c012e50:	1400000a 	lu12i.w	$r10,0
1c012e54:	1400000b 	lu12i.w	$r11,0
1c012e58:	50001400 	b	20(0x14) # 1c012e6c <n16_beq_test+0x280c>
1c012e5c:	14d941ea 	lu12i.w	$r10,444943(0x6ca0f)
1c012e60:	028fa14a 	addi.w	$r10,$r10,1000(0x3e8)
1c012e64:	580021ac 	beq	$r13,$r12,32(0x20) # 1c012e84 <n16_beq_test+0x2824>
1c012e68:	50002400 	b	36(0x24) # 1c012e8c <n16_beq_test+0x282c>
1c012e6c:	14bdbb4c 	lu12i.w	$r12,388570(0x5edda)
1c012e70:	02adc18c 	addi.w	$r12,$r12,-1168(0xb70)
1c012e74:	14bdbb4d 	lu12i.w	$r13,388570(0x5edda)
1c012e78:	02adc1ad 	addi.w	$r13,$r13,-1168(0xb70)
1c012e7c:	5bffe18d 	beq	$r12,$r13,-32(0x3ffe0) # 1c012e5c <n16_beq_test+0x27fc>
1c012e80:	50000c00 	b	12(0xc) # 1c012e8c <n16_beq_test+0x282c>
1c012e84:	151cdd0b 	lu12i.w	$r11,-465176(0x8e6e8)
1c012e88:	0299296b 	addi.w	$r11,$r11,1610(0x64a)
1c012e8c:	14d941fc 	lu12i.w	$r28,444943(0x6ca0f)
1c012e90:	028fa39c 	addi.w	$r28,$r28,1000(0x3e8)
1c012e94:	151cdd1d 	lu12i.w	$r29,-465176(0x8e6e8)
1c012e98:	02992bbd 	addi.w	$r29,$r29,1610(0x64a)
1c012e9c:	5c4d695c 	bne	$r10,$r28,19816(0x4d68) # 1c017c04 <inst_error>
1c012ea0:	5c4d657d 	bne	$r11,$r29,19812(0x4d64) # 1c017c04 <inst_error>
1c012ea4:	15f8f6d0 	lu12i.w	$r16,-14410(0xfc7b6)
1c012ea8:	02a12210 	addi.w	$r16,$r16,-1976(0x848)
1c012eac:	1428f431 	lu12i.w	$r17,83873(0x147a1)
1c012eb0:	028cd231 	addi.w	$r17,$r17,820(0x334)
1c012eb4:	1400000a 	lu12i.w	$r10,0
1c012eb8:	1400000b 	lu12i.w	$r11,0
1c012ebc:	50001400 	b	20(0x14) # 1c012ed0 <n16_beq_test+0x2870>
1c012ec0:	15f8f6ca 	lu12i.w	$r10,-14410(0xfc7b6)
1c012ec4:	02a1214a 	addi.w	$r10,$r10,-1976(0x848)
1c012ec8:	580021ac 	beq	$r13,$r12,32(0x20) # 1c012ee8 <n16_beq_test+0x2888>
1c012ecc:	50002400 	b	36(0x24) # 1c012ef0 <n16_beq_test+0x2890>
1c012ed0:	1508c2cc 	lu12i.w	$r12,-506346(0x84616)
1c012ed4:	02a8718c 	addi.w	$r12,$r12,-1508(0xa1c)
1c012ed8:	1508c2cd 	lu12i.w	$r13,-506346(0x84616)
1c012edc:	02a871ad 	addi.w	$r13,$r13,-1508(0xa1c)
1c012ee0:	5bffe18d 	beq	$r12,$r13,-32(0x3ffe0) # 1c012ec0 <n16_beq_test+0x2860>
1c012ee4:	50000c00 	b	12(0xc) # 1c012ef0 <n16_beq_test+0x2890>
1c012ee8:	1428f42b 	lu12i.w	$r11,83873(0x147a1)
1c012eec:	028cd16b 	addi.w	$r11,$r11,820(0x334)
1c012ef0:	15f8f6dc 	lu12i.w	$r28,-14410(0xfc7b6)
1c012ef4:	02a1239c 	addi.w	$r28,$r28,-1976(0x848)
1c012ef8:	1428f43d 	lu12i.w	$r29,83873(0x147a1)
1c012efc:	028cd3bd 	addi.w	$r29,$r29,820(0x334)
1c012f00:	5c4d055c 	bne	$r10,$r28,19716(0x4d04) # 1c017c04 <inst_error>
1c012f04:	5c4d017d 	bne	$r11,$r29,19712(0x4d00) # 1c017c04 <inst_error>
1c012f08:	14294f10 	lu12i.w	$r16,84600(0x14a78)
1c012f0c:	029a3210 	addi.w	$r16,$r16,1676(0x68c)
1c012f10:	14af5231 	lu12i.w	$r17,359057(0x57a91)
1c012f14:	02a90a31 	addi.w	$r17,$r17,-1470(0xa42)
1c012f18:	1400000a 	lu12i.w	$r10,0
1c012f1c:	1400000b 	lu12i.w	$r11,0
1c012f20:	50001400 	b	20(0x14) # 1c012f34 <n16_beq_test+0x28d4>
1c012f24:	14294f0a 	lu12i.w	$r10,84600(0x14a78)
1c012f28:	029a314a 	addi.w	$r10,$r10,1676(0x68c)
1c012f2c:	580021ac 	beq	$r13,$r12,32(0x20) # 1c012f4c <n16_beq_test+0x28ec>
1c012f30:	50002400 	b	36(0x24) # 1c012f54 <n16_beq_test+0x28f4>
1c012f34:	1566b54c 	lu12i.w	$r12,-313942(0xb35aa)
1c012f38:	0281918c 	addi.w	$r12,$r12,100(0x64)
1c012f3c:	1566b54d 	lu12i.w	$r13,-313942(0xb35aa)
1c012f40:	028191ad 	addi.w	$r13,$r13,100(0x64)
1c012f44:	5bffe18d 	beq	$r12,$r13,-32(0x3ffe0) # 1c012f24 <n16_beq_test+0x28c4>
1c012f48:	50000c00 	b	12(0xc) # 1c012f54 <n16_beq_test+0x28f4>
1c012f4c:	14af522b 	lu12i.w	$r11,359057(0x57a91)
1c012f50:	02a9096b 	addi.w	$r11,$r11,-1470(0xa42)
1c012f54:	14294f1c 	lu12i.w	$r28,84600(0x14a78)
1c012f58:	029a339c 	addi.w	$r28,$r28,1676(0x68c)
1c012f5c:	14af523d 	lu12i.w	$r29,359057(0x57a91)
1c012f60:	02a90bbd 	addi.w	$r29,$r29,-1470(0xa42)
1c012f64:	5c4ca15c 	bne	$r10,$r28,19616(0x4ca0) # 1c017c04 <inst_error>
1c012f68:	5c4c9d7d 	bne	$r11,$r29,19612(0x4c9c) # 1c017c04 <inst_error>
1c012f6c:	15602150 	lu12i.w	$r16,-327414(0xb010a)
1c012f70:	02a72a10 	addi.w	$r16,$r16,-1590(0x9ca)
1c012f74:	15e7d0f1 	lu12i.w	$r17,-49529(0xf3e87)
1c012f78:	02a5aa31 	addi.w	$r17,$r17,-1686(0x96a)
1c012f7c:	1400000a 	lu12i.w	$r10,0
1c012f80:	1400000b 	lu12i.w	$r11,0
1c012f84:	50001400 	b	20(0x14) # 1c012f98 <n16_beq_test+0x2938>
1c012f88:	1560214a 	lu12i.w	$r10,-327414(0xb010a)
1c012f8c:	02a7294a 	addi.w	$r10,$r10,-1590(0x9ca)
1c012f90:	580021ac 	beq	$r13,$r12,32(0x20) # 1c012fb0 <n16_beq_test+0x2950>
1c012f94:	50002400 	b	36(0x24) # 1c012fb8 <n16_beq_test+0x2958>
1c012f98:	155bbc6c 	lu12i.w	$r12,-336413(0xadde3)
1c012f9c:	02b01d8c 	addi.w	$r12,$r12,-1017(0xc07)
1c012fa0:	155bbc6d 	lu12i.w	$r13,-336413(0xadde3)
1c012fa4:	02b01dad 	addi.w	$r13,$r13,-1017(0xc07)
1c012fa8:	5bffe18d 	beq	$r12,$r13,-32(0x3ffe0) # 1c012f88 <n16_beq_test+0x2928>
1c012fac:	50000c00 	b	12(0xc) # 1c012fb8 <n16_beq_test+0x2958>
1c012fb0:	15e7d0eb 	lu12i.w	$r11,-49529(0xf3e87)
1c012fb4:	02a5a96b 	addi.w	$r11,$r11,-1686(0x96a)
1c012fb8:	1560215c 	lu12i.w	$r28,-327414(0xb010a)
1c012fbc:	02a72b9c 	addi.w	$r28,$r28,-1590(0x9ca)
1c012fc0:	15e7d0fd 	lu12i.w	$r29,-49529(0xf3e87)
1c012fc4:	02a5abbd 	addi.w	$r29,$r29,-1686(0x96a)
1c012fc8:	5c4c3d5c 	bne	$r10,$r28,19516(0x4c3c) # 1c017c04 <inst_error>
1c012fcc:	5c4c397d 	bne	$r11,$r29,19512(0x4c38) # 1c017c04 <inst_error>
1c012fd0:	1471e810 	lu12i.w	$r16,233280(0x38f40)
1c012fd4:	02a46a10 	addi.w	$r16,$r16,-1766(0x91a)
1c012fd8:	14e282b1 	lu12i.w	$r17,463893(0x71415)
1c012fdc:	02890231 	addi.w	$r17,$r17,576(0x240)
1c012fe0:	1400000a 	lu12i.w	$r10,0
1c012fe4:	1400000b 	lu12i.w	$r11,0
1c012fe8:	50001400 	b	20(0x14) # 1c012ffc <n16_beq_test+0x299c>
1c012fec:	1471e80a 	lu12i.w	$r10,233280(0x38f40)
1c012ff0:	02a4694a 	addi.w	$r10,$r10,-1766(0x91a)
1c012ff4:	580021ac 	beq	$r13,$r12,32(0x20) # 1c013014 <n16_beq_test+0x29b4>
1c012ff8:	50002400 	b	36(0x24) # 1c01301c <n16_beq_test+0x29bc>
1c012ffc:	14f7f4ac 	lu12i.w	$r12,507813(0x7bfa5)
1c013000:	0298818c 	addi.w	$r12,$r12,1568(0x620)
1c013004:	14f7f4ad 	lu12i.w	$r13,507813(0x7bfa5)
1c013008:	029881ad 	addi.w	$r13,$r13,1568(0x620)
1c01300c:	5bffe18d 	beq	$r12,$r13,-32(0x3ffe0) # 1c012fec <n16_beq_test+0x298c>
1c013010:	50000c00 	b	12(0xc) # 1c01301c <n16_beq_test+0x29bc>
1c013014:	14e282ab 	lu12i.w	$r11,463893(0x71415)
1c013018:	0289016b 	addi.w	$r11,$r11,576(0x240)
1c01301c:	1471e81c 	lu12i.w	$r28,233280(0x38f40)
1c013020:	02a46b9c 	addi.w	$r28,$r28,-1766(0x91a)
1c013024:	14e282bd 	lu12i.w	$r29,463893(0x71415)
1c013028:	028903bd 	addi.w	$r29,$r29,576(0x240)
1c01302c:	5c4bd95c 	bne	$r10,$r28,19416(0x4bd8) # 1c017c04 <inst_error>
1c013030:	5c4bd57d 	bne	$r11,$r29,19412(0x4bd4) # 1c017c04 <inst_error>
1c013034:	1424d630 	lu12i.w	$r16,75441(0x126b1)
1c013038:	02951210 	addi.w	$r16,$r16,1348(0x544)
1c01303c:	1454eb71 	lu12i.w	$r17,173915(0x2a75b)
1c013040:	02b1f231 	addi.w	$r17,$r17,-900(0xc7c)
1c013044:	1400000a 	lu12i.w	$r10,0
1c013048:	1400000b 	lu12i.w	$r11,0
1c01304c:	50001400 	b	20(0x14) # 1c013060 <n16_beq_test+0x2a00>
1c013050:	1424d62a 	lu12i.w	$r10,75441(0x126b1)
1c013054:	0295114a 	addi.w	$r10,$r10,1348(0x544)
1c013058:	580021ac 	beq	$r13,$r12,32(0x20) # 1c013078 <n16_beq_test+0x2a18>
1c01305c:	50002400 	b	36(0x24) # 1c013080 <n16_beq_test+0x2a20>
1c013060:	155ac76c 	lu12i.w	$r12,-338373(0xad63b)
1c013064:	02a9258c 	addi.w	$r12,$r12,-1463(0xa49)
1c013068:	155ac76d 	lu12i.w	$r13,-338373(0xad63b)
1c01306c:	02a925ad 	addi.w	$r13,$r13,-1463(0xa49)
1c013070:	5bffe18d 	beq	$r12,$r13,-32(0x3ffe0) # 1c013050 <n16_beq_test+0x29f0>
1c013074:	50000c00 	b	12(0xc) # 1c013080 <n16_beq_test+0x2a20>
1c013078:	1454eb6b 	lu12i.w	$r11,173915(0x2a75b)
1c01307c:	02b1f16b 	addi.w	$r11,$r11,-900(0xc7c)
1c013080:	1424d63c 	lu12i.w	$r28,75441(0x126b1)
1c013084:	0295139c 	addi.w	$r28,$r28,1348(0x544)
1c013088:	1454eb7d 	lu12i.w	$r29,173915(0x2a75b)
1c01308c:	02b1f3bd 	addi.w	$r29,$r29,-900(0xc7c)
1c013090:	5c4b755c 	bne	$r10,$r28,19316(0x4b74) # 1c017c04 <inst_error>
1c013094:	5c4b717d 	bne	$r11,$r29,19312(0x4b70) # 1c017c04 <inst_error>
1c013098:	143dafd0 	lu12i.w	$r16,126334(0x1ed7e)
1c01309c:	02905a10 	addi.w	$r16,$r16,1046(0x416)
1c0130a0:	15dd81d1 	lu12i.w	$r17,-70642(0xeec0e)
1c0130a4:	029d0231 	addi.w	$r17,$r17,1856(0x740)
1c0130a8:	1400000a 	lu12i.w	$r10,0
1c0130ac:	1400000b 	lu12i.w	$r11,0
1c0130b0:	50001400 	b	20(0x14) # 1c0130c4 <n16_beq_test+0x2a64>
1c0130b4:	143dafca 	lu12i.w	$r10,126334(0x1ed7e)
1c0130b8:	0290594a 	addi.w	$r10,$r10,1046(0x416)
1c0130bc:	580021ac 	beq	$r13,$r12,32(0x20) # 1c0130dc <n16_beq_test+0x2a7c>
1c0130c0:	50002400 	b	36(0x24) # 1c0130e4 <n16_beq_test+0x2a84>
1c0130c4:	149b326c 	lu12i.w	$r12,317843(0x4d993)
1c0130c8:	0298318c 	addi.w	$r12,$r12,1548(0x60c)
1c0130cc:	149b326d 	lu12i.w	$r13,317843(0x4d993)
1c0130d0:	029831ad 	addi.w	$r13,$r13,1548(0x60c)
1c0130d4:	5bffe18d 	beq	$r12,$r13,-32(0x3ffe0) # 1c0130b4 <n16_beq_test+0x2a54>
1c0130d8:	50000c00 	b	12(0xc) # 1c0130e4 <n16_beq_test+0x2a84>
1c0130dc:	15dd81cb 	lu12i.w	$r11,-70642(0xeec0e)
1c0130e0:	029d016b 	addi.w	$r11,$r11,1856(0x740)
1c0130e4:	143dafdc 	lu12i.w	$r28,126334(0x1ed7e)
1c0130e8:	02905b9c 	addi.w	$r28,$r28,1046(0x416)
1c0130ec:	15dd81dd 	lu12i.w	$r29,-70642(0xeec0e)
1c0130f0:	029d03bd 	addi.w	$r29,$r29,1856(0x740)
1c0130f4:	5c4b115c 	bne	$r10,$r28,19216(0x4b10) # 1c017c04 <inst_error>
1c0130f8:	5c4b0d7d 	bne	$r11,$r29,19212(0x4b0c) # 1c017c04 <inst_error>
1c0130fc:	14673530 	lu12i.w	$r16,211369(0x339a9)
1c013100:	02896210 	addi.w	$r16,$r16,600(0x258)
1c013104:	152f8151 	lu12i.w	$r17,-426998(0x97c0a)
1c013108:	02a40231 	addi.w	$r17,$r17,-1792(0x900)
1c01310c:	1400000a 	lu12i.w	$r10,0
1c013110:	1400000b 	lu12i.w	$r11,0
1c013114:	50001400 	b	20(0x14) # 1c013128 <n16_beq_test+0x2ac8>
1c013118:	1467352a 	lu12i.w	$r10,211369(0x339a9)
1c01311c:	0289614a 	addi.w	$r10,$r10,600(0x258)
1c013120:	580021ac 	beq	$r13,$r12,32(0x20) # 1c013140 <n16_beq_test+0x2ae0>
1c013124:	50002400 	b	36(0x24) # 1c013148 <n16_beq_test+0x2ae8>
1c013128:	150b432c 	lu12i.w	$r12,-501223(0x85a19)
1c01312c:	0284f18c 	addi.w	$r12,$r12,316(0x13c)
1c013130:	150b432d 	lu12i.w	$r13,-501223(0x85a19)
1c013134:	0284f1ad 	addi.w	$r13,$r13,316(0x13c)
1c013138:	5bffe18d 	beq	$r12,$r13,-32(0x3ffe0) # 1c013118 <n16_beq_test+0x2ab8>
1c01313c:	50000c00 	b	12(0xc) # 1c013148 <n16_beq_test+0x2ae8>
1c013140:	152f814b 	lu12i.w	$r11,-426998(0x97c0a)
1c013144:	02a4016b 	addi.w	$r11,$r11,-1792(0x900)
1c013148:	1467353c 	lu12i.w	$r28,211369(0x339a9)
1c01314c:	0289639c 	addi.w	$r28,$r28,600(0x258)
1c013150:	152f815d 	lu12i.w	$r29,-426998(0x97c0a)
1c013154:	02a403bd 	addi.w	$r29,$r29,-1792(0x900)
1c013158:	5c4aad5c 	bne	$r10,$r28,19116(0x4aac) # 1c017c04 <inst_error>
1c01315c:	5c4aa97d 	bne	$r11,$r29,19112(0x4aa8) # 1c017c04 <inst_error>
1c013160:	1441caf0 	lu12i.w	$r16,134743(0x20e57)
1c013164:	0283c210 	addi.w	$r16,$r16,240(0xf0)
1c013168:	1453cf91 	lu12i.w	$r17,171644(0x29e7c)
1c01316c:	02a07e31 	addi.w	$r17,$r17,-2017(0x81f)
1c013170:	1400000a 	lu12i.w	$r10,0
1c013174:	1400000b 	lu12i.w	$r11,0
1c013178:	50001400 	b	20(0x14) # 1c01318c <n16_beq_test+0x2b2c>
1c01317c:	1441caea 	lu12i.w	$r10,134743(0x20e57)
1c013180:	0283c14a 	addi.w	$r10,$r10,240(0xf0)
1c013184:	580021ac 	beq	$r13,$r12,32(0x20) # 1c0131a4 <n16_beq_test+0x2b44>
1c013188:	50002400 	b	36(0x24) # 1c0131ac <n16_beq_test+0x2b4c>
1c01318c:	151c190c 	lu12i.w	$r12,-466744(0x8e0c8)
1c013190:	029f398c 	addi.w	$r12,$r12,1998(0x7ce)
1c013194:	151c190d 	lu12i.w	$r13,-466744(0x8e0c8)
1c013198:	029f39ad 	addi.w	$r13,$r13,1998(0x7ce)
1c01319c:	5bffe18d 	beq	$r12,$r13,-32(0x3ffe0) # 1c01317c <n16_beq_test+0x2b1c>
1c0131a0:	50000c00 	b	12(0xc) # 1c0131ac <n16_beq_test+0x2b4c>
1c0131a4:	1453cf8b 	lu12i.w	$r11,171644(0x29e7c)
1c0131a8:	02a07d6b 	addi.w	$r11,$r11,-2017(0x81f)
1c0131ac:	1441cafc 	lu12i.w	$r28,134743(0x20e57)
1c0131b0:	0283c39c 	addi.w	$r28,$r28,240(0xf0)
1c0131b4:	1453cf9d 	lu12i.w	$r29,171644(0x29e7c)
1c0131b8:	02a07fbd 	addi.w	$r29,$r29,-2017(0x81f)
1c0131bc:	5c4a495c 	bne	$r10,$r28,19016(0x4a48) # 1c017c04 <inst_error>
1c0131c0:	5c4a457d 	bne	$r11,$r29,19012(0x4a44) # 1c017c04 <inst_error>
1c0131c4:	1546bd70 	lu12i.w	$r16,-379413(0xa35eb)
1c0131c8:	02a9c210 	addi.w	$r16,$r16,-1424(0xa70)
1c0131cc:	150f2111 	lu12i.w	$r17,-493304(0x87908)
1c0131d0:	02b82231 	addi.w	$r17,$r17,-504(0xe08)
1c0131d4:	1400000a 	lu12i.w	$r10,0
1c0131d8:	1400000b 	lu12i.w	$r11,0
1c0131dc:	50001400 	b	20(0x14) # 1c0131f0 <n16_beq_test+0x2b90>
1c0131e0:	1546bd6a 	lu12i.w	$r10,-379413(0xa35eb)
1c0131e4:	02a9c14a 	addi.w	$r10,$r10,-1424(0xa70)
1c0131e8:	580021ac 	beq	$r13,$r12,32(0x20) # 1c013208 <n16_beq_test+0x2ba8>
1c0131ec:	50002400 	b	36(0x24) # 1c013210 <n16_beq_test+0x2bb0>
1c0131f0:	15e0d40c 	lu12i.w	$r12,-63840(0xf06a0)
1c0131f4:	02a2c18c 	addi.w	$r12,$r12,-1872(0x8b0)
1c0131f8:	15e0d40d 	lu12i.w	$r13,-63840(0xf06a0)
1c0131fc:	02a2c1ad 	addi.w	$r13,$r13,-1872(0x8b0)
1c013200:	5bffe18d 	beq	$r12,$r13,-32(0x3ffe0) # 1c0131e0 <n16_beq_test+0x2b80>
1c013204:	50000c00 	b	12(0xc) # 1c013210 <n16_beq_test+0x2bb0>
1c013208:	150f210b 	lu12i.w	$r11,-493304(0x87908)
1c01320c:	02b8216b 	addi.w	$r11,$r11,-504(0xe08)
1c013210:	1546bd7c 	lu12i.w	$r28,-379413(0xa35eb)
1c013214:	02a9c39c 	addi.w	$r28,$r28,-1424(0xa70)
1c013218:	150f211d 	lu12i.w	$r29,-493304(0x87908)
1c01321c:	02b823bd 	addi.w	$r29,$r29,-504(0xe08)
1c013220:	5c49e55c 	bne	$r10,$r28,18916(0x49e4) # 1c017c04 <inst_error>
1c013224:	5c49e17d 	bne	$r11,$r29,18912(0x49e0) # 1c017c04 <inst_error>
1c013228:	14eacc50 	lu12i.w	$r16,480866(0x75662)
1c01322c:	02a57a10 	addi.w	$r16,$r16,-1698(0x95e)
1c013230:	158ae7f1 	lu12i.w	$r17,-239809(0xc573f)
1c013234:	02a2f231 	addi.w	$r17,$r17,-1860(0x8bc)
1c013238:	1400000a 	lu12i.w	$r10,0
1c01323c:	1400000b 	lu12i.w	$r11,0
1c013240:	50001400 	b	20(0x14) # 1c013254 <n16_beq_test+0x2bf4>
1c013244:	14eacc4a 	lu12i.w	$r10,480866(0x75662)
1c013248:	02a5794a 	addi.w	$r10,$r10,-1698(0x95e)
1c01324c:	580021ac 	beq	$r13,$r12,32(0x20) # 1c01326c <n16_beq_test+0x2c0c>
1c013250:	50002400 	b	36(0x24) # 1c013274 <n16_beq_test+0x2c14>
1c013254:	15ee796c 	lu12i.w	$r12,-35893(0xf73cb)
1c013258:	0296318c 	addi.w	$r12,$r12,1420(0x58c)
1c01325c:	15ee796d 	lu12i.w	$r13,-35893(0xf73cb)
1c013260:	029631ad 	addi.w	$r13,$r13,1420(0x58c)
1c013264:	5bffe18d 	beq	$r12,$r13,-32(0x3ffe0) # 1c013244 <n16_beq_test+0x2be4>
1c013268:	50000c00 	b	12(0xc) # 1c013274 <n16_beq_test+0x2c14>
1c01326c:	158ae7eb 	lu12i.w	$r11,-239809(0xc573f)
1c013270:	02a2f16b 	addi.w	$r11,$r11,-1860(0x8bc)
1c013274:	14eacc5c 	lu12i.w	$r28,480866(0x75662)
1c013278:	02a57b9c 	addi.w	$r28,$r28,-1698(0x95e)
1c01327c:	158ae7fd 	lu12i.w	$r29,-239809(0xc573f)
1c013280:	02a2f3bd 	addi.w	$r29,$r29,-1860(0x8bc)
1c013284:	5c49815c 	bne	$r10,$r28,18816(0x4980) # 1c017c04 <inst_error>
1c013288:	5c497d7d 	bne	$r11,$r29,18812(0x497c) # 1c017c04 <inst_error>
1c01328c:	150692f0 	lu12i.w	$r16,-510825(0x83497)
1c013290:	02a4d610 	addi.w	$r16,$r16,-1739(0x935)
1c013294:	140e5391 	lu12i.w	$r17,29340(0x729c)
1c013298:	02bf0231 	addi.w	$r17,$r17,-64(0xfc0)
1c01329c:	1400000a 	lu12i.w	$r10,0
1c0132a0:	1400000b 	lu12i.w	$r11,0
1c0132a4:	50001400 	b	20(0x14) # 1c0132b8 <n16_beq_test+0x2c58>
1c0132a8:	150692ea 	lu12i.w	$r10,-510825(0x83497)
1c0132ac:	02a4d54a 	addi.w	$r10,$r10,-1739(0x935)
1c0132b0:	580021ac 	beq	$r13,$r12,32(0x20) # 1c0132d0 <n16_beq_test+0x2c70>
1c0132b4:	50002400 	b	36(0x24) # 1c0132d8 <n16_beq_test+0x2c78>
1c0132b8:	15c77e8c 	lu12i.w	$r12,-115724(0xe3bf4)
1c0132bc:	02a1c98c 	addi.w	$r12,$r12,-1934(0x872)
1c0132c0:	15c77e8d 	lu12i.w	$r13,-115724(0xe3bf4)
1c0132c4:	02a1c9ad 	addi.w	$r13,$r13,-1934(0x872)
1c0132c8:	5bffe18d 	beq	$r12,$r13,-32(0x3ffe0) # 1c0132a8 <n16_beq_test+0x2c48>
1c0132cc:	50000c00 	b	12(0xc) # 1c0132d8 <n16_beq_test+0x2c78>
1c0132d0:	140e538b 	lu12i.w	$r11,29340(0x729c)
1c0132d4:	02bf016b 	addi.w	$r11,$r11,-64(0xfc0)
1c0132d8:	150692fc 	lu12i.w	$r28,-510825(0x83497)
1c0132dc:	02a4d79c 	addi.w	$r28,$r28,-1739(0x935)
1c0132e0:	140e539d 	lu12i.w	$r29,29340(0x729c)
1c0132e4:	02bf03bd 	addi.w	$r29,$r29,-64(0xfc0)
1c0132e8:	5c491d5c 	bne	$r10,$r28,18716(0x491c) # 1c017c04 <inst_error>
1c0132ec:	5c49197d 	bne	$r11,$r29,18712(0x4918) # 1c017c04 <inst_error>
1c0132f0:	15c93570 	lu12i.w	$r16,-112213(0xe49ab)
1c0132f4:	0298aa10 	addi.w	$r16,$r16,1578(0x62a)
1c0132f8:	15e405d1 	lu12i.w	$r17,-57298(0xf202e)
1c0132fc:	02870231 	addi.w	$r17,$r17,448(0x1c0)
1c013300:	1400000a 	lu12i.w	$r10,0
1c013304:	1400000b 	lu12i.w	$r11,0
1c013308:	50001400 	b	20(0x14) # 1c01331c <n16_beq_test+0x2cbc>
1c01330c:	15c9356a 	lu12i.w	$r10,-112213(0xe49ab)
1c013310:	0298a94a 	addi.w	$r10,$r10,1578(0x62a)
1c013314:	580021ac 	beq	$r13,$r12,32(0x20) # 1c013334 <n16_beq_test+0x2cd4>
1c013318:	50002400 	b	36(0x24) # 1c01333c <n16_beq_test+0x2cdc>
1c01331c:	150aaa8c 	lu12i.w	$r12,-502444(0x85554)
1c013320:	0294818c 	addi.w	$r12,$r12,1312(0x520)
1c013324:	150aaa8d 	lu12i.w	$r13,-502444(0x85554)
1c013328:	029481ad 	addi.w	$r13,$r13,1312(0x520)
1c01332c:	5bffe18d 	beq	$r12,$r13,-32(0x3ffe0) # 1c01330c <n16_beq_test+0x2cac>
1c013330:	50000c00 	b	12(0xc) # 1c01333c <n16_beq_test+0x2cdc>
1c013334:	15e405cb 	lu12i.w	$r11,-57298(0xf202e)
1c013338:	0287016b 	addi.w	$r11,$r11,448(0x1c0)
1c01333c:	15c9357c 	lu12i.w	$r28,-112213(0xe49ab)
1c013340:	0298ab9c 	addi.w	$r28,$r28,1578(0x62a)
1c013344:	15e405dd 	lu12i.w	$r29,-57298(0xf202e)
1c013348:	028703bd 	addi.w	$r29,$r29,448(0x1c0)
1c01334c:	5c48b95c 	bne	$r10,$r28,18616(0x48b8) # 1c017c04 <inst_error>
1c013350:	5c48b57d 	bne	$r11,$r29,18612(0x48b4) # 1c017c04 <inst_error>
1c013354:	155c5930 	lu12i.w	$r16,-335159(0xae2c9)
1c013358:	02809e10 	addi.w	$r16,$r16,39(0x27)
1c01335c:	142c7e51 	lu12i.w	$r17,91122(0x163f2)
1c013360:	02828231 	addi.w	$r17,$r17,160(0xa0)
1c013364:	1400000a 	lu12i.w	$r10,0
1c013368:	1400000b 	lu12i.w	$r11,0
1c01336c:	50001400 	b	20(0x14) # 1c013380 <n16_beq_test+0x2d20>
1c013370:	155c592a 	lu12i.w	$r10,-335159(0xae2c9)
1c013374:	02809d4a 	addi.w	$r10,$r10,39(0x27)
1c013378:	580021ac 	beq	$r13,$r12,32(0x20) # 1c013398 <n16_beq_test+0x2d38>
1c01337c:	50002400 	b	36(0x24) # 1c0133a0 <n16_beq_test+0x2d40>
1c013380:	1589b98c 	lu12i.w	$r12,-242228(0xc4dcc)
1c013384:	02a4558c 	addi.w	$r12,$r12,-1771(0x915)
1c013388:	1589b98d 	lu12i.w	$r13,-242228(0xc4dcc)
1c01338c:	02a455ad 	addi.w	$r13,$r13,-1771(0x915)
1c013390:	5bffe18d 	beq	$r12,$r13,-32(0x3ffe0) # 1c013370 <n16_beq_test+0x2d10>
1c013394:	50000c00 	b	12(0xc) # 1c0133a0 <n16_beq_test+0x2d40>
1c013398:	142c7e4b 	lu12i.w	$r11,91122(0x163f2)
1c01339c:	0282816b 	addi.w	$r11,$r11,160(0xa0)
1c0133a0:	155c593c 	lu12i.w	$r28,-335159(0xae2c9)
1c0133a4:	02809f9c 	addi.w	$r28,$r28,39(0x27)
1c0133a8:	142c7e5d 	lu12i.w	$r29,91122(0x163f2)
1c0133ac:	028283bd 	addi.w	$r29,$r29,160(0xa0)
1c0133b0:	5c48555c 	bne	$r10,$r28,18516(0x4854) # 1c017c04 <inst_error>
1c0133b4:	5c48517d 	bne	$r11,$r29,18512(0x4850) # 1c017c04 <inst_error>
1c0133b8:	15ce1650 	lu12i.w	$r16,-102222(0xe70b2)
1c0133bc:	029c1e10 	addi.w	$r16,$r16,1799(0x707)
1c0133c0:	153df051 	lu12i.w	$r17,-397438(0x9ef82)
1c0133c4:	02a36631 	addi.w	$r17,$r17,-1831(0x8d9)
1c0133c8:	1400000a 	lu12i.w	$r10,0
1c0133cc:	1400000b 	lu12i.w	$r11,0
1c0133d0:	50001400 	b	20(0x14) # 1c0133e4 <n16_beq_test+0x2d84>
1c0133d4:	15ce164a 	lu12i.w	$r10,-102222(0xe70b2)
1c0133d8:	029c1d4a 	addi.w	$r10,$r10,1799(0x707)
1c0133dc:	580021ac 	beq	$r13,$r12,32(0x20) # 1c0133fc <n16_beq_test+0x2d9c>
1c0133e0:	50002400 	b	36(0x24) # 1c013404 <n16_beq_test+0x2da4>
1c0133e4:	149c67cc 	lu12i.w	$r12,320318(0x4e33e)
1c0133e8:	02aa018c 	addi.w	$r12,$r12,-1408(0xa80)
1c0133ec:	149c67cd 	lu12i.w	$r13,320318(0x4e33e)
1c0133f0:	02aa01ad 	addi.w	$r13,$r13,-1408(0xa80)
1c0133f4:	5bffe18d 	beq	$r12,$r13,-32(0x3ffe0) # 1c0133d4 <n16_beq_test+0x2d74>
1c0133f8:	50000c00 	b	12(0xc) # 1c013404 <n16_beq_test+0x2da4>
1c0133fc:	153df04b 	lu12i.w	$r11,-397438(0x9ef82)
1c013400:	02a3656b 	addi.w	$r11,$r11,-1831(0x8d9)
1c013404:	15ce165c 	lu12i.w	$r28,-102222(0xe70b2)
1c013408:	029c1f9c 	addi.w	$r28,$r28,1799(0x707)
1c01340c:	153df05d 	lu12i.w	$r29,-397438(0x9ef82)
1c013410:	02a367bd 	addi.w	$r29,$r29,-1831(0x8d9)
1c013414:	5c47f15c 	bne	$r10,$r28,18416(0x47f0) # 1c017c04 <inst_error>
1c013418:	5c47ed7d 	bne	$r11,$r29,18412(0x47ec) # 1c017c04 <inst_error>
1c01341c:	15b95190 	lu12i.w	$r16,-144756(0xdca8c)
1c013420:	02ab8210 	addi.w	$r16,$r16,-1312(0xae0)
1c013424:	1442c951 	lu12i.w	$r17,136778(0x2164a)
1c013428:	02b68231 	addi.w	$r17,$r17,-608(0xda0)
1c01342c:	1400000a 	lu12i.w	$r10,0
1c013430:	1400000b 	lu12i.w	$r11,0
1c013434:	50001400 	b	20(0x14) # 1c013448 <n16_beq_test+0x2de8>
1c013438:	15b9518a 	lu12i.w	$r10,-144756(0xdca8c)
1c01343c:	02ab814a 	addi.w	$r10,$r10,-1312(0xae0)
1c013440:	580021ac 	beq	$r13,$r12,32(0x20) # 1c013460 <n16_beq_test+0x2e00>
1c013444:	50002400 	b	36(0x24) # 1c013468 <n16_beq_test+0x2e08>
1c013448:	15ae54ac 	lu12i.w	$r12,-167259(0xd72a5)
1c01344c:	0291718c 	addi.w	$r12,$r12,1116(0x45c)
1c013450:	15ae54ad 	lu12i.w	$r13,-167259(0xd72a5)
1c013454:	029171ad 	addi.w	$r13,$r13,1116(0x45c)
1c013458:	5bffe18d 	beq	$r12,$r13,-32(0x3ffe0) # 1c013438 <n16_beq_test+0x2dd8>
1c01345c:	50000c00 	b	12(0xc) # 1c013468 <n16_beq_test+0x2e08>
1c013460:	1442c94b 	lu12i.w	$r11,136778(0x2164a)
1c013464:	02b6816b 	addi.w	$r11,$r11,-608(0xda0)
1c013468:	15b9519c 	lu12i.w	$r28,-144756(0xdca8c)
1c01346c:	02ab839c 	addi.w	$r28,$r28,-1312(0xae0)
1c013470:	1442c95d 	lu12i.w	$r29,136778(0x2164a)
1c013474:	02b683bd 	addi.w	$r29,$r29,-608(0xda0)
1c013478:	5c478d5c 	bne	$r10,$r28,18316(0x478c) # 1c017c04 <inst_error>
1c01347c:	5c47897d 	bne	$r11,$r29,18312(0x4788) # 1c017c04 <inst_error>
1c013480:	155c2250 	lu12i.w	$r16,-335598(0xae112)
1c013484:	02b30210 	addi.w	$r16,$r16,-832(0xcc0)
1c013488:	14336471 	lu12i.w	$r17,105251(0x19b23)
1c01348c:	02b06231 	addi.w	$r17,$r17,-1000(0xc18)
1c013490:	1400000a 	lu12i.w	$r10,0
1c013494:	1400000b 	lu12i.w	$r11,0
1c013498:	50001400 	b	20(0x14) # 1c0134ac <n16_beq_test+0x2e4c>
1c01349c:	155c224a 	lu12i.w	$r10,-335598(0xae112)
1c0134a0:	02b3014a 	addi.w	$r10,$r10,-832(0xcc0)
1c0134a4:	580021ac 	beq	$r13,$r12,32(0x20) # 1c0134c4 <n16_beq_test+0x2e64>
1c0134a8:	50002400 	b	36(0x24) # 1c0134cc <n16_beq_test+0x2e6c>
1c0134ac:	14cbcf6c 	lu12i.w	$r12,417403(0x65e7b)
1c0134b0:	02a3458c 	addi.w	$r12,$r12,-1839(0x8d1)
1c0134b4:	14cbcf6d 	lu12i.w	$r13,417403(0x65e7b)
1c0134b8:	02a345ad 	addi.w	$r13,$r13,-1839(0x8d1)
1c0134bc:	5bffe18d 	beq	$r12,$r13,-32(0x3ffe0) # 1c01349c <n16_beq_test+0x2e3c>
1c0134c0:	50000c00 	b	12(0xc) # 1c0134cc <n16_beq_test+0x2e6c>
1c0134c4:	1433646b 	lu12i.w	$r11,105251(0x19b23)
1c0134c8:	02b0616b 	addi.w	$r11,$r11,-1000(0xc18)
1c0134cc:	155c225c 	lu12i.w	$r28,-335598(0xae112)
1c0134d0:	02b3039c 	addi.w	$r28,$r28,-832(0xcc0)
1c0134d4:	1433647d 	lu12i.w	$r29,105251(0x19b23)
1c0134d8:	02b063bd 	addi.w	$r29,$r29,-1000(0xc18)
1c0134dc:	5c47295c 	bne	$r10,$r28,18216(0x4728) # 1c017c04 <inst_error>
1c0134e0:	5c47257d 	bne	$r11,$r29,18212(0x4724) # 1c017c04 <inst_error>
1c0134e4:	157a44d0 	lu12i.w	$r16,-273882(0xbd226)
1c0134e8:	02b9a210 	addi.w	$r16,$r16,-408(0xe68)
1c0134ec:	14e601b1 	lu12i.w	$r17,471053(0x7300d)
1c0134f0:	02bdf631 	addi.w	$r17,$r17,-131(0xf7d)
1c0134f4:	1400000a 	lu12i.w	$r10,0
1c0134f8:	1400000b 	lu12i.w	$r11,0
1c0134fc:	50001400 	b	20(0x14) # 1c013510 <n16_beq_test+0x2eb0>
1c013500:	157a44ca 	lu12i.w	$r10,-273882(0xbd226)
1c013504:	02b9a14a 	addi.w	$r10,$r10,-408(0xe68)
1c013508:	580021ac 	beq	$r13,$r12,32(0x20) # 1c013528 <n16_beq_test+0x2ec8>
1c01350c:	50002400 	b	36(0x24) # 1c013530 <n16_beq_test+0x2ed0>
1c013510:	1497f38c 	lu12i.w	$r12,311196(0x4bf9c)
1c013514:	0290018c 	addi.w	$r12,$r12,1024(0x400)
1c013518:	1497f38d 	lu12i.w	$r13,311196(0x4bf9c)
1c01351c:	029001ad 	addi.w	$r13,$r13,1024(0x400)
1c013520:	5bffe18d 	beq	$r12,$r13,-32(0x3ffe0) # 1c013500 <n16_beq_test+0x2ea0>
1c013524:	50000c00 	b	12(0xc) # 1c013530 <n16_beq_test+0x2ed0>
1c013528:	14e601ab 	lu12i.w	$r11,471053(0x7300d)
1c01352c:	02bdf56b 	addi.w	$r11,$r11,-131(0xf7d)
1c013530:	157a44dc 	lu12i.w	$r28,-273882(0xbd226)
1c013534:	02b9a39c 	addi.w	$r28,$r28,-408(0xe68)
1c013538:	14e601bd 	lu12i.w	$r29,471053(0x7300d)
1c01353c:	02bdf7bd 	addi.w	$r29,$r29,-131(0xf7d)
1c013540:	5c46c55c 	bne	$r10,$r28,18116(0x46c4) # 1c017c04 <inst_error>
1c013544:	5c46c17d 	bne	$r11,$r29,18112(0x46c0) # 1c017c04 <inst_error>
1c013548:	15237350 	lu12i.w	$r16,-451686(0x91b9a)
1c01354c:	029ad210 	addi.w	$r16,$r16,1716(0x6b4)
1c013550:	15c71091 	lu12i.w	$r17,-116604(0xe3884)
1c013554:	029f0231 	addi.w	$r17,$r17,1984(0x7c0)
1c013558:	1400000a 	lu12i.w	$r10,0
1c01355c:	1400000b 	lu12i.w	$r11,0
1c013560:	50001400 	b	20(0x14) # 1c013574 <n16_beq_test+0x2f14>
1c013564:	1523734a 	lu12i.w	$r10,-451686(0x91b9a)
1c013568:	029ad14a 	addi.w	$r10,$r10,1716(0x6b4)
1c01356c:	580021ac 	beq	$r13,$r12,32(0x20) # 1c01358c <n16_beq_test+0x2f2c>
1c013570:	50002400 	b	36(0x24) # 1c013594 <n16_beq_test+0x2f34>
1c013574:	158124ec 	lu12i.w	$r12,-259801(0xc0927)
1c013578:	0282498c 	addi.w	$r12,$r12,146(0x92)
1c01357c:	158124ed 	lu12i.w	$r13,-259801(0xc0927)
1c013580:	028249ad 	addi.w	$r13,$r13,146(0x92)
1c013584:	5bffe18d 	beq	$r12,$r13,-32(0x3ffe0) # 1c013564 <n16_beq_test+0x2f04>
1c013588:	50000c00 	b	12(0xc) # 1c013594 <n16_beq_test+0x2f34>
1c01358c:	15c7108b 	lu12i.w	$r11,-116604(0xe3884)
1c013590:	029f016b 	addi.w	$r11,$r11,1984(0x7c0)
1c013594:	1523735c 	lu12i.w	$r28,-451686(0x91b9a)
1c013598:	029ad39c 	addi.w	$r28,$r28,1716(0x6b4)
1c01359c:	15c7109d 	lu12i.w	$r29,-116604(0xe3884)
1c0135a0:	029f03bd 	addi.w	$r29,$r29,1984(0x7c0)
1c0135a4:	5c46615c 	bne	$r10,$r28,18016(0x4660) # 1c017c04 <inst_error>
1c0135a8:	5c465d7d 	bne	$r11,$r29,18012(0x465c) # 1c017c04 <inst_error>
1c0135ac:	14364b30 	lu12i.w	$r16,111193(0x1b259)
1c0135b0:	02b04210 	addi.w	$r16,$r16,-1008(0xc10)
1c0135b4:	15929211 	lu12i.w	$r17,-224112(0xc9490)
1c0135b8:	02b33231 	addi.w	$r17,$r17,-820(0xccc)
1c0135bc:	1400000a 	lu12i.w	$r10,0
1c0135c0:	1400000b 	lu12i.w	$r11,0
1c0135c4:	50001400 	b	20(0x14) # 1c0135d8 <n16_beq_test+0x2f78>
1c0135c8:	14364b2a 	lu12i.w	$r10,111193(0x1b259)
1c0135cc:	02b0414a 	addi.w	$r10,$r10,-1008(0xc10)
1c0135d0:	580021ac 	beq	$r13,$r12,32(0x20) # 1c0135f0 <n16_beq_test+0x2f90>
1c0135d4:	50002400 	b	36(0x24) # 1c0135f8 <n16_beq_test+0x2f98>
1c0135d8:	149d504c 	lu12i.w	$r12,322178(0x4ea82)
1c0135dc:	02a5e98c 	addi.w	$r12,$r12,-1670(0x97a)
1c0135e0:	149d504d 	lu12i.w	$r13,322178(0x4ea82)
1c0135e4:	02a5e9ad 	addi.w	$r13,$r13,-1670(0x97a)
1c0135e8:	5bffe18d 	beq	$r12,$r13,-32(0x3ffe0) # 1c0135c8 <n16_beq_test+0x2f68>
1c0135ec:	50000c00 	b	12(0xc) # 1c0135f8 <n16_beq_test+0x2f98>
1c0135f0:	1592920b 	lu12i.w	$r11,-224112(0xc9490)
1c0135f4:	02b3316b 	addi.w	$r11,$r11,-820(0xccc)
1c0135f8:	14364b3c 	lu12i.w	$r28,111193(0x1b259)
1c0135fc:	02b0439c 	addi.w	$r28,$r28,-1008(0xc10)
1c013600:	1592921d 	lu12i.w	$r29,-224112(0xc9490)
1c013604:	02b333bd 	addi.w	$r29,$r29,-820(0xccc)
1c013608:	5c45fd5c 	bne	$r10,$r28,17916(0x45fc) # 1c017c04 <inst_error>
1c01360c:	5c45f97d 	bne	$r11,$r29,17912(0x45f8) # 1c017c04 <inst_error>
1c013610:	142cd450 	lu12i.w	$r16,91810(0x166a2)
1c013614:	02ab8210 	addi.w	$r16,$r16,-1312(0xae0)
1c013618:	1420f5f1 	lu12i.w	$r17,67503(0x107af)
1c01361c:	0292d231 	addi.w	$r17,$r17,1204(0x4b4)
1c013620:	1400000a 	lu12i.w	$r10,0
1c013624:	1400000b 	lu12i.w	$r11,0
1c013628:	50001400 	b	20(0x14) # 1c01363c <n16_beq_test+0x2fdc>
1c01362c:	142cd44a 	lu12i.w	$r10,91810(0x166a2)
1c013630:	02ab814a 	addi.w	$r10,$r10,-1312(0xae0)
1c013634:	580021ac 	beq	$r13,$r12,32(0x20) # 1c013654 <n16_beq_test+0x2ff4>
1c013638:	50002400 	b	36(0x24) # 1c01365c <n16_beq_test+0x2ffc>
1c01363c:	14c5f6ac 	lu12i.w	$r12,405429(0x62fb5)
1c013640:	02aa018c 	addi.w	$r12,$r12,-1408(0xa80)
1c013644:	14c5f6ad 	lu12i.w	$r13,405429(0x62fb5)
1c013648:	02aa01ad 	addi.w	$r13,$r13,-1408(0xa80)
1c01364c:	5bffe18d 	beq	$r12,$r13,-32(0x3ffe0) # 1c01362c <n16_beq_test+0x2fcc>
1c013650:	50000c00 	b	12(0xc) # 1c01365c <n16_beq_test+0x2ffc>
1c013654:	1420f5eb 	lu12i.w	$r11,67503(0x107af)
1c013658:	0292d16b 	addi.w	$r11,$r11,1204(0x4b4)
1c01365c:	142cd45c 	lu12i.w	$r28,91810(0x166a2)
1c013660:	02ab839c 	addi.w	$r28,$r28,-1312(0xae0)
1c013664:	1420f5fd 	lu12i.w	$r29,67503(0x107af)
1c013668:	0292d3bd 	addi.w	$r29,$r29,1204(0x4b4)
1c01366c:	5c45995c 	bne	$r10,$r28,17816(0x4598) # 1c017c04 <inst_error>
1c013670:	5c45957d 	bne	$r11,$r29,17812(0x4594) # 1c017c04 <inst_error>
1c013674:	15627af0 	lu12i.w	$r16,-322601(0xb13d7)
1c013678:	02b21210 	addi.w	$r16,$r16,-892(0xc84)
1c01367c:	148c9651 	lu12i.w	$r17,287922(0x464b2)
1c013680:	0288e231 	addi.w	$r17,$r17,568(0x238)
1c013684:	1400000a 	lu12i.w	$r10,0
1c013688:	1400000b 	lu12i.w	$r11,0
1c01368c:	50001400 	b	20(0x14) # 1c0136a0 <n16_beq_test+0x3040>
1c013690:	15627aea 	lu12i.w	$r10,-322601(0xb13d7)
1c013694:	02b2114a 	addi.w	$r10,$r10,-892(0xc84)
1c013698:	580021ac 	beq	$r13,$r12,32(0x20) # 1c0136b8 <n16_beq_test+0x3058>
1c01369c:	50002400 	b	36(0x24) # 1c0136c0 <n16_beq_test+0x3060>
1c0136a0:	14ad408c 	lu12i.w	$r12,354820(0x56a04)
1c0136a4:	0288d18c 	addi.w	$r12,$r12,564(0x234)
1c0136a8:	14ad408d 	lu12i.w	$r13,354820(0x56a04)
1c0136ac:	0288d1ad 	addi.w	$r13,$r13,564(0x234)
1c0136b0:	5bffe18d 	beq	$r12,$r13,-32(0x3ffe0) # 1c013690 <n16_beq_test+0x3030>
1c0136b4:	50000c00 	b	12(0xc) # 1c0136c0 <n16_beq_test+0x3060>
1c0136b8:	148c964b 	lu12i.w	$r11,287922(0x464b2)
1c0136bc:	0288e16b 	addi.w	$r11,$r11,568(0x238)
1c0136c0:	15627afc 	lu12i.w	$r28,-322601(0xb13d7)
1c0136c4:	02b2139c 	addi.w	$r28,$r28,-892(0xc84)
1c0136c8:	148c965d 	lu12i.w	$r29,287922(0x464b2)
1c0136cc:	0288e3bd 	addi.w	$r29,$r29,568(0x238)
1c0136d0:	5c45355c 	bne	$r10,$r28,17716(0x4534) # 1c017c04 <inst_error>
1c0136d4:	5c45317d 	bne	$r11,$r29,17712(0x4530) # 1c017c04 <inst_error>
1c0136d8:	15c6e010 	lu12i.w	$r16,-116992(0xe3700)
1c0136dc:	02964a10 	addi.w	$r16,$r16,1426(0x592)
1c0136e0:	1549de11 	lu12i.w	$r17,-373008(0xa4ef0)
1c0136e4:	02943a31 	addi.w	$r17,$r17,1294(0x50e)
1c0136e8:	1400000a 	lu12i.w	$r10,0
1c0136ec:	1400000b 	lu12i.w	$r11,0
1c0136f0:	50001400 	b	20(0x14) # 1c013704 <n16_beq_test+0x30a4>
1c0136f4:	15c6e00a 	lu12i.w	$r10,-116992(0xe3700)
1c0136f8:	0296494a 	addi.w	$r10,$r10,1426(0x592)
1c0136fc:	580021ac 	beq	$r13,$r12,32(0x20) # 1c01371c <n16_beq_test+0x30bc>
1c013700:	50002400 	b	36(0x24) # 1c013724 <n16_beq_test+0x30c4>
1c013704:	15a3922c 	lu12i.w	$r12,-189295(0xd1c91)
1c013708:	0282118c 	addi.w	$r12,$r12,132(0x84)
1c01370c:	15a3922d 	lu12i.w	$r13,-189295(0xd1c91)
1c013710:	028211ad 	addi.w	$r13,$r13,132(0x84)
1c013714:	5bffe18d 	beq	$r12,$r13,-32(0x3ffe0) # 1c0136f4 <n16_beq_test+0x3094>
1c013718:	50000c00 	b	12(0xc) # 1c013724 <n16_beq_test+0x30c4>
1c01371c:	1549de0b 	lu12i.w	$r11,-373008(0xa4ef0)
1c013720:	0294396b 	addi.w	$r11,$r11,1294(0x50e)
1c013724:	15c6e01c 	lu12i.w	$r28,-116992(0xe3700)
1c013728:	02964b9c 	addi.w	$r28,$r28,1426(0x592)
1c01372c:	1549de1d 	lu12i.w	$r29,-373008(0xa4ef0)
1c013730:	02943bbd 	addi.w	$r29,$r29,1294(0x50e)
1c013734:	5c44d15c 	bne	$r10,$r28,17616(0x44d0) # 1c017c04 <inst_error>
1c013738:	5c44cd7d 	bne	$r11,$r29,17612(0x44cc) # 1c017c04 <inst_error>
1c01373c:	15cefe90 	lu12i.w	$r16,-100364(0xe77f4)
1c013740:	02b7c210 	addi.w	$r16,$r16,-528(0xdf0)
1c013744:	15250bf1 	lu12i.w	$r17,-448417(0x9285f)
1c013748:	0286d231 	addi.w	$r17,$r17,436(0x1b4)
1c01374c:	1400000a 	lu12i.w	$r10,0
1c013750:	1400000b 	lu12i.w	$r11,0
1c013754:	50001400 	b	20(0x14) # 1c013768 <n16_beq_test+0x3108>
1c013758:	15cefe8a 	lu12i.w	$r10,-100364(0xe77f4)
1c01375c:	02b7c14a 	addi.w	$r10,$r10,-528(0xdf0)
1c013760:	580021ac 	beq	$r13,$r12,32(0x20) # 1c013780 <n16_beq_test+0x3120>
1c013764:	50002400 	b	36(0x24) # 1c013788 <n16_beq_test+0x3128>
1c013768:	1528448c 	lu12i.w	$r12,-441820(0x94224)
1c01376c:	02bc918c 	addi.w	$r12,$r12,-220(0xf24)
1c013770:	1528448d 	lu12i.w	$r13,-441820(0x94224)
1c013774:	02bc91ad 	addi.w	$r13,$r13,-220(0xf24)
1c013778:	5bffe18d 	beq	$r12,$r13,-32(0x3ffe0) # 1c013758 <n16_beq_test+0x30f8>
1c01377c:	50000c00 	b	12(0xc) # 1c013788 <n16_beq_test+0x3128>
1c013780:	15250beb 	lu12i.w	$r11,-448417(0x9285f)
1c013784:	0286d16b 	addi.w	$r11,$r11,436(0x1b4)
1c013788:	15cefe9c 	lu12i.w	$r28,-100364(0xe77f4)
1c01378c:	02b7c39c 	addi.w	$r28,$r28,-528(0xdf0)
1c013790:	15250bfd 	lu12i.w	$r29,-448417(0x9285f)
1c013794:	0286d3bd 	addi.w	$r29,$r29,436(0x1b4)
1c013798:	5c446d5c 	bne	$r10,$r28,17516(0x446c) # 1c017c04 <inst_error>
1c01379c:	5c44697d 	bne	$r11,$r29,17512(0x4468) # 1c017c04 <inst_error>
1c0137a0:	14181130 	lu12i.w	$r16,49289(0xc089)
1c0137a4:	0298c210 	addi.w	$r16,$r16,1584(0x630)
1c0137a8:	14e43491 	lu12i.w	$r17,467364(0x721a4)
1c0137ac:	02a04231 	addi.w	$r17,$r17,-2032(0x810)
1c0137b0:	1400000a 	lu12i.w	$r10,0
1c0137b4:	1400000b 	lu12i.w	$r11,0
1c0137b8:	50001400 	b	20(0x14) # 1c0137cc <n16_beq_test+0x316c>
1c0137bc:	1418112a 	lu12i.w	$r10,49289(0xc089)
1c0137c0:	0298c14a 	addi.w	$r10,$r10,1584(0x630)
1c0137c4:	580021ac 	beq	$r13,$r12,32(0x20) # 1c0137e4 <n16_beq_test+0x3184>
1c0137c8:	50002400 	b	36(0x24) # 1c0137ec <n16_beq_test+0x318c>
1c0137cc:	142770cc 	lu12i.w	$r12,80774(0x13b86)
1c0137d0:	02b3018c 	addi.w	$r12,$r12,-832(0xcc0)
1c0137d4:	142770cd 	lu12i.w	$r13,80774(0x13b86)
1c0137d8:	02b301ad 	addi.w	$r13,$r13,-832(0xcc0)
1c0137dc:	5bffe18d 	beq	$r12,$r13,-32(0x3ffe0) # 1c0137bc <n16_beq_test+0x315c>
1c0137e0:	50000c00 	b	12(0xc) # 1c0137ec <n16_beq_test+0x318c>
1c0137e4:	14e4348b 	lu12i.w	$r11,467364(0x721a4)
1c0137e8:	02a0416b 	addi.w	$r11,$r11,-2032(0x810)
1c0137ec:	1418113c 	lu12i.w	$r28,49289(0xc089)
1c0137f0:	0298c39c 	addi.w	$r28,$r28,1584(0x630)
1c0137f4:	14e4349d 	lu12i.w	$r29,467364(0x721a4)
1c0137f8:	02a043bd 	addi.w	$r29,$r29,-2032(0x810)
1c0137fc:	5c44095c 	bne	$r10,$r28,17416(0x4408) # 1c017c04 <inst_error>
1c013800:	5c44057d 	bne	$r11,$r29,17412(0x4404) # 1c017c04 <inst_error>
1c013804:	154a6ff0 	lu12i.w	$r16,-371841(0xa537f)
1c013808:	02a02e10 	addi.w	$r16,$r16,-2037(0x80b)
1c01380c:	14a7ab31 	lu12i.w	$r17,343385(0x53d59)
1c013810:	0291fa31 	addi.w	$r17,$r17,1150(0x47e)
1c013814:	1400000a 	lu12i.w	$r10,0
1c013818:	1400000b 	lu12i.w	$r11,0
1c01381c:	50001400 	b	20(0x14) # 1c013830 <n16_beq_test+0x31d0>
1c013820:	154a6fea 	lu12i.w	$r10,-371841(0xa537f)
1c013824:	02a02d4a 	addi.w	$r10,$r10,-2037(0x80b)
1c013828:	580021ac 	beq	$r13,$r12,32(0x20) # 1c013848 <n16_beq_test+0x31e8>
1c01382c:	50002400 	b	36(0x24) # 1c013850 <n16_beq_test+0x31f0>
1c013830:	15883b8c 	lu12i.w	$r12,-245284(0xc41dc)
1c013834:	02bd918c 	addi.w	$r12,$r12,-156(0xf64)
1c013838:	15883b8d 	lu12i.w	$r13,-245284(0xc41dc)
1c01383c:	02bd91ad 	addi.w	$r13,$r13,-156(0xf64)
1c013840:	5bffe18d 	beq	$r12,$r13,-32(0x3ffe0) # 1c013820 <n16_beq_test+0x31c0>
1c013844:	50000c00 	b	12(0xc) # 1c013850 <n16_beq_test+0x31f0>
1c013848:	14a7ab2b 	lu12i.w	$r11,343385(0x53d59)
1c01384c:	0291f96b 	addi.w	$r11,$r11,1150(0x47e)
1c013850:	154a6ffc 	lu12i.w	$r28,-371841(0xa537f)
1c013854:	02a02f9c 	addi.w	$r28,$r28,-2037(0x80b)
1c013858:	14a7ab3d 	lu12i.w	$r29,343385(0x53d59)
1c01385c:	0291fbbd 	addi.w	$r29,$r29,1150(0x47e)
1c013860:	5c43a55c 	bne	$r10,$r28,17316(0x43a4) # 1c017c04 <inst_error>
1c013864:	5c43a17d 	bne	$r11,$r29,17312(0x43a0) # 1c017c04 <inst_error>
1c013868:	14b66630 	lu12i.w	$r16,373553(0x5b331)
1c01386c:	02ab9610 	addi.w	$r16,$r16,-1307(0xae5)
1c013870:	145a4af1 	lu12i.w	$r17,184919(0x2d257)
1c013874:	029afa31 	addi.w	$r17,$r17,1726(0x6be)
1c013878:	1400000a 	lu12i.w	$r10,0
1c01387c:	1400000b 	lu12i.w	$r11,0
1c013880:	50001400 	b	20(0x14) # 1c013894 <n16_beq_test+0x3234>
1c013884:	14b6662a 	lu12i.w	$r10,373553(0x5b331)
1c013888:	02ab954a 	addi.w	$r10,$r10,-1307(0xae5)
1c01388c:	580021ac 	beq	$r13,$r12,32(0x20) # 1c0138ac <n16_beq_test+0x324c>
1c013890:	50002400 	b	36(0x24) # 1c0138b4 <n16_beq_test+0x3254>
1c013894:	14c15ecc 	lu12i.w	$r12,396022(0x60af6)
1c013898:	0282018c 	addi.w	$r12,$r12,128(0x80)
1c01389c:	14c15ecd 	lu12i.w	$r13,396022(0x60af6)
1c0138a0:	028201ad 	addi.w	$r13,$r13,128(0x80)
1c0138a4:	5bffe18d 	beq	$r12,$r13,-32(0x3ffe0) # 1c013884 <n16_beq_test+0x3224>
1c0138a8:	50000c00 	b	12(0xc) # 1c0138b4 <n16_beq_test+0x3254>
1c0138ac:	145a4aeb 	lu12i.w	$r11,184919(0x2d257)
1c0138b0:	029af96b 	addi.w	$r11,$r11,1726(0x6be)
1c0138b4:	14b6663c 	lu12i.w	$r28,373553(0x5b331)
1c0138b8:	02ab979c 	addi.w	$r28,$r28,-1307(0xae5)
1c0138bc:	145a4afd 	lu12i.w	$r29,184919(0x2d257)
1c0138c0:	029afbbd 	addi.w	$r29,$r29,1726(0x6be)
1c0138c4:	5c43415c 	bne	$r10,$r28,17216(0x4340) # 1c017c04 <inst_error>
1c0138c8:	5c433d7d 	bne	$r11,$r29,17212(0x433c) # 1c017c04 <inst_error>
1c0138cc:	1478a590 	lu12i.w	$r16,247084(0x3c52c)
1c0138d0:	028d3210 	addi.w	$r16,$r16,844(0x34c)
1c0138d4:	14c42d31 	lu12i.w	$r17,401769(0x62169)
1c0138d8:	02971e31 	addi.w	$r17,$r17,1479(0x5c7)
1c0138dc:	1400000a 	lu12i.w	$r10,0
1c0138e0:	1400000b 	lu12i.w	$r11,0
1c0138e4:	50001400 	b	20(0x14) # 1c0138f8 <n16_beq_test+0x3298>
1c0138e8:	1478a58a 	lu12i.w	$r10,247084(0x3c52c)
1c0138ec:	028d314a 	addi.w	$r10,$r10,844(0x34c)
1c0138f0:	580021ac 	beq	$r13,$r12,32(0x20) # 1c013910 <n16_beq_test+0x32b0>
1c0138f4:	50002400 	b	36(0x24) # 1c013918 <n16_beq_test+0x32b8>
1c0138f8:	150a83ac 	lu12i.w	$r12,-502755(0x8541d)
1c0138fc:	02b4018c 	addi.w	$r12,$r12,-768(0xd00)
1c013900:	150a83ad 	lu12i.w	$r13,-502755(0x8541d)
1c013904:	02b401ad 	addi.w	$r13,$r13,-768(0xd00)
1c013908:	5bffe18d 	beq	$r12,$r13,-32(0x3ffe0) # 1c0138e8 <n16_beq_test+0x3288>
1c01390c:	50000c00 	b	12(0xc) # 1c013918 <n16_beq_test+0x32b8>
1c013910:	14c42d2b 	lu12i.w	$r11,401769(0x62169)
1c013914:	02971d6b 	addi.w	$r11,$r11,1479(0x5c7)
1c013918:	1478a59c 	lu12i.w	$r28,247084(0x3c52c)
1c01391c:	028d339c 	addi.w	$r28,$r28,844(0x34c)
1c013920:	14c42d3d 	lu12i.w	$r29,401769(0x62169)
1c013924:	02971fbd 	addi.w	$r29,$r29,1479(0x5c7)
1c013928:	5c42dd5c 	bne	$r10,$r28,17116(0x42dc) # 1c017c04 <inst_error>
1c01392c:	5c42d97d 	bne	$r11,$r29,17112(0x42d8) # 1c017c04 <inst_error>
1c013930:	143f9d30 	lu12i.w	$r16,130281(0x1fce9)
1c013934:	02890210 	addi.w	$r16,$r16,576(0x240)
1c013938:	15152b11 	lu12i.w	$r17,-480936(0x8a958)
1c01393c:	02920231 	addi.w	$r17,$r17,1152(0x480)
1c013940:	1400000a 	lu12i.w	$r10,0
1c013944:	1400000b 	lu12i.w	$r11,0
1c013948:	50001400 	b	20(0x14) # 1c01395c <n16_beq_test+0x32fc>
1c01394c:	143f9d2a 	lu12i.w	$r10,130281(0x1fce9)
1c013950:	0289014a 	addi.w	$r10,$r10,576(0x240)
1c013954:	580021ac 	beq	$r13,$r12,32(0x20) # 1c013974 <n16_beq_test+0x3314>
1c013958:	50002400 	b	36(0x24) # 1c01397c <n16_beq_test+0x331c>
1c01395c:	1412fe6c 	lu12i.w	$r12,38899(0x97f3)
1c013960:	02aa618c 	addi.w	$r12,$r12,-1384(0xa98)
1c013964:	1412fe6d 	lu12i.w	$r13,38899(0x97f3)
1c013968:	02aa61ad 	addi.w	$r13,$r13,-1384(0xa98)
1c01396c:	5bffe18d 	beq	$r12,$r13,-32(0x3ffe0) # 1c01394c <n16_beq_test+0x32ec>
1c013970:	50000c00 	b	12(0xc) # 1c01397c <n16_beq_test+0x331c>
1c013974:	15152b0b 	lu12i.w	$r11,-480936(0x8a958)
1c013978:	0292016b 	addi.w	$r11,$r11,1152(0x480)
1c01397c:	143f9d3c 	lu12i.w	$r28,130281(0x1fce9)
1c013980:	0289039c 	addi.w	$r28,$r28,576(0x240)
1c013984:	15152b1d 	lu12i.w	$r29,-480936(0x8a958)
1c013988:	029203bd 	addi.w	$r29,$r29,1152(0x480)
1c01398c:	5c42795c 	bne	$r10,$r28,17016(0x4278) # 1c017c04 <inst_error>
1c013990:	5c42757d 	bne	$r11,$r29,17012(0x4274) # 1c017c04 <inst_error>
1c013994:	15179e10 	lu12i.w	$r16,-475920(0x8bcf0)
1c013998:	02b62a10 	addi.w	$r16,$r16,-630(0xd8a)
1c01399c:	150b87d1 	lu12i.w	$r17,-500674(0x85c3e)
1c0139a0:	0298ca31 	addi.w	$r17,$r17,1586(0x632)
1c0139a4:	1400000a 	lu12i.w	$r10,0
1c0139a8:	1400000b 	lu12i.w	$r11,0
1c0139ac:	50001400 	b	20(0x14) # 1c0139c0 <n16_beq_test+0x3360>
1c0139b0:	15179e0a 	lu12i.w	$r10,-475920(0x8bcf0)
1c0139b4:	02b6294a 	addi.w	$r10,$r10,-630(0xd8a)
1c0139b8:	580021ac 	beq	$r13,$r12,32(0x20) # 1c0139d8 <n16_beq_test+0x3378>
1c0139bc:	50002400 	b	36(0x24) # 1c0139e0 <n16_beq_test+0x3380>
1c0139c0:	153064cc 	lu12i.w	$r12,-425178(0x98326)
1c0139c4:	02bda18c 	addi.w	$r12,$r12,-152(0xf68)
1c0139c8:	153064cd 	lu12i.w	$r13,-425178(0x98326)
1c0139cc:	02bda1ad 	addi.w	$r13,$r13,-152(0xf68)
1c0139d0:	5bffe18d 	beq	$r12,$r13,-32(0x3ffe0) # 1c0139b0 <n16_beq_test+0x3350>
1c0139d4:	50000c00 	b	12(0xc) # 1c0139e0 <n16_beq_test+0x3380>
1c0139d8:	150b87cb 	lu12i.w	$r11,-500674(0x85c3e)
1c0139dc:	0298c96b 	addi.w	$r11,$r11,1586(0x632)
1c0139e0:	15179e1c 	lu12i.w	$r28,-475920(0x8bcf0)
1c0139e4:	02b62b9c 	addi.w	$r28,$r28,-630(0xd8a)
1c0139e8:	150b87dd 	lu12i.w	$r29,-500674(0x85c3e)
1c0139ec:	0298cbbd 	addi.w	$r29,$r29,1586(0x632)
1c0139f0:	5c42155c 	bne	$r10,$r28,16916(0x4214) # 1c017c04 <inst_error>
1c0139f4:	5c42117d 	bne	$r11,$r29,16912(0x4210) # 1c017c04 <inst_error>
1c0139f8:	150529d0 	lu12i.w	$r16,-513714(0x8294e)
1c0139fc:	02950210 	addi.w	$r16,$r16,1344(0x540)
1c013a00:	14f16091 	lu12i.w	$r17,494340(0x78b04)
1c013a04:	02878231 	addi.w	$r17,$r17,480(0x1e0)
1c013a08:	1400000a 	lu12i.w	$r10,0
1c013a0c:	1400000b 	lu12i.w	$r11,0
1c013a10:	50001400 	b	20(0x14) # 1c013a24 <n16_beq_test+0x33c4>
1c013a14:	150529ca 	lu12i.w	$r10,-513714(0x8294e)
1c013a18:	0295014a 	addi.w	$r10,$r10,1344(0x540)
1c013a1c:	580021ac 	beq	$r13,$r12,32(0x20) # 1c013a3c <n16_beq_test+0x33dc>
1c013a20:	50002400 	b	36(0x24) # 1c013a44 <n16_beq_test+0x33e4>
1c013a24:	153532cc 	lu12i.w	$r12,-415338(0x9a996)
1c013a28:	0284d18c 	addi.w	$r12,$r12,308(0x134)
1c013a2c:	153532cd 	lu12i.w	$r13,-415338(0x9a996)
1c013a30:	0284d1ad 	addi.w	$r13,$r13,308(0x134)
1c013a34:	5bffe18d 	beq	$r12,$r13,-32(0x3ffe0) # 1c013a14 <n16_beq_test+0x33b4>
1c013a38:	50000c00 	b	12(0xc) # 1c013a44 <n16_beq_test+0x33e4>
1c013a3c:	14f1608b 	lu12i.w	$r11,494340(0x78b04)
1c013a40:	0287816b 	addi.w	$r11,$r11,480(0x1e0)
1c013a44:	150529dc 	lu12i.w	$r28,-513714(0x8294e)
1c013a48:	0295039c 	addi.w	$r28,$r28,1344(0x540)
1c013a4c:	14f1609d 	lu12i.w	$r29,494340(0x78b04)
1c013a50:	028783bd 	addi.w	$r29,$r29,480(0x1e0)
1c013a54:	5c41b15c 	bne	$r10,$r28,16816(0x41b0) # 1c017c04 <inst_error>
1c013a58:	5c41ad7d 	bne	$r11,$r29,16812(0x41ac) # 1c017c04 <inst_error>
1c013a5c:	154792f0 	lu12i.w	$r16,-377705(0xa3c97)
1c013a60:	02ab3210 	addi.w	$r16,$r16,-1332(0xacc)
1c013a64:	140f22f1 	lu12i.w	$r17,30999(0x7917)
1c013a68:	02ba9a31 	addi.w	$r17,$r17,-346(0xea6)
1c013a6c:	1400000a 	lu12i.w	$r10,0
1c013a70:	1400000b 	lu12i.w	$r11,0
1c013a74:	50001400 	b	20(0x14) # 1c013a88 <n16_beq_test+0x3428>
1c013a78:	154792ea 	lu12i.w	$r10,-377705(0xa3c97)
1c013a7c:	02ab314a 	addi.w	$r10,$r10,-1332(0xacc)
1c013a80:	580021ac 	beq	$r13,$r12,32(0x20) # 1c013aa0 <n16_beq_test+0x3440>
1c013a84:	50002400 	b	36(0x24) # 1c013aa8 <n16_beq_test+0x3448>
1c013a88:	15df61cc 	lu12i.w	$r12,-66802(0xefb0e)
1c013a8c:	02b5f18c 	addi.w	$r12,$r12,-644(0xd7c)
1c013a90:	15df61cd 	lu12i.w	$r13,-66802(0xefb0e)
1c013a94:	02b5f1ad 	addi.w	$r13,$r13,-644(0xd7c)
1c013a98:	5bffe18d 	beq	$r12,$r13,-32(0x3ffe0) # 1c013a78 <n16_beq_test+0x3418>
1c013a9c:	50000c00 	b	12(0xc) # 1c013aa8 <n16_beq_test+0x3448>
1c013aa0:	140f22eb 	lu12i.w	$r11,30999(0x7917)
1c013aa4:	02ba996b 	addi.w	$r11,$r11,-346(0xea6)
1c013aa8:	154792fc 	lu12i.w	$r28,-377705(0xa3c97)
1c013aac:	02ab339c 	addi.w	$r28,$r28,-1332(0xacc)
1c013ab0:	140f22fd 	lu12i.w	$r29,30999(0x7917)
1c013ab4:	02ba9bbd 	addi.w	$r29,$r29,-346(0xea6)
1c013ab8:	5c414d5c 	bne	$r10,$r28,16716(0x414c) # 1c017c04 <inst_error>
1c013abc:	5c41497d 	bne	$r11,$r29,16712(0x4148) # 1c017c04 <inst_error>
1c013ac0:	140325d0 	lu12i.w	$r16,6446(0x192e)
1c013ac4:	02b40610 	addi.w	$r16,$r16,-767(0xd01)
1c013ac8:	14955571 	lu12i.w	$r17,305835(0x4aaab)
1c013acc:	02b68231 	addi.w	$r17,$r17,-608(0xda0)
1c013ad0:	1400000a 	lu12i.w	$r10,0
1c013ad4:	1400000b 	lu12i.w	$r11,0
1c013ad8:	50001400 	b	20(0x14) # 1c013aec <n16_beq_test+0x348c>
1c013adc:	140325ca 	lu12i.w	$r10,6446(0x192e)
1c013ae0:	02b4054a 	addi.w	$r10,$r10,-767(0xd01)
1c013ae4:	580021ac 	beq	$r13,$r12,32(0x20) # 1c013b04 <n16_beq_test+0x34a4>
1c013ae8:	50002400 	b	36(0x24) # 1c013b0c <n16_beq_test+0x34ac>
1c013aec:	1550efec 	lu12i.w	$r12,-358529(0xa877f)
1c013af0:	02a8618c 	addi.w	$r12,$r12,-1512(0xa18)
1c013af4:	1550efed 	lu12i.w	$r13,-358529(0xa877f)
1c013af8:	02a861ad 	addi.w	$r13,$r13,-1512(0xa18)
1c013afc:	5bffe18d 	beq	$r12,$r13,-32(0x3ffe0) # 1c013adc <n16_beq_test+0x347c>
1c013b00:	50000c00 	b	12(0xc) # 1c013b0c <n16_beq_test+0x34ac>
1c013b04:	1495556b 	lu12i.w	$r11,305835(0x4aaab)
1c013b08:	02b6816b 	addi.w	$r11,$r11,-608(0xda0)
1c013b0c:	140325dc 	lu12i.w	$r28,6446(0x192e)
1c013b10:	02b4079c 	addi.w	$r28,$r28,-767(0xd01)
1c013b14:	1495557d 	lu12i.w	$r29,305835(0x4aaab)
1c013b18:	02b683bd 	addi.w	$r29,$r29,-608(0xda0)
1c013b1c:	5c40e95c 	bne	$r10,$r28,16616(0x40e8) # 1c017c04 <inst_error>
1c013b20:	5c40e57d 	bne	$r11,$r29,16612(0x40e4) # 1c017c04 <inst_error>
1c013b24:	14daa550 	lu12i.w	$r16,447786(0x6d52a)
1c013b28:	02a54210 	addi.w	$r16,$r16,-1712(0x950)
1c013b2c:	14446e31 	lu12i.w	$r17,140145(0x22371)
1c013b30:	02ba6231 	addi.w	$r17,$r17,-360(0xe98)
1c013b34:	1400000a 	lu12i.w	$r10,0
1c013b38:	1400000b 	lu12i.w	$r11,0
1c013b3c:	50001400 	b	20(0x14) # 1c013b50 <n16_beq_test+0x34f0>
1c013b40:	14daa54a 	lu12i.w	$r10,447786(0x6d52a)
1c013b44:	02a5414a 	addi.w	$r10,$r10,-1712(0x950)
1c013b48:	580021ac 	beq	$r13,$r12,32(0x20) # 1c013b68 <n16_beq_test+0x3508>
1c013b4c:	50002400 	b	36(0x24) # 1c013b70 <n16_beq_test+0x3510>
1c013b50:	1446b6ac 	lu12i.w	$r12,144821(0x235b5)
1c013b54:	02b0458c 	addi.w	$r12,$r12,-1007(0xc11)
1c013b58:	1446b6ad 	lu12i.w	$r13,144821(0x235b5)
1c013b5c:	02b045ad 	addi.w	$r13,$r13,-1007(0xc11)
1c013b60:	5bffe18d 	beq	$r12,$r13,-32(0x3ffe0) # 1c013b40 <n16_beq_test+0x34e0>
1c013b64:	50000c00 	b	12(0xc) # 1c013b70 <n16_beq_test+0x3510>
1c013b68:	14446e2b 	lu12i.w	$r11,140145(0x22371)
1c013b6c:	02ba616b 	addi.w	$r11,$r11,-360(0xe98)
1c013b70:	14daa55c 	lu12i.w	$r28,447786(0x6d52a)
1c013b74:	02a5439c 	addi.w	$r28,$r28,-1712(0x950)
1c013b78:	14446e3d 	lu12i.w	$r29,140145(0x22371)
1c013b7c:	02ba63bd 	addi.w	$r29,$r29,-360(0xe98)
1c013b80:	5c40855c 	bne	$r10,$r28,16516(0x4084) # 1c017c04 <inst_error>
1c013b84:	5c40817d 	bne	$r11,$r29,16512(0x4080) # 1c017c04 <inst_error>
1c013b88:	1435c8b0 	lu12i.w	$r16,110149(0x1ae45)
1c013b8c:	029d8210 	addi.w	$r16,$r16,1888(0x760)
1c013b90:	14953cd1 	lu12i.w	$r17,305638(0x4a9e6)
1c013b94:	02ab3a31 	addi.w	$r17,$r17,-1330(0xace)
1c013b98:	1400000a 	lu12i.w	$r10,0
1c013b9c:	1400000b 	lu12i.w	$r11,0
1c013ba0:	50001400 	b	20(0x14) # 1c013bb4 <n16_beq_test+0x3554>
1c013ba4:	1435c8aa 	lu12i.w	$r10,110149(0x1ae45)
1c013ba8:	029d814a 	addi.w	$r10,$r10,1888(0x760)
1c013bac:	580021ac 	beq	$r13,$r12,32(0x20) # 1c013bcc <n16_beq_test+0x356c>
1c013bb0:	50002400 	b	36(0x24) # 1c013bd4 <n16_beq_test+0x3574>
1c013bb4:	15f62eec 	lu12i.w	$r12,-20105(0xfb177)
1c013bb8:	0299618c 	addi.w	$r12,$r12,1624(0x658)
1c013bbc:	15f62eed 	lu12i.w	$r13,-20105(0xfb177)
1c013bc0:	029961ad 	addi.w	$r13,$r13,1624(0x658)
1c013bc4:	5bffe18d 	beq	$r12,$r13,-32(0x3ffe0) # 1c013ba4 <n16_beq_test+0x3544>
1c013bc8:	50000c00 	b	12(0xc) # 1c013bd4 <n16_beq_test+0x3574>
1c013bcc:	14953ccb 	lu12i.w	$r11,305638(0x4a9e6)
1c013bd0:	02ab396b 	addi.w	$r11,$r11,-1330(0xace)
1c013bd4:	1435c8bc 	lu12i.w	$r28,110149(0x1ae45)
1c013bd8:	029d839c 	addi.w	$r28,$r28,1888(0x760)
1c013bdc:	14953cdd 	lu12i.w	$r29,305638(0x4a9e6)
1c013be0:	02ab3bbd 	addi.w	$r29,$r29,-1330(0xace)
1c013be4:	5c40215c 	bne	$r10,$r28,16416(0x4020) # 1c017c04 <inst_error>
1c013be8:	5c401d7d 	bne	$r11,$r29,16412(0x401c) # 1c017c04 <inst_error>
1c013bec:	142be150 	lu12i.w	$r16,89866(0x15f0a)
1c013bf0:	029e8210 	addi.w	$r16,$r16,1952(0x7a0)
1c013bf4:	155d5db1 	lu12i.w	$r17,-333075(0xaeaed)
1c013bf8:	02b3b231 	addi.w	$r17,$r17,-788(0xcec)
1c013bfc:	1400000a 	lu12i.w	$r10,0
1c013c00:	1400000b 	lu12i.w	$r11,0
1c013c04:	50001400 	b	20(0x14) # 1c013c18 <n16_beq_test+0x35b8>
1c013c08:	142be14a 	lu12i.w	$r10,89866(0x15f0a)
1c013c0c:	029e814a 	addi.w	$r10,$r10,1952(0x7a0)
1c013c10:	580021ac 	beq	$r13,$r12,32(0x20) # 1c013c30 <n16_beq_test+0x35d0>
1c013c14:	50002400 	b	36(0x24) # 1c013c38 <n16_beq_test+0x35d8>
1c013c18:	151fae2c 	lu12i.w	$r12,-459407(0x8fd71)
1c013c1c:	02a1018c 	addi.w	$r12,$r12,-1984(0x840)
1c013c20:	151fae2d 	lu12i.w	$r13,-459407(0x8fd71)
1c013c24:	02a101ad 	addi.w	$r13,$r13,-1984(0x840)
1c013c28:	5bffe18d 	beq	$r12,$r13,-32(0x3ffe0) # 1c013c08 <n16_beq_test+0x35a8>
1c013c2c:	50000c00 	b	12(0xc) # 1c013c38 <n16_beq_test+0x35d8>
1c013c30:	155d5dab 	lu12i.w	$r11,-333075(0xaeaed)
1c013c34:	02b3b16b 	addi.w	$r11,$r11,-788(0xcec)
1c013c38:	142be15c 	lu12i.w	$r28,89866(0x15f0a)
1c013c3c:	029e839c 	addi.w	$r28,$r28,1952(0x7a0)
1c013c40:	155d5dbd 	lu12i.w	$r29,-333075(0xaeaed)
1c013c44:	02b3b3bd 	addi.w	$r29,$r29,-788(0xcec)
1c013c48:	5c3fbd5c 	bne	$r10,$r28,16316(0x3fbc) # 1c017c04 <inst_error>
1c013c4c:	5c3fb97d 	bne	$r11,$r29,16312(0x3fb8) # 1c017c04 <inst_error>
1c013c50:	15e2ed10 	lu12i.w	$r16,-59544(0xf1768)
1c013c54:	0281fa10 	addi.w	$r16,$r16,126(0x7e)
1c013c58:	14b5d251 	lu12i.w	$r17,372370(0x5ae92)
1c013c5c:	02bdf231 	addi.w	$r17,$r17,-132(0xf7c)
1c013c60:	1400000a 	lu12i.w	$r10,0
1c013c64:	1400000b 	lu12i.w	$r11,0
1c013c68:	50001400 	b	20(0x14) # 1c013c7c <n16_beq_test+0x361c>
1c013c6c:	15e2ed0a 	lu12i.w	$r10,-59544(0xf1768)
1c013c70:	0281f94a 	addi.w	$r10,$r10,126(0x7e)
1c013c74:	580021ac 	beq	$r13,$r12,32(0x20) # 1c013c94 <n16_beq_test+0x3634>
1c013c78:	50002400 	b	36(0x24) # 1c013c9c <n16_beq_test+0x363c>
1c013c7c:	15bf352c 	lu12i.w	$r12,-132695(0xdf9a9)
1c013c80:	02a9698c 	addi.w	$r12,$r12,-1446(0xa5a)
1c013c84:	15bf352d 	lu12i.w	$r13,-132695(0xdf9a9)
1c013c88:	02a969ad 	addi.w	$r13,$r13,-1446(0xa5a)
1c013c8c:	5bffe18d 	beq	$r12,$r13,-32(0x3ffe0) # 1c013c6c <n16_beq_test+0x360c>
1c013c90:	50000c00 	b	12(0xc) # 1c013c9c <n16_beq_test+0x363c>
1c013c94:	14b5d24b 	lu12i.w	$r11,372370(0x5ae92)
1c013c98:	02bdf16b 	addi.w	$r11,$r11,-132(0xf7c)
1c013c9c:	15e2ed1c 	lu12i.w	$r28,-59544(0xf1768)
1c013ca0:	0281fb9c 	addi.w	$r28,$r28,126(0x7e)
1c013ca4:	14b5d25d 	lu12i.w	$r29,372370(0x5ae92)
1c013ca8:	02bdf3bd 	addi.w	$r29,$r29,-132(0xf7c)
1c013cac:	5c3f595c 	bne	$r10,$r28,16216(0x3f58) # 1c017c04 <inst_error>
1c013cb0:	5c3f557d 	bne	$r11,$r29,16212(0x3f54) # 1c017c04 <inst_error>
1c013cb4:	15982d50 	lu12i.w	$r16,-212630(0xcc16a)
1c013cb8:	02a1a610 	addi.w	$r16,$r16,-1943(0x869)
1c013cbc:	1538e591 	lu12i.w	$r17,-407764(0x9c72c)
1c013cc0:	02b65a31 	addi.w	$r17,$r17,-618(0xd96)
1c013cc4:	1400000a 	lu12i.w	$r10,0
1c013cc8:	1400000b 	lu12i.w	$r11,0
1c013ccc:	50001400 	b	20(0x14) # 1c013ce0 <n16_beq_test+0x3680>
1c013cd0:	15982d4a 	lu12i.w	$r10,-212630(0xcc16a)
1c013cd4:	02a1a54a 	addi.w	$r10,$r10,-1943(0x869)
1c013cd8:	580021ac 	beq	$r13,$r12,32(0x20) # 1c013cf8 <n16_beq_test+0x3698>
1c013cdc:	50002400 	b	36(0x24) # 1c013d00 <n16_beq_test+0x36a0>
1c013ce0:	159b8ccc 	lu12i.w	$r12,-205722(0xcdc66)
1c013ce4:	0295f18c 	addi.w	$r12,$r12,1404(0x57c)
1c013ce8:	159b8ccd 	lu12i.w	$r13,-205722(0xcdc66)
1c013cec:	0295f1ad 	addi.w	$r13,$r13,1404(0x57c)
1c013cf0:	5bffe18d 	beq	$r12,$r13,-32(0x3ffe0) # 1c013cd0 <n16_beq_test+0x3670>
1c013cf4:	50000c00 	b	12(0xc) # 1c013d00 <n16_beq_test+0x36a0>
1c013cf8:	1538e58b 	lu12i.w	$r11,-407764(0x9c72c)
1c013cfc:	02b6596b 	addi.w	$r11,$r11,-618(0xd96)
1c013d00:	15982d5c 	lu12i.w	$r28,-212630(0xcc16a)
1c013d04:	02a1a79c 	addi.w	$r28,$r28,-1943(0x869)
1c013d08:	1538e59d 	lu12i.w	$r29,-407764(0x9c72c)
1c013d0c:	02b65bbd 	addi.w	$r29,$r29,-618(0xd96)
1c013d10:	5c3ef55c 	bne	$r10,$r28,16116(0x3ef4) # 1c017c04 <inst_error>
1c013d14:	5c3ef17d 	bne	$r11,$r29,16112(0x3ef0) # 1c017c04 <inst_error>
1c013d18:	14fa00b0 	lu12i.w	$r16,512005(0x7d005)
1c013d1c:	028a1210 	addi.w	$r16,$r16,644(0x284)
1c013d20:	15a3d2b1 	lu12i.w	$r17,-188779(0xd1e95)
1c013d24:	02803231 	addi.w	$r17,$r17,12(0xc)
1c013d28:	1400000a 	lu12i.w	$r10,0
1c013d2c:	1400000b 	lu12i.w	$r11,0
1c013d30:	50001400 	b	20(0x14) # 1c013d44 <n16_beq_test+0x36e4>
1c013d34:	14fa00aa 	lu12i.w	$r10,512005(0x7d005)
1c013d38:	028a114a 	addi.w	$r10,$r10,644(0x284)
1c013d3c:	580021ac 	beq	$r13,$r12,32(0x20) # 1c013d5c <n16_beq_test+0x36fc>
1c013d40:	50002400 	b	36(0x24) # 1c013d64 <n16_beq_test+0x3704>
1c013d44:	15e2df2c 	lu12i.w	$r12,-59655(0xf16f9)
1c013d48:	02ab118c 	addi.w	$r12,$r12,-1340(0xac4)
1c013d4c:	15e2df2d 	lu12i.w	$r13,-59655(0xf16f9)
1c013d50:	02ab11ad 	addi.w	$r13,$r13,-1340(0xac4)
1c013d54:	5bffe18d 	beq	$r12,$r13,-32(0x3ffe0) # 1c013d34 <n16_beq_test+0x36d4>
1c013d58:	50000c00 	b	12(0xc) # 1c013d64 <n16_beq_test+0x3704>
1c013d5c:	15a3d2ab 	lu12i.w	$r11,-188779(0xd1e95)
1c013d60:	0280316b 	addi.w	$r11,$r11,12(0xc)
1c013d64:	14fa00bc 	lu12i.w	$r28,512005(0x7d005)
1c013d68:	028a139c 	addi.w	$r28,$r28,644(0x284)
1c013d6c:	15a3d2bd 	lu12i.w	$r29,-188779(0xd1e95)
1c013d70:	028033bd 	addi.w	$r29,$r29,12(0xc)
1c013d74:	5c3e915c 	bne	$r10,$r28,16016(0x3e90) # 1c017c04 <inst_error>
1c013d78:	5c3e8d7d 	bne	$r11,$r29,16012(0x3e8c) # 1c017c04 <inst_error>
1c013d7c:	1499f430 	lu12i.w	$r16,315297(0x4cfa1)
1c013d80:	02bb6a10 	addi.w	$r16,$r16,-294(0xeda)
1c013d84:	146984f1 	lu12i.w	$r17,216103(0x34c27)
1c013d88:	028e4231 	addi.w	$r17,$r17,912(0x390)
1c013d8c:	1400000a 	lu12i.w	$r10,0
1c013d90:	1400000b 	lu12i.w	$r11,0
1c013d94:	50001400 	b	20(0x14) # 1c013da8 <n16_beq_test+0x3748>
1c013d98:	1499f42a 	lu12i.w	$r10,315297(0x4cfa1)
1c013d9c:	02bb694a 	addi.w	$r10,$r10,-294(0xeda)
1c013da0:	580021ac 	beq	$r13,$r12,32(0x20) # 1c013dc0 <n16_beq_test+0x3760>
1c013da4:	50002400 	b	36(0x24) # 1c013dc8 <n16_beq_test+0x3768>
1c013da8:	1449870c 	lu12i.w	$r12,150584(0x24c38)
1c013dac:	02b9e18c 	addi.w	$r12,$r12,-392(0xe78)
1c013db0:	1449870d 	lu12i.w	$r13,150584(0x24c38)
1c013db4:	02b9e1ad 	addi.w	$r13,$r13,-392(0xe78)
1c013db8:	5bffe18d 	beq	$r12,$r13,-32(0x3ffe0) # 1c013d98 <n16_beq_test+0x3738>
1c013dbc:	50000c00 	b	12(0xc) # 1c013dc8 <n16_beq_test+0x3768>
1c013dc0:	146984eb 	lu12i.w	$r11,216103(0x34c27)
1c013dc4:	028e416b 	addi.w	$r11,$r11,912(0x390)
1c013dc8:	1499f43c 	lu12i.w	$r28,315297(0x4cfa1)
1c013dcc:	02bb6b9c 	addi.w	$r28,$r28,-294(0xeda)
1c013dd0:	146984fd 	lu12i.w	$r29,216103(0x34c27)
1c013dd4:	028e43bd 	addi.w	$r29,$r29,912(0x390)
1c013dd8:	5c3e2d5c 	bne	$r10,$r28,15916(0x3e2c) # 1c017c04 <inst_error>
1c013ddc:	5c3e297d 	bne	$r11,$r29,15912(0x3e28) # 1c017c04 <inst_error>
1c013de0:	148a1d10 	lu12i.w	$r16,282856(0x450e8)
1c013de4:	02b03210 	addi.w	$r16,$r16,-1012(0xc0c)
1c013de8:	14c73a31 	lu12i.w	$r17,408017(0x639d1)
1c013dec:	02bbe231 	addi.w	$r17,$r17,-264(0xef8)
1c013df0:	1400000a 	lu12i.w	$r10,0
1c013df4:	1400000b 	lu12i.w	$r11,0
1c013df8:	50001400 	b	20(0x14) # 1c013e0c <n16_beq_test+0x37ac>
1c013dfc:	148a1d0a 	lu12i.w	$r10,282856(0x450e8)
1c013e00:	02b0314a 	addi.w	$r10,$r10,-1012(0xc0c)
1c013e04:	580021ac 	beq	$r13,$r12,32(0x20) # 1c013e24 <n16_beq_test+0x37c4>
1c013e08:	50002400 	b	36(0x24) # 1c013e2c <n16_beq_test+0x37cc>
1c013e0c:	1556700c 	lu12i.w	$r12,-347264(0xab380)
1c013e10:	02b7b18c 	addi.w	$r12,$r12,-532(0xdec)
1c013e14:	1556700d 	lu12i.w	$r13,-347264(0xab380)
1c013e18:	02b7b1ad 	addi.w	$r13,$r13,-532(0xdec)
1c013e1c:	5bffe18d 	beq	$r12,$r13,-32(0x3ffe0) # 1c013dfc <n16_beq_test+0x379c>
1c013e20:	50000c00 	b	12(0xc) # 1c013e2c <n16_beq_test+0x37cc>
1c013e24:	14c73a2b 	lu12i.w	$r11,408017(0x639d1)
1c013e28:	02bbe16b 	addi.w	$r11,$r11,-264(0xef8)
1c013e2c:	148a1d1c 	lu12i.w	$r28,282856(0x450e8)
1c013e30:	02b0339c 	addi.w	$r28,$r28,-1012(0xc0c)
1c013e34:	14c73a3d 	lu12i.w	$r29,408017(0x639d1)
1c013e38:	02bbe3bd 	addi.w	$r29,$r29,-264(0xef8)
1c013e3c:	5c3dc95c 	bne	$r10,$r28,15816(0x3dc8) # 1c017c04 <inst_error>
1c013e40:	5c3dc57d 	bne	$r11,$r29,15812(0x3dc4) # 1c017c04 <inst_error>
1c013e44:	14b64d50 	lu12i.w	$r16,373354(0x5b26a)
1c013e48:	02bde210 	addi.w	$r16,$r16,-136(0xf78)
1c013e4c:	15812a71 	lu12i.w	$r17,-259757(0xc0953)
1c013e50:	02aa0231 	addi.w	$r17,$r17,-1408(0xa80)
1c013e54:	1400000a 	lu12i.w	$r10,0
1c013e58:	1400000b 	lu12i.w	$r11,0
1c013e5c:	50001400 	b	20(0x14) # 1c013e70 <n16_beq_test+0x3810>
1c013e60:	14b64d4a 	lu12i.w	$r10,373354(0x5b26a)
1c013e64:	02bde14a 	addi.w	$r10,$r10,-136(0xf78)
1c013e68:	580021ac 	beq	$r13,$r12,32(0x20) # 1c013e88 <n16_beq_test+0x3828>
1c013e6c:	50002400 	b	36(0x24) # 1c013e90 <n16_beq_test+0x3830>
1c013e70:	1446b08c 	lu12i.w	$r12,144772(0x23584)
1c013e74:	028f018c 	addi.w	$r12,$r12,960(0x3c0)
1c013e78:	1446b08d 	lu12i.w	$r13,144772(0x23584)
1c013e7c:	028f01ad 	addi.w	$r13,$r13,960(0x3c0)
1c013e80:	5bffe18d 	beq	$r12,$r13,-32(0x3ffe0) # 1c013e60 <n16_beq_test+0x3800>
1c013e84:	50000c00 	b	12(0xc) # 1c013e90 <n16_beq_test+0x3830>
1c013e88:	15812a6b 	lu12i.w	$r11,-259757(0xc0953)
1c013e8c:	02aa016b 	addi.w	$r11,$r11,-1408(0xa80)
1c013e90:	14b64d5c 	lu12i.w	$r28,373354(0x5b26a)
1c013e94:	02bde39c 	addi.w	$r28,$r28,-136(0xf78)
1c013e98:	15812a7d 	lu12i.w	$r29,-259757(0xc0953)
1c013e9c:	02aa03bd 	addi.w	$r29,$r29,-1408(0xa80)
1c013ea0:	5c3d655c 	bne	$r10,$r28,15716(0x3d64) # 1c017c04 <inst_error>
1c013ea4:	5c3d617d 	bne	$r11,$r29,15712(0x3d60) # 1c017c04 <inst_error>
1c013ea8:	148e8190 	lu12i.w	$r16,291852(0x4740c)
1c013eac:	02adfa10 	addi.w	$r16,$r16,-1154(0xb7e)
1c013eb0:	153d5031 	lu12i.w	$r17,-398719(0x9ea81)
1c013eb4:	02b14231 	addi.w	$r17,$r17,-944(0xc50)
1c013eb8:	1400000a 	lu12i.w	$r10,0
1c013ebc:	1400000b 	lu12i.w	$r11,0
1c013ec0:	50001400 	b	20(0x14) # 1c013ed4 <n16_beq_test+0x3874>
1c013ec4:	148e818a 	lu12i.w	$r10,291852(0x4740c)
1c013ec8:	02adf94a 	addi.w	$r10,$r10,-1154(0xb7e)
1c013ecc:	580021ac 	beq	$r13,$r12,32(0x20) # 1c013eec <n16_beq_test+0x388c>
1c013ed0:	50002400 	b	36(0x24) # 1c013ef4 <n16_beq_test+0x3894>
1c013ed4:	143febac 	lu12i.w	$r12,130909(0x1ff5d)
1c013ed8:	0291798c 	addi.w	$r12,$r12,1118(0x45e)
1c013edc:	143febad 	lu12i.w	$r13,130909(0x1ff5d)
1c013ee0:	029179ad 	addi.w	$r13,$r13,1118(0x45e)
1c013ee4:	5bffe18d 	beq	$r12,$r13,-32(0x3ffe0) # 1c013ec4 <n16_beq_test+0x3864>
1c013ee8:	50000c00 	b	12(0xc) # 1c013ef4 <n16_beq_test+0x3894>
1c013eec:	153d502b 	lu12i.w	$r11,-398719(0x9ea81)
1c013ef0:	02b1416b 	addi.w	$r11,$r11,-944(0xc50)
1c013ef4:	148e819c 	lu12i.w	$r28,291852(0x4740c)
1c013ef8:	02adfb9c 	addi.w	$r28,$r28,-1154(0xb7e)
1c013efc:	153d503d 	lu12i.w	$r29,-398719(0x9ea81)
1c013f00:	02b143bd 	addi.w	$r29,$r29,-944(0xc50)
1c013f04:	5c3d015c 	bne	$r10,$r28,15616(0x3d00) # 1c017c04 <inst_error>
1c013f08:	5c3cfd7d 	bne	$r11,$r29,15612(0x3cfc) # 1c017c04 <inst_error>
1c013f0c:	153ac0d0 	lu12i.w	$r16,-403962(0x9d606)
1c013f10:	029af210 	addi.w	$r16,$r16,1724(0x6bc)
1c013f14:	156b20b1 	lu12i.w	$r17,-304891(0xb5905)
1c013f18:	02974231 	addi.w	$r17,$r17,1488(0x5d0)
1c013f1c:	1400000a 	lu12i.w	$r10,0
1c013f20:	1400000b 	lu12i.w	$r11,0
1c013f24:	50001400 	b	20(0x14) # 1c013f38 <n16_beq_test+0x38d8>
1c013f28:	153ac0ca 	lu12i.w	$r10,-403962(0x9d606)
1c013f2c:	029af14a 	addi.w	$r10,$r10,1724(0x6bc)
1c013f30:	580021ac 	beq	$r13,$r12,32(0x20) # 1c013f50 <n16_beq_test+0x38f0>
1c013f34:	50002400 	b	36(0x24) # 1c013f58 <n16_beq_test+0x38f8>
1c013f38:	15dfc20c 	lu12i.w	$r12,-66032(0xefe10)
1c013f3c:	028f018c 	addi.w	$r12,$r12,960(0x3c0)
1c013f40:	15dfc20d 	lu12i.w	$r13,-66032(0xefe10)
1c013f44:	028f01ad 	addi.w	$r13,$r13,960(0x3c0)
1c013f48:	5bffe18d 	beq	$r12,$r13,-32(0x3ffe0) # 1c013f28 <n16_beq_test+0x38c8>
1c013f4c:	50000c00 	b	12(0xc) # 1c013f58 <n16_beq_test+0x38f8>
1c013f50:	156b20ab 	lu12i.w	$r11,-304891(0xb5905)
1c013f54:	0297416b 	addi.w	$r11,$r11,1488(0x5d0)
1c013f58:	153ac0dc 	lu12i.w	$r28,-403962(0x9d606)
1c013f5c:	029af39c 	addi.w	$r28,$r28,1724(0x6bc)
1c013f60:	156b20bd 	lu12i.w	$r29,-304891(0xb5905)
1c013f64:	029743bd 	addi.w	$r29,$r29,1488(0x5d0)
1c013f68:	5c3c9d5c 	bne	$r10,$r28,15516(0x3c9c) # 1c017c04 <inst_error>
1c013f6c:	5c3c997d 	bne	$r11,$r29,15512(0x3c98) # 1c017c04 <inst_error>
1c013f70:	151c1a30 	lu12i.w	$r16,-466735(0x8e0d1)
1c013f74:	02baaa10 	addi.w	$r16,$r16,-342(0xeaa)
1c013f78:	15524e11 	lu12i.w	$r17,-355728(0xa9270)
1c013f7c:	02ba0231 	addi.w	$r17,$r17,-384(0xe80)
1c013f80:	1400000a 	lu12i.w	$r10,0
1c013f84:	1400000b 	lu12i.w	$r11,0
1c013f88:	50001400 	b	20(0x14) # 1c013f9c <n16_beq_test+0x393c>
1c013f8c:	151c1a2a 	lu12i.w	$r10,-466735(0x8e0d1)
1c013f90:	02baa94a 	addi.w	$r10,$r10,-342(0xeaa)
1c013f94:	580021ac 	beq	$r13,$r12,32(0x20) # 1c013fb4 <n16_beq_test+0x3954>
1c013f98:	50002400 	b	36(0x24) # 1c013fbc <n16_beq_test+0x395c>
1c013f9c:	147cfeac 	lu12i.w	$r12,255989(0x3e7f5)
1c013fa0:	02aad18c 	addi.w	$r12,$r12,-1356(0xab4)
1c013fa4:	147cfead 	lu12i.w	$r13,255989(0x3e7f5)
1c013fa8:	02aad1ad 	addi.w	$r13,$r13,-1356(0xab4)
1c013fac:	5bffe18d 	beq	$r12,$r13,-32(0x3ffe0) # 1c013f8c <n16_beq_test+0x392c>
1c013fb0:	50000c00 	b	12(0xc) # 1c013fbc <n16_beq_test+0x395c>
1c013fb4:	15524e0b 	lu12i.w	$r11,-355728(0xa9270)
1c013fb8:	02ba016b 	addi.w	$r11,$r11,-384(0xe80)
1c013fbc:	151c1a3c 	lu12i.w	$r28,-466735(0x8e0d1)
1c013fc0:	02baab9c 	addi.w	$r28,$r28,-342(0xeaa)
1c013fc4:	15524e1d 	lu12i.w	$r29,-355728(0xa9270)
1c013fc8:	02ba03bd 	addi.w	$r29,$r29,-384(0xe80)
1c013fcc:	5c3c395c 	bne	$r10,$r28,15416(0x3c38) # 1c017c04 <inst_error>
1c013fd0:	5c3c357d 	bne	$r11,$r29,15412(0x3c34) # 1c017c04 <inst_error>
1c013fd4:	15d5ea30 	lu12i.w	$r16,-86191(0xeaf51)
1c013fd8:	02889210 	addi.w	$r16,$r16,548(0x224)
1c013fdc:	1530f271 	lu12i.w	$r17,-424045(0x98793)
1c013fe0:	0292f231 	addi.w	$r17,$r17,1212(0x4bc)
1c013fe4:	1400000a 	lu12i.w	$r10,0
1c013fe8:	1400000b 	lu12i.w	$r11,0
1c013fec:	50001400 	b	20(0x14) # 1c014000 <n16_beq_test+0x39a0>
1c013ff0:	15d5ea2a 	lu12i.w	$r10,-86191(0xeaf51)
1c013ff4:	0288914a 	addi.w	$r10,$r10,548(0x224)
1c013ff8:	580021ac 	beq	$r13,$r12,32(0x20) # 1c014018 <n16_beq_test+0x39b8>
1c013ffc:	50002400 	b	36(0x24) # 1c014020 <n16_beq_test+0x39c0>
1c014000:	14138dcc 	lu12i.w	$r12,40046(0x9c6e)
1c014004:	02ab698c 	addi.w	$r12,$r12,-1318(0xada)
1c014008:	14138dcd 	lu12i.w	$r13,40046(0x9c6e)
1c01400c:	02ab69ad 	addi.w	$r13,$r13,-1318(0xada)
1c014010:	5bffe18d 	beq	$r12,$r13,-32(0x3ffe0) # 1c013ff0 <n16_beq_test+0x3990>
1c014014:	50000c00 	b	12(0xc) # 1c014020 <n16_beq_test+0x39c0>
1c014018:	1530f26b 	lu12i.w	$r11,-424045(0x98793)
1c01401c:	0292f16b 	addi.w	$r11,$r11,1212(0x4bc)
1c014020:	15d5ea3c 	lu12i.w	$r28,-86191(0xeaf51)
1c014024:	0288939c 	addi.w	$r28,$r28,548(0x224)
1c014028:	1530f27d 	lu12i.w	$r29,-424045(0x98793)
1c01402c:	0292f3bd 	addi.w	$r29,$r29,1212(0x4bc)
1c014030:	5c3bd55c 	bne	$r10,$r28,15316(0x3bd4) # 1c017c04 <inst_error>
1c014034:	5c3bd17d 	bne	$r11,$r29,15312(0x3bd0) # 1c017c04 <inst_error>
1c014038:	1589b010 	lu12i.w	$r16,-242304(0xc4d80)
1c01403c:	02b50210 	addi.w	$r16,$r16,-704(0xd40)
1c014040:	159d56b1 	lu12i.w	$r17,-202059(0xceab5)
1c014044:	02921231 	addi.w	$r17,$r17,1156(0x484)
1c014048:	1400000a 	lu12i.w	$r10,0
1c01404c:	1400000b 	lu12i.w	$r11,0
1c014050:	50001400 	b	20(0x14) # 1c014064 <n16_beq_test+0x3a04>
1c014054:	1589b00a 	lu12i.w	$r10,-242304(0xc4d80)
1c014058:	02b5014a 	addi.w	$r10,$r10,-704(0xd40)
1c01405c:	580021ac 	beq	$r13,$r12,32(0x20) # 1c01407c <n16_beq_test+0x3a1c>
1c014060:	50002400 	b	36(0x24) # 1c014084 <n16_beq_test+0x3a24>
1c014064:	148af34c 	lu12i.w	$r12,284570(0x4579a)
1c014068:	0298f18c 	addi.w	$r12,$r12,1596(0x63c)
1c01406c:	148af34d 	lu12i.w	$r13,284570(0x4579a)
1c014070:	0298f1ad 	addi.w	$r13,$r13,1596(0x63c)
1c014074:	5bffe18d 	beq	$r12,$r13,-32(0x3ffe0) # 1c014054 <n16_beq_test+0x39f4>
1c014078:	50000c00 	b	12(0xc) # 1c014084 <n16_beq_test+0x3a24>
1c01407c:	159d56ab 	lu12i.w	$r11,-202059(0xceab5)
1c014080:	0292116b 	addi.w	$r11,$r11,1156(0x484)
1c014084:	1589b01c 	lu12i.w	$r28,-242304(0xc4d80)
1c014088:	02b5039c 	addi.w	$r28,$r28,-704(0xd40)
1c01408c:	159d56bd 	lu12i.w	$r29,-202059(0xceab5)
1c014090:	029213bd 	addi.w	$r29,$r29,1156(0x484)
1c014094:	5c3b715c 	bne	$r10,$r28,15216(0x3b70) # 1c017c04 <inst_error>
1c014098:	5c3b6d7d 	bne	$r11,$r29,15212(0x3b6c) # 1c017c04 <inst_error>
1c01409c:	15bd4c90 	lu12i.w	$r16,-136604(0xdea64)
1c0140a0:	02aa8210 	addi.w	$r16,$r16,-1376(0xaa0)
1c0140a4:	15dff991 	lu12i.w	$r17,-65588(0xeffcc)
1c0140a8:	028a3a31 	addi.w	$r17,$r17,654(0x28e)
1c0140ac:	1400000a 	lu12i.w	$r10,0
1c0140b0:	1400000b 	lu12i.w	$r11,0
1c0140b4:	50001400 	b	20(0x14) # 1c0140c8 <n16_beq_test+0x3a68>
1c0140b8:	15bd4c8a 	lu12i.w	$r10,-136604(0xdea64)
1c0140bc:	02aa814a 	addi.w	$r10,$r10,-1376(0xaa0)
1c0140c0:	580021ac 	beq	$r13,$r12,32(0x20) # 1c0140e0 <n16_beq_test+0x3a80>
1c0140c4:	50002400 	b	36(0x24) # 1c0140e8 <n16_beq_test+0x3a88>
1c0140c8:	15d7be8c 	lu12i.w	$r12,-82444(0xebdf4)
1c0140cc:	02afb18c 	addi.w	$r12,$r12,-1044(0xbec)
1c0140d0:	15d7be8d 	lu12i.w	$r13,-82444(0xebdf4)
1c0140d4:	02afb1ad 	addi.w	$r13,$r13,-1044(0xbec)
1c0140d8:	5bffe18d 	beq	$r12,$r13,-32(0x3ffe0) # 1c0140b8 <n16_beq_test+0x3a58>
1c0140dc:	50000c00 	b	12(0xc) # 1c0140e8 <n16_beq_test+0x3a88>
1c0140e0:	15dff98b 	lu12i.w	$r11,-65588(0xeffcc)
1c0140e4:	028a396b 	addi.w	$r11,$r11,654(0x28e)
1c0140e8:	15bd4c9c 	lu12i.w	$r28,-136604(0xdea64)
1c0140ec:	02aa839c 	addi.w	$r28,$r28,-1376(0xaa0)
1c0140f0:	15dff99d 	lu12i.w	$r29,-65588(0xeffcc)
1c0140f4:	028a3bbd 	addi.w	$r29,$r29,654(0x28e)
1c0140f8:	5c3b0d5c 	bne	$r10,$r28,15116(0x3b0c) # 1c017c04 <inst_error>
1c0140fc:	5c3b097d 	bne	$r11,$r29,15112(0x3b08) # 1c017c04 <inst_error>
1c014100:	151bc650 	lu12i.w	$r16,-467406(0x8de32)
1c014104:	0281de10 	addi.w	$r16,$r16,119(0x77)
1c014108:	15a92cb1 	lu12i.w	$r17,-177819(0xd4965)
1c01410c:	02a9f231 	addi.w	$r17,$r17,-1412(0xa7c)
1c014110:	1400000a 	lu12i.w	$r10,0
1c014114:	1400000b 	lu12i.w	$r11,0
1c014118:	50001400 	b	20(0x14) # 1c01412c <n16_beq_test+0x3acc>
1c01411c:	151bc64a 	lu12i.w	$r10,-467406(0x8de32)
1c014120:	0281dd4a 	addi.w	$r10,$r10,119(0x77)
1c014124:	580021ac 	beq	$r13,$r12,32(0x20) # 1c014144 <n16_beq_test+0x3ae4>
1c014128:	50002400 	b	36(0x24) # 1c01414c <n16_beq_test+0x3aec>
1c01412c:	15be6a2c 	lu12i.w	$r12,-134319(0xdf351)
1c014130:	0296318c 	addi.w	$r12,$r12,1420(0x58c)
1c014134:	15be6a2d 	lu12i.w	$r13,-134319(0xdf351)
1c014138:	029631ad 	addi.w	$r13,$r13,1420(0x58c)
1c01413c:	5bffe18d 	beq	$r12,$r13,-32(0x3ffe0) # 1c01411c <n16_beq_test+0x3abc>
1c014140:	50000c00 	b	12(0xc) # 1c01414c <n16_beq_test+0x3aec>
1c014144:	15a92cab 	lu12i.w	$r11,-177819(0xd4965)
1c014148:	02a9f16b 	addi.w	$r11,$r11,-1412(0xa7c)
1c01414c:	151bc65c 	lu12i.w	$r28,-467406(0x8de32)
1c014150:	0281df9c 	addi.w	$r28,$r28,119(0x77)
1c014154:	15a92cbd 	lu12i.w	$r29,-177819(0xd4965)
1c014158:	02a9f3bd 	addi.w	$r29,$r29,-1412(0xa7c)
1c01415c:	5c3aa95c 	bne	$r10,$r28,15016(0x3aa8) # 1c017c04 <inst_error>
1c014160:	5c3aa57d 	bne	$r11,$r29,15012(0x3aa4) # 1c017c04 <inst_error>
1c014164:	14417c30 	lu12i.w	$r16,134113(0x20be1)
1c014168:	02854210 	addi.w	$r16,$r16,336(0x150)
1c01416c:	15903a31 	lu12i.w	$r17,-228911(0xc81d1)
1c014170:	02966a31 	addi.w	$r17,$r17,1434(0x59a)
1c014174:	1400000a 	lu12i.w	$r10,0
1c014178:	1400000b 	lu12i.w	$r11,0
1c01417c:	50001400 	b	20(0x14) # 1c014190 <n16_beq_test+0x3b30>
1c014180:	14417c2a 	lu12i.w	$r10,134113(0x20be1)
1c014184:	0285414a 	addi.w	$r10,$r10,336(0x150)
1c014188:	580021ac 	beq	$r13,$r12,32(0x20) # 1c0141a8 <n16_beq_test+0x3b48>
1c01418c:	50002400 	b	36(0x24) # 1c0141b0 <n16_beq_test+0x3b50>
1c014190:	156de1cc 	lu12i.w	$r12,-299250(0xb6f0e)
1c014194:	0280018c 	addi.w	$r12,$r12,0
1c014198:	156de1cd 	lu12i.w	$r13,-299250(0xb6f0e)
1c01419c:	028001ad 	addi.w	$r13,$r13,0
1c0141a0:	5bffe18d 	beq	$r12,$r13,-32(0x3ffe0) # 1c014180 <n16_beq_test+0x3b20>
1c0141a4:	50000c00 	b	12(0xc) # 1c0141b0 <n16_beq_test+0x3b50>
1c0141a8:	15903a2b 	lu12i.w	$r11,-228911(0xc81d1)
1c0141ac:	0296696b 	addi.w	$r11,$r11,1434(0x59a)
1c0141b0:	14417c3c 	lu12i.w	$r28,134113(0x20be1)
1c0141b4:	0285439c 	addi.w	$r28,$r28,336(0x150)
1c0141b8:	15903a3d 	lu12i.w	$r29,-228911(0xc81d1)
1c0141bc:	02966bbd 	addi.w	$r29,$r29,1434(0x59a)
1c0141c0:	5c3a455c 	bne	$r10,$r28,14916(0x3a44) # 1c017c04 <inst_error>
1c0141c4:	5c3a417d 	bne	$r11,$r29,14912(0x3a40) # 1c017c04 <inst_error>
1c0141c8:	14905a70 	lu12i.w	$r16,295635(0x482d3)
1c0141cc:	029c6210 	addi.w	$r16,$r16,1816(0x718)
1c0141d0:	147b3ef1 	lu12i.w	$r17,252407(0x3d9f7)
1c0141d4:	029ada31 	addi.w	$r17,$r17,1718(0x6b6)
1c0141d8:	1400000a 	lu12i.w	$r10,0
1c0141dc:	1400000b 	lu12i.w	$r11,0
1c0141e0:	50001400 	b	20(0x14) # 1c0141f4 <n16_beq_test+0x3b94>
1c0141e4:	14905a6a 	lu12i.w	$r10,295635(0x482d3)
1c0141e8:	029c614a 	addi.w	$r10,$r10,1816(0x718)
1c0141ec:	580021ac 	beq	$r13,$r12,32(0x20) # 1c01420c <n16_beq_test+0x3bac>
1c0141f0:	50002400 	b	36(0x24) # 1c014214 <n16_beq_test+0x3bb4>
1c0141f4:	140e44ac 	lu12i.w	$r12,29221(0x7225)
1c0141f8:	02b9018c 	addi.w	$r12,$r12,-448(0xe40)
1c0141fc:	140e44ad 	lu12i.w	$r13,29221(0x7225)
1c014200:	02b901ad 	addi.w	$r13,$r13,-448(0xe40)
1c014204:	5bffe18d 	beq	$r12,$r13,-32(0x3ffe0) # 1c0141e4 <n16_beq_test+0x3b84>
1c014208:	50000c00 	b	12(0xc) # 1c014214 <n16_beq_test+0x3bb4>
1c01420c:	147b3eeb 	lu12i.w	$r11,252407(0x3d9f7)
1c014210:	029ad96b 	addi.w	$r11,$r11,1718(0x6b6)
1c014214:	14905a7c 	lu12i.w	$r28,295635(0x482d3)
1c014218:	029c639c 	addi.w	$r28,$r28,1816(0x718)
1c01421c:	147b3efd 	lu12i.w	$r29,252407(0x3d9f7)
1c014220:	029adbbd 	addi.w	$r29,$r29,1718(0x6b6)
1c014224:	5c39e15c 	bne	$r10,$r28,14816(0x39e0) # 1c017c04 <inst_error>
1c014228:	5c39dd7d 	bne	$r11,$r29,14812(0x39dc) # 1c017c04 <inst_error>
1c01422c:	14d54a50 	lu12i.w	$r16,436818(0x6aa52)
1c014230:	0284ce10 	addi.w	$r16,$r16,307(0x133)
1c014234:	145276d1 	lu12i.w	$r17,168886(0x293b6)
1c014238:	02b80231 	addi.w	$r17,$r17,-512(0xe00)
1c01423c:	1400000a 	lu12i.w	$r10,0
1c014240:	1400000b 	lu12i.w	$r11,0
1c014244:	50001400 	b	20(0x14) # 1c014258 <n16_beq_test+0x3bf8>
1c014248:	14d54a4a 	lu12i.w	$r10,436818(0x6aa52)
1c01424c:	0284cd4a 	addi.w	$r10,$r10,307(0x133)
1c014250:	580021ac 	beq	$r13,$r12,32(0x20) # 1c014270 <n16_beq_test+0x3c10>
1c014254:	50002400 	b	36(0x24) # 1c014278 <n16_beq_test+0x3c18>
1c014258:	144b626c 	lu12i.w	$r12,154387(0x25b13)
1c01425c:	0298e18c 	addi.w	$r12,$r12,1592(0x638)
1c014260:	144b626d 	lu12i.w	$r13,154387(0x25b13)
1c014264:	0298e1ad 	addi.w	$r13,$r13,1592(0x638)
1c014268:	5bffe18d 	beq	$r12,$r13,-32(0x3ffe0) # 1c014248 <n16_beq_test+0x3be8>
1c01426c:	50000c00 	b	12(0xc) # 1c014278 <n16_beq_test+0x3c18>
1c014270:	145276cb 	lu12i.w	$r11,168886(0x293b6)
1c014274:	02b8016b 	addi.w	$r11,$r11,-512(0xe00)
1c014278:	14d54a5c 	lu12i.w	$r28,436818(0x6aa52)
1c01427c:	0284cf9c 	addi.w	$r28,$r28,307(0x133)
1c014280:	145276dd 	lu12i.w	$r29,168886(0x293b6)
1c014284:	02b803bd 	addi.w	$r29,$r29,-512(0xe00)
1c014288:	5c397d5c 	bne	$r10,$r28,14716(0x397c) # 1c017c04 <inst_error>
1c01428c:	5c39797d 	bne	$r11,$r29,14712(0x3978) # 1c017c04 <inst_error>
1c014290:	15a0a1f0 	lu12i.w	$r16,-195313(0xd050f)
1c014294:	02a6a210 	addi.w	$r16,$r16,-1624(0x9a8)
1c014298:	14bf65f1 	lu12i.w	$r17,391983(0x5fb2f)
1c01429c:	029cb231 	addi.w	$r17,$r17,1836(0x72c)
1c0142a0:	1400000a 	lu12i.w	$r10,0
1c0142a4:	1400000b 	lu12i.w	$r11,0
1c0142a8:	50001400 	b	20(0x14) # 1c0142bc <n16_beq_test+0x3c5c>
1c0142ac:	15a0a1ea 	lu12i.w	$r10,-195313(0xd050f)
1c0142b0:	02a6a14a 	addi.w	$r10,$r10,-1624(0x9a8)
1c0142b4:	580021ac 	beq	$r13,$r12,32(0x20) # 1c0142d4 <n16_beq_test+0x3c74>
1c0142b8:	50002400 	b	36(0x24) # 1c0142dc <n16_beq_test+0x3c7c>
1c0142bc:	15dd224c 	lu12i.w	$r12,-71406(0xee912)
1c0142c0:	02bb318c 	addi.w	$r12,$r12,-308(0xecc)
1c0142c4:	15dd224d 	lu12i.w	$r13,-71406(0xee912)
1c0142c8:	02bb31ad 	addi.w	$r13,$r13,-308(0xecc)
1c0142cc:	5bffe18d 	beq	$r12,$r13,-32(0x3ffe0) # 1c0142ac <n16_beq_test+0x3c4c>
1c0142d0:	50000c00 	b	12(0xc) # 1c0142dc <n16_beq_test+0x3c7c>
1c0142d4:	14bf65eb 	lu12i.w	$r11,391983(0x5fb2f)
1c0142d8:	029cb16b 	addi.w	$r11,$r11,1836(0x72c)
1c0142dc:	15a0a1fc 	lu12i.w	$r28,-195313(0xd050f)
1c0142e0:	02a6a39c 	addi.w	$r28,$r28,-1624(0x9a8)
1c0142e4:	14bf65fd 	lu12i.w	$r29,391983(0x5fb2f)
1c0142e8:	029cb3bd 	addi.w	$r29,$r29,1836(0x72c)
1c0142ec:	5c39195c 	bne	$r10,$r28,14616(0x3918) # 1c017c04 <inst_error>
1c0142f0:	5c39157d 	bne	$r11,$r29,14612(0x3914) # 1c017c04 <inst_error>
1c0142f4:	145ec650 	lu12i.w	$r16,194098(0x2f632)
1c0142f8:	02b23610 	addi.w	$r16,$r16,-883(0xc8d)
1c0142fc:	15200271 	lu12i.w	$r17,-458733(0x90013)
1c014300:	02b81a31 	addi.w	$r17,$r17,-506(0xe06)
1c014304:	1400000a 	lu12i.w	$r10,0
1c014308:	1400000b 	lu12i.w	$r11,0
1c01430c:	50001400 	b	20(0x14) # 1c014320 <n16_beq_test+0x3cc0>
1c014310:	145ec64a 	lu12i.w	$r10,194098(0x2f632)
1c014314:	02b2354a 	addi.w	$r10,$r10,-883(0xc8d)
1c014318:	580021ac 	beq	$r13,$r12,32(0x20) # 1c014338 <n16_beq_test+0x3cd8>
1c01431c:	50002400 	b	36(0x24) # 1c014340 <n16_beq_test+0x3ce0>
1c014320:	14dce0ec 	lu12i.w	$r12,452359(0x6e707)
1c014324:	02bc118c 	addi.w	$r12,$r12,-252(0xf04)
1c014328:	14dce0ed 	lu12i.w	$r13,452359(0x6e707)
1c01432c:	02bc11ad 	addi.w	$r13,$r13,-252(0xf04)
1c014330:	5bffe18d 	beq	$r12,$r13,-32(0x3ffe0) # 1c014310 <n16_beq_test+0x3cb0>
1c014334:	50000c00 	b	12(0xc) # 1c014340 <n16_beq_test+0x3ce0>
1c014338:	1520026b 	lu12i.w	$r11,-458733(0x90013)
1c01433c:	02b8196b 	addi.w	$r11,$r11,-506(0xe06)
1c014340:	145ec65c 	lu12i.w	$r28,194098(0x2f632)
1c014344:	02b2379c 	addi.w	$r28,$r28,-883(0xc8d)
1c014348:	1520027d 	lu12i.w	$r29,-458733(0x90013)
1c01434c:	02b81bbd 	addi.w	$r29,$r29,-506(0xe06)
1c014350:	5c38b55c 	bne	$r10,$r28,14516(0x38b4) # 1c017c04 <inst_error>
1c014354:	5c38b17d 	bne	$r11,$r29,14512(0x38b0) # 1c017c04 <inst_error>
1c014358:	15209d50 	lu12i.w	$r16,-457494(0x904ea)
1c01435c:	02b6d610 	addi.w	$r16,$r16,-587(0xdb5)
1c014360:	14196691 	lu12i.w	$r17,52020(0xcb34)
1c014364:	029e5a31 	addi.w	$r17,$r17,1942(0x796)
1c014368:	1400000a 	lu12i.w	$r10,0
1c01436c:	1400000b 	lu12i.w	$r11,0
1c014370:	50001400 	b	20(0x14) # 1c014384 <n16_beq_test+0x3d24>
1c014374:	15209d4a 	lu12i.w	$r10,-457494(0x904ea)
1c014378:	02b6d54a 	addi.w	$r10,$r10,-587(0xdb5)
1c01437c:	580021ac 	beq	$r13,$r12,32(0x20) # 1c01439c <n16_beq_test+0x3d3c>
1c014380:	50002400 	b	36(0x24) # 1c0143a4 <n16_beq_test+0x3d44>
1c014384:	14e2c18c 	lu12i.w	$r12,464396(0x7160c)
1c014388:	028e618c 	addi.w	$r12,$r12,920(0x398)
1c01438c:	14e2c18d 	lu12i.w	$r13,464396(0x7160c)
1c014390:	028e61ad 	addi.w	$r13,$r13,920(0x398)
1c014394:	5bffe18d 	beq	$r12,$r13,-32(0x3ffe0) # 1c014374 <n16_beq_test+0x3d14>
1c014398:	50000c00 	b	12(0xc) # 1c0143a4 <n16_beq_test+0x3d44>
1c01439c:	1419668b 	lu12i.w	$r11,52020(0xcb34)
1c0143a0:	029e596b 	addi.w	$r11,$r11,1942(0x796)
1c0143a4:	15209d5c 	lu12i.w	$r28,-457494(0x904ea)
1c0143a8:	02b6d79c 	addi.w	$r28,$r28,-587(0xdb5)
1c0143ac:	1419669d 	lu12i.w	$r29,52020(0xcb34)
1c0143b0:	029e5bbd 	addi.w	$r29,$r29,1942(0x796)
1c0143b4:	5c38515c 	bne	$r10,$r28,14416(0x3850) # 1c017c04 <inst_error>
1c0143b8:	5c384d7d 	bne	$r11,$r29,14412(0x384c) # 1c017c04 <inst_error>
1c0143bc:	148a4250 	lu12i.w	$r16,283154(0x45212)
1c0143c0:	0284fa10 	addi.w	$r16,$r16,318(0x13e)
1c0143c4:	147e0471 	lu12i.w	$r17,258083(0x3f023)
1c0143c8:	02bc2231 	addi.w	$r17,$r17,-248(0xf08)
1c0143cc:	1400000a 	lu12i.w	$r10,0
1c0143d0:	1400000b 	lu12i.w	$r11,0
1c0143d4:	50001400 	b	20(0x14) # 1c0143e8 <n16_beq_test+0x3d88>
1c0143d8:	148a424a 	lu12i.w	$r10,283154(0x45212)
1c0143dc:	0284f94a 	addi.w	$r10,$r10,318(0x13e)
1c0143e0:	580021ac 	beq	$r13,$r12,32(0x20) # 1c014400 <n16_beq_test+0x3da0>
1c0143e4:	50002400 	b	36(0x24) # 1c014408 <n16_beq_test+0x3da8>
1c0143e8:	1471e94c 	lu12i.w	$r12,233290(0x38f4a)
1c0143ec:	028d418c 	addi.w	$r12,$r12,848(0x350)
1c0143f0:	1471e94d 	lu12i.w	$r13,233290(0x38f4a)
1c0143f4:	028d41ad 	addi.w	$r13,$r13,848(0x350)
1c0143f8:	5bffe18d 	beq	$r12,$r13,-32(0x3ffe0) # 1c0143d8 <n16_beq_test+0x3d78>
1c0143fc:	50000c00 	b	12(0xc) # 1c014408 <n16_beq_test+0x3da8>
1c014400:	147e046b 	lu12i.w	$r11,258083(0x3f023)
1c014404:	02bc216b 	addi.w	$r11,$r11,-248(0xf08)
1c014408:	148a425c 	lu12i.w	$r28,283154(0x45212)
1c01440c:	0284fb9c 	addi.w	$r28,$r28,318(0x13e)
1c014410:	147e047d 	lu12i.w	$r29,258083(0x3f023)
1c014414:	02bc23bd 	addi.w	$r29,$r29,-248(0xf08)
1c014418:	5c37ed5c 	bne	$r10,$r28,14316(0x37ec) # 1c017c04 <inst_error>
1c01441c:	5c37e97d 	bne	$r11,$r29,14312(0x37e8) # 1c017c04 <inst_error>
1c014420:	15129590 	lu12i.w	$r16,-486228(0x894ac)
1c014424:	02821210 	addi.w	$r16,$r16,132(0x84)
1c014428:	157cb571 	lu12i.w	$r17,-268885(0xbe5ab)
1c01442c:	02b67a31 	addi.w	$r17,$r17,-610(0xd9e)
1c014430:	1400000a 	lu12i.w	$r10,0
1c014434:	1400000b 	lu12i.w	$r11,0
1c014438:	50001400 	b	20(0x14) # 1c01444c <n16_beq_test+0x3dec>
1c01443c:	1512958a 	lu12i.w	$r10,-486228(0x894ac)
1c014440:	0282114a 	addi.w	$r10,$r10,132(0x84)
1c014444:	580021ac 	beq	$r13,$r12,32(0x20) # 1c014464 <n16_beq_test+0x3e04>
1c014448:	50002400 	b	36(0x24) # 1c01446c <n16_beq_test+0x3e0c>
1c01444c:	15401f0c 	lu12i.w	$r12,-392968(0xa00f8)
1c014450:	0284b18c 	addi.w	$r12,$r12,300(0x12c)
1c014454:	15401f0d 	lu12i.w	$r13,-392968(0xa00f8)
1c014458:	0284b1ad 	addi.w	$r13,$r13,300(0x12c)
1c01445c:	5bffe18d 	beq	$r12,$r13,-32(0x3ffe0) # 1c01443c <n16_beq_test+0x3ddc>
1c014460:	50000c00 	b	12(0xc) # 1c01446c <n16_beq_test+0x3e0c>
1c014464:	157cb56b 	lu12i.w	$r11,-268885(0xbe5ab)
1c014468:	02b6796b 	addi.w	$r11,$r11,-610(0xd9e)
1c01446c:	1512959c 	lu12i.w	$r28,-486228(0x894ac)
1c014470:	0282139c 	addi.w	$r28,$r28,132(0x84)
1c014474:	157cb57d 	lu12i.w	$r29,-268885(0xbe5ab)
1c014478:	02b67bbd 	addi.w	$r29,$r29,-610(0xd9e)
1c01447c:	5c37895c 	bne	$r10,$r28,14216(0x3788) # 1c017c04 <inst_error>
1c014480:	5c37857d 	bne	$r11,$r29,14212(0x3784) # 1c017c04 <inst_error>
1c014484:	1545e030 	lu12i.w	$r16,-381183(0xa2f01)
1c014488:	02822210 	addi.w	$r16,$r16,136(0x88)
1c01448c:	143ec891 	lu12i.w	$r17,128580(0x1f644)
1c014490:	0287d231 	addi.w	$r17,$r17,500(0x1f4)
1c014494:	1400000a 	lu12i.w	$r10,0
1c014498:	1400000b 	lu12i.w	$r11,0
1c01449c:	50001400 	b	20(0x14) # 1c0144b0 <n16_beq_test+0x3e50>
1c0144a0:	1545e02a 	lu12i.w	$r10,-381183(0xa2f01)
1c0144a4:	0282214a 	addi.w	$r10,$r10,136(0x88)
1c0144a8:	580021ac 	beq	$r13,$r12,32(0x20) # 1c0144c8 <n16_beq_test+0x3e68>
1c0144ac:	50002400 	b	36(0x24) # 1c0144d0 <n16_beq_test+0x3e70>
1c0144b0:	15ada80c 	lu12i.w	$r12,-168640(0xd6d40)
1c0144b4:	0298318c 	addi.w	$r12,$r12,1548(0x60c)
1c0144b8:	15ada80d 	lu12i.w	$r13,-168640(0xd6d40)
1c0144bc:	029831ad 	addi.w	$r13,$r13,1548(0x60c)
1c0144c0:	5bffe18d 	beq	$r12,$r13,-32(0x3ffe0) # 1c0144a0 <n16_beq_test+0x3e40>
1c0144c4:	50000c00 	b	12(0xc) # 1c0144d0 <n16_beq_test+0x3e70>
1c0144c8:	143ec88b 	lu12i.w	$r11,128580(0x1f644)
1c0144cc:	0287d16b 	addi.w	$r11,$r11,500(0x1f4)
1c0144d0:	1545e03c 	lu12i.w	$r28,-381183(0xa2f01)
1c0144d4:	0282239c 	addi.w	$r28,$r28,136(0x88)
1c0144d8:	143ec89d 	lu12i.w	$r29,128580(0x1f644)
1c0144dc:	0287d3bd 	addi.w	$r29,$r29,500(0x1f4)
1c0144e0:	5c37255c 	bne	$r10,$r28,14116(0x3724) # 1c017c04 <inst_error>
1c0144e4:	5c37217d 	bne	$r11,$r29,14112(0x3720) # 1c017c04 <inst_error>
1c0144e8:	143c6970 	lu12i.w	$r16,123723(0x1e34b)
1c0144ec:	02a45210 	addi.w	$r16,$r16,-1772(0x914)
1c0144f0:	147a7e91 	lu12i.w	$r17,250868(0x3d3f4)
1c0144f4:	02bf4231 	addi.w	$r17,$r17,-48(0xfd0)
1c0144f8:	1400000a 	lu12i.w	$r10,0
1c0144fc:	1400000b 	lu12i.w	$r11,0
1c014500:	50001400 	b	20(0x14) # 1c014514 <n16_beq_test+0x3eb4>
1c014504:	143c696a 	lu12i.w	$r10,123723(0x1e34b)
1c014508:	02a4514a 	addi.w	$r10,$r10,-1772(0x914)
1c01450c:	580021ac 	beq	$r13,$r12,32(0x20) # 1c01452c <n16_beq_test+0x3ecc>
1c014510:	50002400 	b	36(0x24) # 1c014534 <n16_beq_test+0x3ed4>
1c014514:	142928ec 	lu12i.w	$r12,84295(0x14947)
1c014518:	02a4098c 	addi.w	$r12,$r12,-1790(0x902)
1c01451c:	142928ed 	lu12i.w	$r13,84295(0x14947)
1c014520:	02a409ad 	addi.w	$r13,$r13,-1790(0x902)
1c014524:	5bffe18d 	beq	$r12,$r13,-32(0x3ffe0) # 1c014504 <n16_beq_test+0x3ea4>
1c014528:	50000c00 	b	12(0xc) # 1c014534 <n16_beq_test+0x3ed4>
1c01452c:	147a7e8b 	lu12i.w	$r11,250868(0x3d3f4)
1c014530:	02bf416b 	addi.w	$r11,$r11,-48(0xfd0)
1c014534:	143c697c 	lu12i.w	$r28,123723(0x1e34b)
1c014538:	02a4539c 	addi.w	$r28,$r28,-1772(0x914)
1c01453c:	147a7e9d 	lu12i.w	$r29,250868(0x3d3f4)
1c014540:	02bf43bd 	addi.w	$r29,$r29,-48(0xfd0)
1c014544:	5c36c15c 	bne	$r10,$r28,14016(0x36c0) # 1c017c04 <inst_error>
1c014548:	5c36bd7d 	bne	$r11,$r29,14012(0x36bc) # 1c017c04 <inst_error>
1c01454c:	147fc4f0 	lu12i.w	$r16,261671(0x3fe27)
1c014550:	02bd0210 	addi.w	$r16,$r16,-192(0xf40)
1c014554:	147b7b31 	lu12i.w	$r17,252889(0x3dbd9)
1c014558:	0284e231 	addi.w	$r17,$r17,312(0x138)
1c01455c:	1400000a 	lu12i.w	$r10,0
1c014560:	1400000b 	lu12i.w	$r11,0
1c014564:	50001400 	b	20(0x14) # 1c014578 <n16_beq_test+0x3f18>
1c014568:	147fc4ea 	lu12i.w	$r10,261671(0x3fe27)
1c01456c:	02bd014a 	addi.w	$r10,$r10,-192(0xf40)
1c014570:	580021ac 	beq	$r13,$r12,32(0x20) # 1c014590 <n16_beq_test+0x3f30>
1c014574:	50002400 	b	36(0x24) # 1c014598 <n16_beq_test+0x3f38>
1c014578:	15acd12c 	lu12i.w	$r12,-170359(0xd6689)
1c01457c:	028de98c 	addi.w	$r12,$r12,890(0x37a)
1c014580:	15acd12d 	lu12i.w	$r13,-170359(0xd6689)
1c014584:	028de9ad 	addi.w	$r13,$r13,890(0x37a)
1c014588:	5bffe18d 	beq	$r12,$r13,-32(0x3ffe0) # 1c014568 <n16_beq_test+0x3f08>
1c01458c:	50000c00 	b	12(0xc) # 1c014598 <n16_beq_test+0x3f38>
1c014590:	147b7b2b 	lu12i.w	$r11,252889(0x3dbd9)
1c014594:	0284e16b 	addi.w	$r11,$r11,312(0x138)
1c014598:	147fc4fc 	lu12i.w	$r28,261671(0x3fe27)
1c01459c:	02bd039c 	addi.w	$r28,$r28,-192(0xf40)
1c0145a0:	147b7b3d 	lu12i.w	$r29,252889(0x3dbd9)
1c0145a4:	0284e3bd 	addi.w	$r29,$r29,312(0x138)
1c0145a8:	5c365d5c 	bne	$r10,$r28,13916(0x365c) # 1c017c04 <inst_error>
1c0145ac:	5c36597d 	bne	$r11,$r29,13912(0x3658) # 1c017c04 <inst_error>
1c0145b0:	15062af0 	lu12i.w	$r16,-511657(0x83157)
1c0145b4:	029c5210 	addi.w	$r16,$r16,1812(0x714)
1c0145b8:	144ace11 	lu12i.w	$r17,153200(0x25670)
1c0145bc:	02ac2e31 	addi.w	$r17,$r17,-1269(0xb0b)
1c0145c0:	1400000a 	lu12i.w	$r10,0
1c0145c4:	1400000b 	lu12i.w	$r11,0
1c0145c8:	50001400 	b	20(0x14) # 1c0145dc <n16_beq_test+0x3f7c>
1c0145cc:	15062aea 	lu12i.w	$r10,-511657(0x83157)
1c0145d0:	029c514a 	addi.w	$r10,$r10,1812(0x714)
1c0145d4:	580021ac 	beq	$r13,$r12,32(0x20) # 1c0145f4 <n16_beq_test+0x3f94>
1c0145d8:	50002400 	b	36(0x24) # 1c0145fc <n16_beq_test+0x3f9c>
1c0145dc:	1546886c 	lu12i.w	$r12,-379837(0xa3443)
1c0145e0:	029d498c 	addi.w	$r12,$r12,1874(0x752)
1c0145e4:	1546886d 	lu12i.w	$r13,-379837(0xa3443)
1c0145e8:	029d49ad 	addi.w	$r13,$r13,1874(0x752)
1c0145ec:	5bffe18d 	beq	$r12,$r13,-32(0x3ffe0) # 1c0145cc <n16_beq_test+0x3f6c>
1c0145f0:	50000c00 	b	12(0xc) # 1c0145fc <n16_beq_test+0x3f9c>
1c0145f4:	144ace0b 	lu12i.w	$r11,153200(0x25670)
1c0145f8:	02ac2d6b 	addi.w	$r11,$r11,-1269(0xb0b)
1c0145fc:	15062afc 	lu12i.w	$r28,-511657(0x83157)
1c014600:	029c539c 	addi.w	$r28,$r28,1812(0x714)
1c014604:	144ace1d 	lu12i.w	$r29,153200(0x25670)
1c014608:	02ac2fbd 	addi.w	$r29,$r29,-1269(0xb0b)
1c01460c:	5c35f95c 	bne	$r10,$r28,13816(0x35f8) # 1c017c04 <inst_error>
1c014610:	5c35f57d 	bne	$r11,$r29,13812(0x35f4) # 1c017c04 <inst_error>
1c014614:	15c680f0 	lu12i.w	$r16,-117753(0xe3407)
1c014618:	02bfa210 	addi.w	$r16,$r16,-24(0xfe8)
1c01461c:	159ff3b1 	lu12i.w	$r17,-196707(0xcff9d)
1c014620:	02a4c231 	addi.w	$r17,$r17,-1744(0x930)
1c014624:	1400000a 	lu12i.w	$r10,0
1c014628:	1400000b 	lu12i.w	$r11,0
1c01462c:	50001400 	b	20(0x14) # 1c014640 <n16_beq_test+0x3fe0>
1c014630:	15c680ea 	lu12i.w	$r10,-117753(0xe3407)
1c014634:	02bfa14a 	addi.w	$r10,$r10,-24(0xfe8)
1c014638:	580021ac 	beq	$r13,$r12,32(0x20) # 1c014658 <n16_beq_test+0x3ff8>
1c01463c:	50002400 	b	36(0x24) # 1c014660 <n16_beq_test+0x4000>
1c014640:	153368ac 	lu12i.w	$r12,-419003(0x99b45)
1c014644:	0293f98c 	addi.w	$r12,$r12,1278(0x4fe)
1c014648:	153368ad 	lu12i.w	$r13,-419003(0x99b45)
1c01464c:	0293f9ad 	addi.w	$r13,$r13,1278(0x4fe)
1c014650:	5bffe18d 	beq	$r12,$r13,-32(0x3ffe0) # 1c014630 <n16_beq_test+0x3fd0>
1c014654:	50000c00 	b	12(0xc) # 1c014660 <n16_beq_test+0x4000>
1c014658:	159ff3ab 	lu12i.w	$r11,-196707(0xcff9d)
1c01465c:	02a4c16b 	addi.w	$r11,$r11,-1744(0x930)
1c014660:	15c680fc 	lu12i.w	$r28,-117753(0xe3407)
1c014664:	02bfa39c 	addi.w	$r28,$r28,-24(0xfe8)
1c014668:	159ff3bd 	lu12i.w	$r29,-196707(0xcff9d)
1c01466c:	02a4c3bd 	addi.w	$r29,$r29,-1744(0x930)
1c014670:	5c35955c 	bne	$r10,$r28,13716(0x3594) # 1c017c04 <inst_error>
1c014674:	5c35917d 	bne	$r11,$r29,13712(0x3590) # 1c017c04 <inst_error>
1c014678:	15284d90 	lu12i.w	$r16,-441748(0x9426c)
1c01467c:	02ab8a10 	addi.w	$r16,$r16,-1310(0xae2)
1c014680:	15c58151 	lu12i.w	$r17,-119798(0xe2c0a)
1c014684:	02978631 	addi.w	$r17,$r17,1505(0x5e1)
1c014688:	1400000a 	lu12i.w	$r10,0
1c01468c:	1400000b 	lu12i.w	$r11,0
1c014690:	50001400 	b	20(0x14) # 1c0146a4 <n16_beq_test+0x4044>
1c014694:	15284d8a 	lu12i.w	$r10,-441748(0x9426c)
1c014698:	02ab894a 	addi.w	$r10,$r10,-1310(0xae2)
1c01469c:	580021ac 	beq	$r13,$r12,32(0x20) # 1c0146bc <n16_beq_test+0x405c>
1c0146a0:	50002400 	b	36(0x24) # 1c0146c4 <n16_beq_test+0x4064>
1c0146a4:	15823b8c 	lu12i.w	$r12,-257572(0xc11dc)
1c0146a8:	02bbb18c 	addi.w	$r12,$r12,-276(0xeec)
1c0146ac:	15823b8d 	lu12i.w	$r13,-257572(0xc11dc)
1c0146b0:	02bbb1ad 	addi.w	$r13,$r13,-276(0xeec)
1c0146b4:	5bffe18d 	beq	$r12,$r13,-32(0x3ffe0) # 1c014694 <n16_beq_test+0x4034>
1c0146b8:	50000c00 	b	12(0xc) # 1c0146c4 <n16_beq_test+0x4064>
1c0146bc:	15c5814b 	lu12i.w	$r11,-119798(0xe2c0a)
1c0146c0:	0297856b 	addi.w	$r11,$r11,1505(0x5e1)
1c0146c4:	15284d9c 	lu12i.w	$r28,-441748(0x9426c)
1c0146c8:	02ab8b9c 	addi.w	$r28,$r28,-1310(0xae2)
1c0146cc:	15c5815d 	lu12i.w	$r29,-119798(0xe2c0a)
1c0146d0:	029787bd 	addi.w	$r29,$r29,1505(0x5e1)
1c0146d4:	5c35315c 	bne	$r10,$r28,13616(0x3530) # 1c017c04 <inst_error>
1c0146d8:	5c352d7d 	bne	$r11,$r29,13612(0x352c) # 1c017c04 <inst_error>
1c0146dc:	15cd1dd0 	lu12i.w	$r16,-104210(0xe68ee)
1c0146e0:	028dca10 	addi.w	$r16,$r16,882(0x372)
1c0146e4:	15d08b31 	lu12i.w	$r17,-97191(0xe8459)
1c0146e8:	02909231 	addi.w	$r17,$r17,1060(0x424)
1c0146ec:	1400000a 	lu12i.w	$r10,0
1c0146f0:	1400000b 	lu12i.w	$r11,0
1c0146f4:	50001400 	b	20(0x14) # 1c014708 <n16_beq_test+0x40a8>
1c0146f8:	15cd1dca 	lu12i.w	$r10,-104210(0xe68ee)
1c0146fc:	028dc94a 	addi.w	$r10,$r10,882(0x372)
1c014700:	580021ac 	beq	$r13,$r12,32(0x20) # 1c014720 <n16_beq_test+0x40c0>
1c014704:	50002400 	b	36(0x24) # 1c014728 <n16_beq_test+0x40c8>
1c014708:	14da1aac 	lu12i.w	$r12,446677(0x6d0d5)
1c01470c:	029ca18c 	addi.w	$r12,$r12,1832(0x728)
1c014710:	14da1aad 	lu12i.w	$r13,446677(0x6d0d5)
1c014714:	029ca1ad 	addi.w	$r13,$r13,1832(0x728)
1c014718:	5bffe18d 	beq	$r12,$r13,-32(0x3ffe0) # 1c0146f8 <n16_beq_test+0x4098>
1c01471c:	50000c00 	b	12(0xc) # 1c014728 <n16_beq_test+0x40c8>
1c014720:	15d08b2b 	lu12i.w	$r11,-97191(0xe8459)
1c014724:	0290916b 	addi.w	$r11,$r11,1060(0x424)
1c014728:	15cd1ddc 	lu12i.w	$r28,-104210(0xe68ee)
1c01472c:	028dcb9c 	addi.w	$r28,$r28,882(0x372)
1c014730:	15d08b3d 	lu12i.w	$r29,-97191(0xe8459)
1c014734:	029093bd 	addi.w	$r29,$r29,1060(0x424)
1c014738:	5c34cd5c 	bne	$r10,$r28,13516(0x34cc) # 1c017c04 <inst_error>
1c01473c:	5c34c97d 	bne	$r11,$r29,13512(0x34c8) # 1c017c04 <inst_error>
1c014740:	15203e70 	lu12i.w	$r16,-458253(0x901f3)
1c014744:	02adf210 	addi.w	$r16,$r16,-1156(0xb7c)
1c014748:	14b708b1 	lu12i.w	$r17,374853(0x5b845)
1c01474c:	02858231 	addi.w	$r17,$r17,352(0x160)
1c014750:	1400000a 	lu12i.w	$r10,0
1c014754:	1400000b 	lu12i.w	$r11,0
1c014758:	50001400 	b	20(0x14) # 1c01476c <n16_beq_test+0x410c>
1c01475c:	15203e6a 	lu12i.w	$r10,-458253(0x901f3)
1c014760:	02adf14a 	addi.w	$r10,$r10,-1156(0xb7c)
1c014764:	580021ac 	beq	$r13,$r12,32(0x20) # 1c014784 <n16_beq_test+0x4124>
1c014768:	50002400 	b	36(0x24) # 1c01478c <n16_beq_test+0x412c>
1c01476c:	147bc9cc 	lu12i.w	$r12,253518(0x3de4e)
1c014770:	02a1b58c 	addi.w	$r12,$r12,-1939(0x86d)
1c014774:	147bc9cd 	lu12i.w	$r13,253518(0x3de4e)
1c014778:	02a1b5ad 	addi.w	$r13,$r13,-1939(0x86d)
1c01477c:	5bffe18d 	beq	$r12,$r13,-32(0x3ffe0) # 1c01475c <n16_beq_test+0x40fc>
1c014780:	50000c00 	b	12(0xc) # 1c01478c <n16_beq_test+0x412c>
1c014784:	14b708ab 	lu12i.w	$r11,374853(0x5b845)
1c014788:	0285816b 	addi.w	$r11,$r11,352(0x160)
1c01478c:	15203e7c 	lu12i.w	$r28,-458253(0x901f3)
1c014790:	02adf39c 	addi.w	$r28,$r28,-1156(0xb7c)
1c014794:	14b708bd 	lu12i.w	$r29,374853(0x5b845)
1c014798:	028583bd 	addi.w	$r29,$r29,352(0x160)
1c01479c:	5c34695c 	bne	$r10,$r28,13416(0x3468) # 1c017c04 <inst_error>
1c0147a0:	5c34657d 	bne	$r11,$r29,13412(0x3464) # 1c017c04 <inst_error>
1c0147a4:	14fedf30 	lu12i.w	$r16,521977(0x7f6f9)
1c0147a8:	02a80210 	addi.w	$r16,$r16,-1536(0xa00)
1c0147ac:	143a69d1 	lu12i.w	$r17,119630(0x1d34e)
1c0147b0:	028a8231 	addi.w	$r17,$r17,672(0x2a0)
1c0147b4:	1400000a 	lu12i.w	$r10,0
1c0147b8:	1400000b 	lu12i.w	$r11,0
1c0147bc:	50001400 	b	20(0x14) # 1c0147d0 <n16_beq_test+0x4170>
1c0147c0:	14fedf2a 	lu12i.w	$r10,521977(0x7f6f9)
1c0147c4:	02a8014a 	addi.w	$r10,$r10,-1536(0xa00)
1c0147c8:	580021ac 	beq	$r13,$r12,32(0x20) # 1c0147e8 <n16_beq_test+0x4188>
1c0147cc:	50002400 	b	36(0x24) # 1c0147f0 <n16_beq_test+0x4190>
1c0147d0:	159a88ec 	lu12i.w	$r12,-207801(0xcd447)
1c0147d4:	02b5718c 	addi.w	$r12,$r12,-676(0xd5c)
1c0147d8:	159a88ed 	lu12i.w	$r13,-207801(0xcd447)
1c0147dc:	02b571ad 	addi.w	$r13,$r13,-676(0xd5c)
1c0147e0:	5bffe18d 	beq	$r12,$r13,-32(0x3ffe0) # 1c0147c0 <n16_beq_test+0x4160>
1c0147e4:	50000c00 	b	12(0xc) # 1c0147f0 <n16_beq_test+0x4190>
1c0147e8:	143a69cb 	lu12i.w	$r11,119630(0x1d34e)
1c0147ec:	028a816b 	addi.w	$r11,$r11,672(0x2a0)
1c0147f0:	14fedf3c 	lu12i.w	$r28,521977(0x7f6f9)
1c0147f4:	02a8039c 	addi.w	$r28,$r28,-1536(0xa00)
1c0147f8:	143a69dd 	lu12i.w	$r29,119630(0x1d34e)
1c0147fc:	028a83bd 	addi.w	$r29,$r29,672(0x2a0)
1c014800:	5c34055c 	bne	$r10,$r28,13316(0x3404) # 1c017c04 <inst_error>
1c014804:	5c34017d 	bne	$r11,$r29,13312(0x3400) # 1c017c04 <inst_error>
1c014808:	150608d0 	lu12i.w	$r16,-511930(0x83046)
1c01480c:	02902a10 	addi.w	$r16,$r16,1034(0x40a)
1c014810:	1485ff31 	lu12i.w	$r17,274425(0x42ff9)
1c014814:	02aa1231 	addi.w	$r17,$r17,-1404(0xa84)
1c014818:	1400000a 	lu12i.w	$r10,0
1c01481c:	1400000b 	lu12i.w	$r11,0
1c014820:	50001400 	b	20(0x14) # 1c014834 <n16_beq_test+0x41d4>
1c014824:	150608ca 	lu12i.w	$r10,-511930(0x83046)
1c014828:	0290294a 	addi.w	$r10,$r10,1034(0x40a)
1c01482c:	580021ac 	beq	$r13,$r12,32(0x20) # 1c01484c <n16_beq_test+0x41ec>
1c014830:	50002400 	b	36(0x24) # 1c014854 <n16_beq_test+0x41f4>
1c014834:	149e184c 	lu12i.w	$r12,323778(0x4f0c2)
1c014838:	02b6418c 	addi.w	$r12,$r12,-624(0xd90)
1c01483c:	149e184d 	lu12i.w	$r13,323778(0x4f0c2)
1c014840:	02b641ad 	addi.w	$r13,$r13,-624(0xd90)
1c014844:	5bffe18d 	beq	$r12,$r13,-32(0x3ffe0) # 1c014824 <n16_beq_test+0x41c4>
1c014848:	50000c00 	b	12(0xc) # 1c014854 <n16_beq_test+0x41f4>
1c01484c:	1485ff2b 	lu12i.w	$r11,274425(0x42ff9)
1c014850:	02aa116b 	addi.w	$r11,$r11,-1404(0xa84)
1c014854:	150608dc 	lu12i.w	$r28,-511930(0x83046)
1c014858:	02902b9c 	addi.w	$r28,$r28,1034(0x40a)
1c01485c:	1485ff3d 	lu12i.w	$r29,274425(0x42ff9)
1c014860:	02aa13bd 	addi.w	$r29,$r29,-1404(0xa84)
1c014864:	5c33a15c 	bne	$r10,$r28,13216(0x33a0) # 1c017c04 <inst_error>
1c014868:	5c339d7d 	bne	$r11,$r29,13212(0x339c) # 1c017c04 <inst_error>
1c01486c:	15419430 	lu12i.w	$r16,-389983(0xa0ca1)
1c014870:	02844210 	addi.w	$r16,$r16,272(0x110)
1c014874:	1556a2f1 	lu12i.w	$r17,-346857(0xab517)
1c014878:	0296c231 	addi.w	$r17,$r17,1456(0x5b0)
1c01487c:	1400000a 	lu12i.w	$r10,0
1c014880:	1400000b 	lu12i.w	$r11,0
1c014884:	50001400 	b	20(0x14) # 1c014898 <n16_beq_test+0x4238>
1c014888:	1541942a 	lu12i.w	$r10,-389983(0xa0ca1)
1c01488c:	0284414a 	addi.w	$r10,$r10,272(0x110)
1c014890:	580021ac 	beq	$r13,$r12,32(0x20) # 1c0148b0 <n16_beq_test+0x4250>
1c014894:	50002400 	b	36(0x24) # 1c0148b8 <n16_beq_test+0x4258>
1c014898:	14c1850c 	lu12i.w	$r12,396328(0x60c28)
1c01489c:	0285598c 	addi.w	$r12,$r12,342(0x156)
1c0148a0:	14c1850d 	lu12i.w	$r13,396328(0x60c28)
1c0148a4:	028559ad 	addi.w	$r13,$r13,342(0x156)
1c0148a8:	5bffe18d 	beq	$r12,$r13,-32(0x3ffe0) # 1c014888 <n16_beq_test+0x4228>
1c0148ac:	50000c00 	b	12(0xc) # 1c0148b8 <n16_beq_test+0x4258>
1c0148b0:	1556a2eb 	lu12i.w	$r11,-346857(0xab517)
1c0148b4:	0296c16b 	addi.w	$r11,$r11,1456(0x5b0)
1c0148b8:	1541943c 	lu12i.w	$r28,-389983(0xa0ca1)
1c0148bc:	0284439c 	addi.w	$r28,$r28,272(0x110)
1c0148c0:	1556a2fd 	lu12i.w	$r29,-346857(0xab517)
1c0148c4:	0296c3bd 	addi.w	$r29,$r29,1456(0x5b0)
1c0148c8:	5c333d5c 	bne	$r10,$r28,13116(0x333c) # 1c017c04 <inst_error>
1c0148cc:	5c33397d 	bne	$r11,$r29,13112(0x3338) # 1c017c04 <inst_error>
1c0148d0:	14cef250 	lu12i.w	$r16,423826(0x67792)
1c0148d4:	02a0c210 	addi.w	$r16,$r16,-2000(0x830)
1c0148d8:	151a4251 	lu12i.w	$r17,-470510(0x8d212)
1c0148dc:	02b20231 	addi.w	$r17,$r17,-896(0xc80)
1c0148e0:	1400000a 	lu12i.w	$r10,0
1c0148e4:	1400000b 	lu12i.w	$r11,0
1c0148e8:	50001400 	b	20(0x14) # 1c0148fc <n16_beq_test+0x429c>
1c0148ec:	14cef24a 	lu12i.w	$r10,423826(0x67792)
1c0148f0:	02a0c14a 	addi.w	$r10,$r10,-2000(0x830)
1c0148f4:	580021ac 	beq	$r13,$r12,32(0x20) # 1c014914 <n16_beq_test+0x42b4>
1c0148f8:	50002400 	b	36(0x24) # 1c01491c <n16_beq_test+0x42bc>
1c0148fc:	14ebc94c 	lu12i.w	$r12,482890(0x75e4a)
1c014900:	02a8898c 	addi.w	$r12,$r12,-1502(0xa22)
1c014904:	14ebc94d 	lu12i.w	$r13,482890(0x75e4a)
1c014908:	02a889ad 	addi.w	$r13,$r13,-1502(0xa22)
1c01490c:	5bffe18d 	beq	$r12,$r13,-32(0x3ffe0) # 1c0148ec <n16_beq_test+0x428c>
1c014910:	50000c00 	b	12(0xc) # 1c01491c <n16_beq_test+0x42bc>
1c014914:	151a424b 	lu12i.w	$r11,-470510(0x8d212)
1c014918:	02b2016b 	addi.w	$r11,$r11,-896(0xc80)
1c01491c:	14cef25c 	lu12i.w	$r28,423826(0x67792)
1c014920:	02a0c39c 	addi.w	$r28,$r28,-2000(0x830)
1c014924:	151a425d 	lu12i.w	$r29,-470510(0x8d212)
1c014928:	02b203bd 	addi.w	$r29,$r29,-896(0xc80)
1c01492c:	5c32d95c 	bne	$r10,$r28,13016(0x32d8) # 1c017c04 <inst_error>
1c014930:	5c32d57d 	bne	$r11,$r29,13012(0x32d4) # 1c017c04 <inst_error>
1c014934:	156a4b50 	lu12i.w	$r16,-306598(0xb525a)
1c014938:	029c8210 	addi.w	$r16,$r16,1824(0x720)
1c01493c:	153b97f1 	lu12i.w	$r17,-402241(0x9dcbf)
1c014940:	02ae6231 	addi.w	$r17,$r17,-1128(0xb98)
1c014944:	1400000a 	lu12i.w	$r10,0
1c014948:	1400000b 	lu12i.w	$r11,0
1c01494c:	50001400 	b	20(0x14) # 1c014960 <n16_beq_test+0x4300>
1c014950:	156a4b4a 	lu12i.w	$r10,-306598(0xb525a)
1c014954:	029c814a 	addi.w	$r10,$r10,1824(0x720)
1c014958:	580021ac 	beq	$r13,$r12,32(0x20) # 1c014978 <n16_beq_test+0x4318>
1c01495c:	50002400 	b	36(0x24) # 1c014980 <n16_beq_test+0x4320>
1c014960:	146d4b0c 	lu12i.w	$r12,223832(0x36a58)
1c014964:	02add98c 	addi.w	$r12,$r12,-1162(0xb76)
1c014968:	146d4b0d 	lu12i.w	$r13,223832(0x36a58)
1c01496c:	02add9ad 	addi.w	$r13,$r13,-1162(0xb76)
1c014970:	5bffe18d 	beq	$r12,$r13,-32(0x3ffe0) # 1c014950 <n16_beq_test+0x42f0>
1c014974:	50000c00 	b	12(0xc) # 1c014980 <n16_beq_test+0x4320>
1c014978:	153b97eb 	lu12i.w	$r11,-402241(0x9dcbf)
1c01497c:	02ae616b 	addi.w	$r11,$r11,-1128(0xb98)
1c014980:	156a4b5c 	lu12i.w	$r28,-306598(0xb525a)
1c014984:	029c839c 	addi.w	$r28,$r28,1824(0x720)
1c014988:	153b97fd 	lu12i.w	$r29,-402241(0x9dcbf)
1c01498c:	02ae63bd 	addi.w	$r29,$r29,-1128(0xb98)
1c014990:	5c32755c 	bne	$r10,$r28,12916(0x3274) # 1c017c04 <inst_error>
1c014994:	5c32717d 	bne	$r11,$r29,12912(0x3270) # 1c017c04 <inst_error>
1c014998:	1572c610 	lu12i.w	$r16,-289232(0xb9630)
1c01499c:	02b3ba10 	addi.w	$r16,$r16,-786(0xcee)
1c0149a0:	14f3c3d1 	lu12i.w	$r17,499230(0x79e1e)
1c0149a4:	02a59631 	addi.w	$r17,$r17,-1691(0x965)
1c0149a8:	1400000a 	lu12i.w	$r10,0
1c0149ac:	1400000b 	lu12i.w	$r11,0
1c0149b0:	50001400 	b	20(0x14) # 1c0149c4 <n16_beq_test+0x4364>
1c0149b4:	1572c60a 	lu12i.w	$r10,-289232(0xb9630)
1c0149b8:	02b3b94a 	addi.w	$r10,$r10,-786(0xcee)
1c0149bc:	580021ac 	beq	$r13,$r12,32(0x20) # 1c0149dc <n16_beq_test+0x437c>
1c0149c0:	50002400 	b	36(0x24) # 1c0149e4 <n16_beq_test+0x4384>
1c0149c4:	1513d74c 	lu12i.w	$r12,-483654(0x89eba)
1c0149c8:	02b9c18c 	addi.w	$r12,$r12,-400(0xe70)
1c0149cc:	1513d74d 	lu12i.w	$r13,-483654(0x89eba)
1c0149d0:	02b9c1ad 	addi.w	$r13,$r13,-400(0xe70)
1c0149d4:	5bffe18d 	beq	$r12,$r13,-32(0x3ffe0) # 1c0149b4 <n16_beq_test+0x4354>
1c0149d8:	50000c00 	b	12(0xc) # 1c0149e4 <n16_beq_test+0x4384>
1c0149dc:	14f3c3cb 	lu12i.w	$r11,499230(0x79e1e)
1c0149e0:	02a5956b 	addi.w	$r11,$r11,-1691(0x965)
1c0149e4:	1572c61c 	lu12i.w	$r28,-289232(0xb9630)
1c0149e8:	02b3bb9c 	addi.w	$r28,$r28,-786(0xcee)
1c0149ec:	14f3c3dd 	lu12i.w	$r29,499230(0x79e1e)
1c0149f0:	02a597bd 	addi.w	$r29,$r29,-1691(0x965)
1c0149f4:	5c32115c 	bne	$r10,$r28,12816(0x3210) # 1c017c04 <inst_error>
1c0149f8:	5c320d7d 	bne	$r11,$r29,12812(0x320c) # 1c017c04 <inst_error>
1c0149fc:	1450ea50 	lu12i.w	$r16,165714(0x28752)
1c014a00:	02b5b210 	addi.w	$r16,$r16,-660(0xd6c)
1c014a04:	14d92ab1 	lu12i.w	$r17,444757(0x6c955)
1c014a08:	0289d231 	addi.w	$r17,$r17,628(0x274)
1c014a0c:	1400000a 	lu12i.w	$r10,0
1c014a10:	1400000b 	lu12i.w	$r11,0
1c014a14:	50001400 	b	20(0x14) # 1c014a28 <n16_beq_test+0x43c8>
1c014a18:	1450ea4a 	lu12i.w	$r10,165714(0x28752)
1c014a1c:	02b5b14a 	addi.w	$r10,$r10,-660(0xd6c)
1c014a20:	580021ac 	beq	$r13,$r12,32(0x20) # 1c014a40 <n16_beq_test+0x43e0>
1c014a24:	50002400 	b	36(0x24) # 1c014a48 <n16_beq_test+0x43e8>
1c014a28:	1545184c 	lu12i.w	$r12,-382782(0xa28c2)
1c014a2c:	0282698c 	addi.w	$r12,$r12,154(0x9a)
1c014a30:	1545184d 	lu12i.w	$r13,-382782(0xa28c2)
1c014a34:	028269ad 	addi.w	$r13,$r13,154(0x9a)
1c014a38:	5bffe18d 	beq	$r12,$r13,-32(0x3ffe0) # 1c014a18 <n16_beq_test+0x43b8>
1c014a3c:	50000c00 	b	12(0xc) # 1c014a48 <n16_beq_test+0x43e8>
1c014a40:	14d92aab 	lu12i.w	$r11,444757(0x6c955)
1c014a44:	0289d16b 	addi.w	$r11,$r11,628(0x274)
1c014a48:	1450ea5c 	lu12i.w	$r28,165714(0x28752)
1c014a4c:	02b5b39c 	addi.w	$r28,$r28,-660(0xd6c)
1c014a50:	14d92abd 	lu12i.w	$r29,444757(0x6c955)
1c014a54:	0289d3bd 	addi.w	$r29,$r29,628(0x274)
1c014a58:	5c31ad5c 	bne	$r10,$r28,12716(0x31ac) # 1c017c04 <inst_error>
1c014a5c:	5c31a97d 	bne	$r11,$r29,12712(0x31a8) # 1c017c04 <inst_error>
1c014a60:	144bf0b0 	lu12i.w	$r16,155525(0x25f85)
1c014a64:	02ad5210 	addi.w	$r16,$r16,-1196(0xb54)
1c014a68:	155b3d31 	lu12i.w	$r17,-337431(0xad9e9)
1c014a6c:	029f0231 	addi.w	$r17,$r17,1984(0x7c0)
1c014a70:	1400000a 	lu12i.w	$r10,0
1c014a74:	1400000b 	lu12i.w	$r11,0
1c014a78:	50001400 	b	20(0x14) # 1c014a8c <n16_beq_test+0x442c>
1c014a7c:	144bf0aa 	lu12i.w	$r10,155525(0x25f85)
1c014a80:	02ad514a 	addi.w	$r10,$r10,-1196(0xb54)
1c014a84:	580021ac 	beq	$r13,$r12,32(0x20) # 1c014aa4 <n16_beq_test+0x4444>
1c014a88:	50002400 	b	36(0x24) # 1c014aac <n16_beq_test+0x444c>
1c014a8c:	15842a8c 	lu12i.w	$r12,-253612(0xc2154)
1c014a90:	02a7f18c 	addi.w	$r12,$r12,-1540(0x9fc)
1c014a94:	15842a8d 	lu12i.w	$r13,-253612(0xc2154)
1c014a98:	02a7f1ad 	addi.w	$r13,$r13,-1540(0x9fc)
1c014a9c:	5bffe18d 	beq	$r12,$r13,-32(0x3ffe0) # 1c014a7c <n16_beq_test+0x441c>
1c014aa0:	50000c00 	b	12(0xc) # 1c014aac <n16_beq_test+0x444c>
1c014aa4:	155b3d2b 	lu12i.w	$r11,-337431(0xad9e9)
1c014aa8:	029f016b 	addi.w	$r11,$r11,1984(0x7c0)
1c014aac:	144bf0bc 	lu12i.w	$r28,155525(0x25f85)
1c014ab0:	02ad539c 	addi.w	$r28,$r28,-1196(0xb54)
1c014ab4:	155b3d3d 	lu12i.w	$r29,-337431(0xad9e9)
1c014ab8:	029f03bd 	addi.w	$r29,$r29,1984(0x7c0)
1c014abc:	5c31495c 	bne	$r10,$r28,12616(0x3148) # 1c017c04 <inst_error>
1c014ac0:	5c31457d 	bne	$r11,$r29,12612(0x3144) # 1c017c04 <inst_error>
1c014ac4:	15555ab0 	lu12i.w	$r16,-349483(0xaaad5)
1c014ac8:	0298e210 	addi.w	$r16,$r16,1592(0x638)
1c014acc:	15d6c7f1 	lu12i.w	$r17,-84417(0xeb63f)
1c014ad0:	0284b231 	addi.w	$r17,$r17,300(0x12c)
1c014ad4:	1400000a 	lu12i.w	$r10,0
1c014ad8:	1400000b 	lu12i.w	$r11,0
1c014adc:	50001400 	b	20(0x14) # 1c014af0 <n16_beq_test+0x4490>
1c014ae0:	15555aaa 	lu12i.w	$r10,-349483(0xaaad5)
1c014ae4:	0298e14a 	addi.w	$r10,$r10,1592(0x638)
1c014ae8:	580021ac 	beq	$r13,$r12,32(0x20) # 1c014b08 <n16_beq_test+0x44a8>
1c014aec:	50002400 	b	36(0x24) # 1c014b10 <n16_beq_test+0x44b0>
1c014af0:	1513fd2c 	lu12i.w	$r12,-483351(0x89fe9)
1c014af4:	02a07d8c 	addi.w	$r12,$r12,-2017(0x81f)
1c014af8:	1513fd2d 	lu12i.w	$r13,-483351(0x89fe9)
1c014afc:	02a07dad 	addi.w	$r13,$r13,-2017(0x81f)
1c014b00:	5bffe18d 	beq	$r12,$r13,-32(0x3ffe0) # 1c014ae0 <n16_beq_test+0x4480>
1c014b04:	50000c00 	b	12(0xc) # 1c014b10 <n16_beq_test+0x44b0>
1c014b08:	15d6c7eb 	lu12i.w	$r11,-84417(0xeb63f)
1c014b0c:	0284b16b 	addi.w	$r11,$r11,300(0x12c)
1c014b10:	15555abc 	lu12i.w	$r28,-349483(0xaaad5)
1c014b14:	0298e39c 	addi.w	$r28,$r28,1592(0x638)
1c014b18:	15d6c7fd 	lu12i.w	$r29,-84417(0xeb63f)
1c014b1c:	0284b3bd 	addi.w	$r29,$r29,300(0x12c)
1c014b20:	5c30e55c 	bne	$r10,$r28,12516(0x30e4) # 1c017c04 <inst_error>
1c014b24:	5c30e17d 	bne	$r11,$r29,12512(0x30e0) # 1c017c04 <inst_error>
1c014b28:	155f6df0 	lu12i.w	$r16,-328849(0xafb6f)
1c014b2c:	029a4210 	addi.w	$r16,$r16,1680(0x690)
1c014b30:	155071f1 	lu12i.w	$r17,-359537(0xa838f)
1c014b34:	0285c231 	addi.w	$r17,$r17,368(0x170)
1c014b38:	1400000a 	lu12i.w	$r10,0
1c014b3c:	1400000b 	lu12i.w	$r11,0
1c014b40:	50001400 	b	20(0x14) # 1c014b54 <n16_beq_test+0x44f4>
1c014b44:	155f6dea 	lu12i.w	$r10,-328849(0xafb6f)
1c014b48:	029a414a 	addi.w	$r10,$r10,1680(0x690)
1c014b4c:	580021ac 	beq	$r13,$r12,32(0x20) # 1c014b6c <n16_beq_test+0x450c>
1c014b50:	50002400 	b	36(0x24) # 1c014b74 <n16_beq_test+0x4514>
1c014b54:	142a4cac 	lu12i.w	$r12,86629(0x15265)
1c014b58:	0283a18c 	addi.w	$r12,$r12,232(0xe8)
1c014b5c:	142a4cad 	lu12i.w	$r13,86629(0x15265)
1c014b60:	0283a1ad 	addi.w	$r13,$r13,232(0xe8)
1c014b64:	5bffe18d 	beq	$r12,$r13,-32(0x3ffe0) # 1c014b44 <n16_beq_test+0x44e4>
1c014b68:	50000c00 	b	12(0xc) # 1c014b74 <n16_beq_test+0x4514>
1c014b6c:	155071eb 	lu12i.w	$r11,-359537(0xa838f)
1c014b70:	0285c16b 	addi.w	$r11,$r11,368(0x170)
1c014b74:	155f6dfc 	lu12i.w	$r28,-328849(0xafb6f)
1c014b78:	029a439c 	addi.w	$r28,$r28,1680(0x690)
1c014b7c:	155071fd 	lu12i.w	$r29,-359537(0xa838f)
1c014b80:	0285c3bd 	addi.w	$r29,$r29,368(0x170)
1c014b84:	5c30815c 	bne	$r10,$r28,12416(0x3080) # 1c017c04 <inst_error>
1c014b88:	5c307d7d 	bne	$r11,$r29,12412(0x307c) # 1c017c04 <inst_error>
1c014b8c:	1596eb30 	lu12i.w	$r16,-215207(0xcb759)
1c014b90:	0290aa10 	addi.w	$r16,$r16,1066(0x42a)
1c014b94:	15f62471 	lu12i.w	$r17,-20189(0xfb123)
1c014b98:	02b01231 	addi.w	$r17,$r17,-1020(0xc04)
1c014b9c:	1400000a 	lu12i.w	$r10,0
1c014ba0:	1400000b 	lu12i.w	$r11,0
1c014ba4:	50001400 	b	20(0x14) # 1c014bb8 <n16_beq_test+0x4558>
1c014ba8:	1596eb2a 	lu12i.w	$r10,-215207(0xcb759)
1c014bac:	0290a94a 	addi.w	$r10,$r10,1066(0x42a)
1c014bb0:	580021ac 	beq	$r13,$r12,32(0x20) # 1c014bd0 <n16_beq_test+0x4570>
1c014bb4:	50002400 	b	36(0x24) # 1c014bd8 <n16_beq_test+0x4578>
1c014bb8:	14af416c 	lu12i.w	$r12,358923(0x57a0b)
1c014bbc:	0282b98c 	addi.w	$r12,$r12,174(0xae)
1c014bc0:	14af416d 	lu12i.w	$r13,358923(0x57a0b)
1c014bc4:	0282b9ad 	addi.w	$r13,$r13,174(0xae)
1c014bc8:	5bffe18d 	beq	$r12,$r13,-32(0x3ffe0) # 1c014ba8 <n16_beq_test+0x4548>
1c014bcc:	50000c00 	b	12(0xc) # 1c014bd8 <n16_beq_test+0x4578>
1c014bd0:	15f6246b 	lu12i.w	$r11,-20189(0xfb123)
1c014bd4:	02b0116b 	addi.w	$r11,$r11,-1020(0xc04)
1c014bd8:	1596eb3c 	lu12i.w	$r28,-215207(0xcb759)
1c014bdc:	0290ab9c 	addi.w	$r28,$r28,1066(0x42a)
1c014be0:	15f6247d 	lu12i.w	$r29,-20189(0xfb123)
1c014be4:	02b013bd 	addi.w	$r29,$r29,-1020(0xc04)
1c014be8:	5c301d5c 	bne	$r10,$r28,12316(0x301c) # 1c017c04 <inst_error>
1c014bec:	5c30197d 	bne	$r11,$r29,12312(0x3018) # 1c017c04 <inst_error>
1c014bf0:	14a95430 	lu12i.w	$r16,346785(0x54aa1)
1c014bf4:	02832210 	addi.w	$r16,$r16,200(0xc8)
1c014bf8:	153831f1 	lu12i.w	$r17,-409201(0x9c18f)
1c014bfc:	02880231 	addi.w	$r17,$r17,512(0x200)
1c014c00:	1400000a 	lu12i.w	$r10,0
1c014c04:	1400000b 	lu12i.w	$r11,0
1c014c08:	50001400 	b	20(0x14) # 1c014c1c <n16_beq_test+0x45bc>
1c014c0c:	14a9542a 	lu12i.w	$r10,346785(0x54aa1)
1c014c10:	0283214a 	addi.w	$r10,$r10,200(0xc8)
1c014c14:	580021ac 	beq	$r13,$r12,32(0x20) # 1c014c34 <n16_beq_test+0x45d4>
1c014c18:	50002400 	b	36(0x24) # 1c014c3c <n16_beq_test+0x45dc>
1c014c1c:	1546a92c 	lu12i.w	$r12,-379575(0xa3549)
1c014c20:	02bf518c 	addi.w	$r12,$r12,-44(0xfd4)
1c014c24:	1546a92d 	lu12i.w	$r13,-379575(0xa3549)
1c014c28:	02bf51ad 	addi.w	$r13,$r13,-44(0xfd4)
1c014c2c:	5bffe18d 	beq	$r12,$r13,-32(0x3ffe0) # 1c014c0c <n16_beq_test+0x45ac>
1c014c30:	50000c00 	b	12(0xc) # 1c014c3c <n16_beq_test+0x45dc>
1c014c34:	153831eb 	lu12i.w	$r11,-409201(0x9c18f)
1c014c38:	0288016b 	addi.w	$r11,$r11,512(0x200)
1c014c3c:	14a9543c 	lu12i.w	$r28,346785(0x54aa1)
1c014c40:	0283239c 	addi.w	$r28,$r28,200(0xc8)
1c014c44:	153831fd 	lu12i.w	$r29,-409201(0x9c18f)
1c014c48:	028803bd 	addi.w	$r29,$r29,512(0x200)
1c014c4c:	5c2fb95c 	bne	$r10,$r28,12216(0x2fb8) # 1c017c04 <inst_error>
1c014c50:	5c2fb57d 	bne	$r11,$r29,12212(0x2fb4) # 1c017c04 <inst_error>
1c014c54:	14761d10 	lu12i.w	$r16,241896(0x3b0e8)
1c014c58:	02b5fa10 	addi.w	$r16,$r16,-642(0xd7e)
1c014c5c:	1417d8d1 	lu12i.w	$r17,48838(0xbec6)
1c014c60:	02846231 	addi.w	$r17,$r17,280(0x118)
1c014c64:	1400000a 	lu12i.w	$r10,0
1c014c68:	1400000b 	lu12i.w	$r11,0
1c014c6c:	50001400 	b	20(0x14) # 1c014c80 <n16_beq_test+0x4620>
1c014c70:	14761d0a 	lu12i.w	$r10,241896(0x3b0e8)
1c014c74:	02b5f94a 	addi.w	$r10,$r10,-642(0xd7e)
1c014c78:	580021ac 	beq	$r13,$r12,32(0x20) # 1c014c98 <n16_beq_test+0x4638>
1c014c7c:	50002400 	b	36(0x24) # 1c014ca0 <n16_beq_test+0x4640>
1c014c80:	1436a22c 	lu12i.w	$r12,111889(0x1b511)
1c014c84:	029b818c 	addi.w	$r12,$r12,1760(0x6e0)
1c014c88:	1436a22d 	lu12i.w	$r13,111889(0x1b511)
1c014c8c:	029b81ad 	addi.w	$r13,$r13,1760(0x6e0)
1c014c90:	5bffe18d 	beq	$r12,$r13,-32(0x3ffe0) # 1c014c70 <n16_beq_test+0x4610>
1c014c94:	50000c00 	b	12(0xc) # 1c014ca0 <n16_beq_test+0x4640>
1c014c98:	1417d8cb 	lu12i.w	$r11,48838(0xbec6)
1c014c9c:	0284616b 	addi.w	$r11,$r11,280(0x118)
1c014ca0:	14761d1c 	lu12i.w	$r28,241896(0x3b0e8)
1c014ca4:	02b5fb9c 	addi.w	$r28,$r28,-642(0xd7e)
1c014ca8:	1417d8dd 	lu12i.w	$r29,48838(0xbec6)
1c014cac:	028463bd 	addi.w	$r29,$r29,280(0x118)
1c014cb0:	5c2f555c 	bne	$r10,$r28,12116(0x2f54) # 1c017c04 <inst_error>
1c014cb4:	5c2f517d 	bne	$r11,$r29,12112(0x2f50) # 1c017c04 <inst_error>
1c014cb8:	147de850 	lu12i.w	$r16,257858(0x3ef42)
1c014cbc:	029f4210 	addi.w	$r16,$r16,2000(0x7d0)
1c014cc0:	15dbe071 	lu12i.w	$r17,-73981(0xedf03)
1c014cc4:	02a85231 	addi.w	$r17,$r17,-1516(0xa14)
1c014cc8:	1400000a 	lu12i.w	$r10,0
1c014ccc:	1400000b 	lu12i.w	$r11,0
1c014cd0:	50001400 	b	20(0x14) # 1c014ce4 <n16_beq_test+0x4684>
1c014cd4:	147de84a 	lu12i.w	$r10,257858(0x3ef42)
1c014cd8:	029f414a 	addi.w	$r10,$r10,2000(0x7d0)
1c014cdc:	580021ac 	beq	$r13,$r12,32(0x20) # 1c014cfc <n16_beq_test+0x469c>
1c014ce0:	50002400 	b	36(0x24) # 1c014d04 <n16_beq_test+0x46a4>
1c014ce4:	143ee96c 	lu12i.w	$r12,128843(0x1f74b)
1c014ce8:	02b7e98c 	addi.w	$r12,$r12,-518(0xdfa)
1c014cec:	143ee96d 	lu12i.w	$r13,128843(0x1f74b)
1c014cf0:	02b7e9ad 	addi.w	$r13,$r13,-518(0xdfa)
1c014cf4:	5bffe18d 	beq	$r12,$r13,-32(0x3ffe0) # 1c014cd4 <n16_beq_test+0x4674>
1c014cf8:	50000c00 	b	12(0xc) # 1c014d04 <n16_beq_test+0x46a4>
1c014cfc:	15dbe06b 	lu12i.w	$r11,-73981(0xedf03)
1c014d00:	02a8516b 	addi.w	$r11,$r11,-1516(0xa14)
1c014d04:	147de85c 	lu12i.w	$r28,257858(0x3ef42)
1c014d08:	029f439c 	addi.w	$r28,$r28,2000(0x7d0)
1c014d0c:	15dbe07d 	lu12i.w	$r29,-73981(0xedf03)
1c014d10:	02a853bd 	addi.w	$r29,$r29,-1516(0xa14)
1c014d14:	5c2ef15c 	bne	$r10,$r28,12016(0x2ef0) # 1c017c04 <inst_error>
1c014d18:	5c2eed7d 	bne	$r11,$r29,12012(0x2eec) # 1c017c04 <inst_error>
1c014d1c:	15152ab0 	lu12i.w	$r16,-480939(0x8a955)
1c014d20:	02944e10 	addi.w	$r16,$r16,1299(0x513)
1c014d24:	1597b471 	lu12i.w	$r17,-213597(0xcbda3)
1c014d28:	02b80231 	addi.w	$r17,$r17,-512(0xe00)
1c014d2c:	1400000a 	lu12i.w	$r10,0
1c014d30:	1400000b 	lu12i.w	$r11,0
1c014d34:	50001400 	b	20(0x14) # 1c014d48 <n16_beq_test+0x46e8>
1c014d38:	15152aaa 	lu12i.w	$r10,-480939(0x8a955)
1c014d3c:	02944d4a 	addi.w	$r10,$r10,1299(0x513)
1c014d40:	580021ac 	beq	$r13,$r12,32(0x20) # 1c014d60 <n16_beq_test+0x4700>
1c014d44:	50002400 	b	36(0x24) # 1c014d68 <n16_beq_test+0x4708>
1c014d48:	1401910c 	lu12i.w	$r12,3208(0xc88)
1c014d4c:	028b918c 	addi.w	$r12,$r12,740(0x2e4)
1c014d50:	1401910d 	lu12i.w	$r13,3208(0xc88)
1c014d54:	028b91ad 	addi.w	$r13,$r13,740(0x2e4)
1c014d58:	5bffe18d 	beq	$r12,$r13,-32(0x3ffe0) # 1c014d38 <n16_beq_test+0x46d8>
1c014d5c:	50000c00 	b	12(0xc) # 1c014d68 <n16_beq_test+0x4708>
1c014d60:	1597b46b 	lu12i.w	$r11,-213597(0xcbda3)
1c014d64:	02b8016b 	addi.w	$r11,$r11,-512(0xe00)
1c014d68:	15152abc 	lu12i.w	$r28,-480939(0x8a955)
1c014d6c:	02944f9c 	addi.w	$r28,$r28,1299(0x513)
1c014d70:	1597b47d 	lu12i.w	$r29,-213597(0xcbda3)
1c014d74:	02b803bd 	addi.w	$r29,$r29,-512(0xe00)
1c014d78:	5c2e8d5c 	bne	$r10,$r28,11916(0x2e8c) # 1c017c04 <inst_error>
1c014d7c:	5c2e897d 	bne	$r11,$r29,11912(0x2e88) # 1c017c04 <inst_error>
1c014d80:	159da310 	lu12i.w	$r16,-201448(0xced18)
1c014d84:	0289c210 	addi.w	$r16,$r16,624(0x270)
1c014d88:	1506b2d1 	lu12i.w	$r17,-510570(0x83596)
1c014d8c:	02a04631 	addi.w	$r17,$r17,-2031(0x811)
1c014d90:	1400000a 	lu12i.w	$r10,0
1c014d94:	1400000b 	lu12i.w	$r11,0
1c014d98:	50001400 	b	20(0x14) # 1c014dac <n16_beq_test+0x474c>
1c014d9c:	159da30a 	lu12i.w	$r10,-201448(0xced18)
1c014da0:	0289c14a 	addi.w	$r10,$r10,624(0x270)
1c014da4:	580021ac 	beq	$r13,$r12,32(0x20) # 1c014dc4 <n16_beq_test+0x4764>
1c014da8:	50002400 	b	36(0x24) # 1c014dcc <n16_beq_test+0x476c>
1c014dac:	157f24ec 	lu12i.w	$r12,-263897(0xbf927)
1c014db0:	02ac418c 	addi.w	$r12,$r12,-1264(0xb10)
1c014db4:	157f24ed 	lu12i.w	$r13,-263897(0xbf927)
1c014db8:	02ac41ad 	addi.w	$r13,$r13,-1264(0xb10)
1c014dbc:	5bffe18d 	beq	$r12,$r13,-32(0x3ffe0) # 1c014d9c <n16_beq_test+0x473c>
1c014dc0:	50000c00 	b	12(0xc) # 1c014dcc <n16_beq_test+0x476c>
1c014dc4:	1506b2cb 	lu12i.w	$r11,-510570(0x83596)
1c014dc8:	02a0456b 	addi.w	$r11,$r11,-2031(0x811)
1c014dcc:	159da31c 	lu12i.w	$r28,-201448(0xced18)
1c014dd0:	0289c39c 	addi.w	$r28,$r28,624(0x270)
1c014dd4:	1506b2dd 	lu12i.w	$r29,-510570(0x83596)
1c014dd8:	02a047bd 	addi.w	$r29,$r29,-2031(0x811)
1c014ddc:	5c2e295c 	bne	$r10,$r28,11816(0x2e28) # 1c017c04 <inst_error>
1c014de0:	5c2e257d 	bne	$r11,$r29,11812(0x2e24) # 1c017c04 <inst_error>
1c014de4:	1559c070 	lu12i.w	$r16,-340477(0xace03)
1c014de8:	02bbee10 	addi.w	$r16,$r16,-261(0xefb)
1c014dec:	14d75811 	lu12i.w	$r17,441024(0x6bac0)
1c014df0:	02ba4231 	addi.w	$r17,$r17,-368(0xe90)
1c014df4:	1400000a 	lu12i.w	$r10,0
1c014df8:	1400000b 	lu12i.w	$r11,0
1c014dfc:	50001400 	b	20(0x14) # 1c014e10 <n16_beq_test+0x47b0>
1c014e00:	1559c06a 	lu12i.w	$r10,-340477(0xace03)
1c014e04:	02bbed4a 	addi.w	$r10,$r10,-261(0xefb)
1c014e08:	580021ac 	beq	$r13,$r12,32(0x20) # 1c014e28 <n16_beq_test+0x47c8>
1c014e0c:	50002400 	b	36(0x24) # 1c014e30 <n16_beq_test+0x47d0>
1c014e10:	1551d4cc 	lu12i.w	$r12,-356698(0xa8ea6)
1c014e14:	029f318c 	addi.w	$r12,$r12,1996(0x7cc)
1c014e18:	1551d4cd 	lu12i.w	$r13,-356698(0xa8ea6)
1c014e1c:	029f31ad 	addi.w	$r13,$r13,1996(0x7cc)
1c014e20:	5bffe18d 	beq	$r12,$r13,-32(0x3ffe0) # 1c014e00 <n16_beq_test+0x47a0>
1c014e24:	50000c00 	b	12(0xc) # 1c014e30 <n16_beq_test+0x47d0>
1c014e28:	14d7580b 	lu12i.w	$r11,441024(0x6bac0)
1c014e2c:	02ba416b 	addi.w	$r11,$r11,-368(0xe90)
1c014e30:	1559c07c 	lu12i.w	$r28,-340477(0xace03)
1c014e34:	02bbef9c 	addi.w	$r28,$r28,-261(0xefb)
1c014e38:	14d7581d 	lu12i.w	$r29,441024(0x6bac0)
1c014e3c:	02ba43bd 	addi.w	$r29,$r29,-368(0xe90)
1c014e40:	5c2dc55c 	bne	$r10,$r28,11716(0x2dc4) # 1c017c04 <inst_error>
1c014e44:	5c2dc17d 	bne	$r11,$r29,11712(0x2dc0) # 1c017c04 <inst_error>
1c014e48:	1476a5b0 	lu12i.w	$r16,242989(0x3b52d)
1c014e4c:	02948610 	addi.w	$r16,$r16,1313(0x521)
1c014e50:	159797d1 	lu12i.w	$r17,-213826(0xcbcbe)
1c014e54:	028c0231 	addi.w	$r17,$r17,768(0x300)
1c014e58:	1400000a 	lu12i.w	$r10,0
1c014e5c:	1400000b 	lu12i.w	$r11,0
1c014e60:	50001400 	b	20(0x14) # 1c014e74 <n16_beq_test+0x4814>
1c014e64:	1476a5aa 	lu12i.w	$r10,242989(0x3b52d)
1c014e68:	0294854a 	addi.w	$r10,$r10,1313(0x521)
1c014e6c:	580021ac 	beq	$r13,$r12,32(0x20) # 1c014e8c <n16_beq_test+0x482c>
1c014e70:	50002400 	b	36(0x24) # 1c014e94 <n16_beq_test+0x4834>
1c014e74:	15344b6c 	lu12i.w	$r12,-417189(0x9a25b)
1c014e78:	0293198c 	addi.w	$r12,$r12,1222(0x4c6)
1c014e7c:	15344b6d 	lu12i.w	$r13,-417189(0x9a25b)
1c014e80:	029319ad 	addi.w	$r13,$r13,1222(0x4c6)
1c014e84:	5bffe18d 	beq	$r12,$r13,-32(0x3ffe0) # 1c014e64 <n16_beq_test+0x4804>
1c014e88:	50000c00 	b	12(0xc) # 1c014e94 <n16_beq_test+0x4834>
1c014e8c:	159797cb 	lu12i.w	$r11,-213826(0xcbcbe)
1c014e90:	028c016b 	addi.w	$r11,$r11,768(0x300)
1c014e94:	1476a5bc 	lu12i.w	$r28,242989(0x3b52d)
1c014e98:	0294879c 	addi.w	$r28,$r28,1313(0x521)
1c014e9c:	159797dd 	lu12i.w	$r29,-213826(0xcbcbe)
1c014ea0:	028c03bd 	addi.w	$r29,$r29,768(0x300)
1c014ea4:	5c2d615c 	bne	$r10,$r28,11616(0x2d60) # 1c017c04 <inst_error>
1c014ea8:	5c2d5d7d 	bne	$r11,$r29,11612(0x2d5c) # 1c017c04 <inst_error>
1c014eac:	14fb98d0 	lu12i.w	$r16,515270(0x7dcc6)
1c014eb0:	028a6210 	addi.w	$r16,$r16,664(0x298)
1c014eb4:	141359f1 	lu12i.w	$r17,39631(0x9acf)
1c014eb8:	0293f231 	addi.w	$r17,$r17,1276(0x4fc)
1c014ebc:	1400000a 	lu12i.w	$r10,0
1c014ec0:	1400000b 	lu12i.w	$r11,0
1c014ec4:	50001400 	b	20(0x14) # 1c014ed8 <n16_beq_test+0x4878>
1c014ec8:	14fb98ca 	lu12i.w	$r10,515270(0x7dcc6)
1c014ecc:	028a614a 	addi.w	$r10,$r10,664(0x298)
1c014ed0:	580021ac 	beq	$r13,$r12,32(0x20) # 1c014ef0 <n16_beq_test+0x4890>
1c014ed4:	50002400 	b	36(0x24) # 1c014ef8 <n16_beq_test+0x4898>
1c014ed8:	15fde6ac 	lu12i.w	$r12,-4299(0xfef35)
1c014edc:	02bf118c 	addi.w	$r12,$r12,-60(0xfc4)
1c014ee0:	15fde6ad 	lu12i.w	$r13,-4299(0xfef35)
1c014ee4:	02bf11ad 	addi.w	$r13,$r13,-60(0xfc4)
1c014ee8:	5bffe18d 	beq	$r12,$r13,-32(0x3ffe0) # 1c014ec8 <n16_beq_test+0x4868>
1c014eec:	50000c00 	b	12(0xc) # 1c014ef8 <n16_beq_test+0x4898>
1c014ef0:	141359eb 	lu12i.w	$r11,39631(0x9acf)
1c014ef4:	0293f16b 	addi.w	$r11,$r11,1276(0x4fc)
1c014ef8:	14fb98dc 	lu12i.w	$r28,515270(0x7dcc6)
1c014efc:	028a639c 	addi.w	$r28,$r28,664(0x298)
1c014f00:	141359fd 	lu12i.w	$r29,39631(0x9acf)
1c014f04:	0293f3bd 	addi.w	$r29,$r29,1276(0x4fc)
1c014f08:	5c2cfd5c 	bne	$r10,$r28,11516(0x2cfc) # 1c017c04 <inst_error>
1c014f0c:	5c2cf97d 	bne	$r11,$r29,11512(0x2cf8) # 1c017c04 <inst_error>
1c014f10:	15246a50 	lu12i.w	$r16,-449710(0x92352)
1c014f14:	02b1c210 	addi.w	$r16,$r16,-912(0xc70)
1c014f18:	14922f31 	lu12i.w	$r17,299385(0x49179)
1c014f1c:	02962a31 	addi.w	$r17,$r17,1418(0x58a)
1c014f20:	1400000a 	lu12i.w	$r10,0
1c014f24:	1400000b 	lu12i.w	$r11,0
1c014f28:	50001400 	b	20(0x14) # 1c014f3c <n16_beq_test+0x48dc>
1c014f2c:	15246a4a 	lu12i.w	$r10,-449710(0x92352)
1c014f30:	02b1c14a 	addi.w	$r10,$r10,-912(0xc70)
1c014f34:	580021ac 	beq	$r13,$r12,32(0x20) # 1c014f54 <n16_beq_test+0x48f4>
1c014f38:	50002400 	b	36(0x24) # 1c014f5c <n16_beq_test+0x48fc>
1c014f3c:	147d340c 	lu12i.w	$r12,256416(0x3e9a0)
1c014f40:	02a7218c 	addi.w	$r12,$r12,-1592(0x9c8)
1c014f44:	147d340d 	lu12i.w	$r13,256416(0x3e9a0)
1c014f48:	02a721ad 	addi.w	$r13,$r13,-1592(0x9c8)
1c014f4c:	5bffe18d 	beq	$r12,$r13,-32(0x3ffe0) # 1c014f2c <n16_beq_test+0x48cc>
1c014f50:	50000c00 	b	12(0xc) # 1c014f5c <n16_beq_test+0x48fc>
1c014f54:	14922f2b 	lu12i.w	$r11,299385(0x49179)
1c014f58:	0296296b 	addi.w	$r11,$r11,1418(0x58a)
1c014f5c:	15246a5c 	lu12i.w	$r28,-449710(0x92352)
1c014f60:	02b1c39c 	addi.w	$r28,$r28,-912(0xc70)
1c014f64:	14922f3d 	lu12i.w	$r29,299385(0x49179)
1c014f68:	02962bbd 	addi.w	$r29,$r29,1418(0x58a)
1c014f6c:	5c2c995c 	bne	$r10,$r28,11416(0x2c98) # 1c017c04 <inst_error>
1c014f70:	5c2c957d 	bne	$r11,$r29,11412(0x2c94) # 1c017c04 <inst_error>
1c014f74:	14f79b90 	lu12i.w	$r16,507100(0x7bcdc)
1c014f78:	028e0210 	addi.w	$r16,$r16,896(0x380)
1c014f7c:	1522add1 	lu12i.w	$r17,-453266(0x9156e)
1c014f80:	02a35e31 	addi.w	$r17,$r17,-1833(0x8d7)
1c014f84:	1400000a 	lu12i.w	$r10,0
1c014f88:	1400000b 	lu12i.w	$r11,0
1c014f8c:	50001400 	b	20(0x14) # 1c014fa0 <n16_beq_test+0x4940>
1c014f90:	14f79b8a 	lu12i.w	$r10,507100(0x7bcdc)
1c014f94:	028e014a 	addi.w	$r10,$r10,896(0x380)
1c014f98:	580021ac 	beq	$r13,$r12,32(0x20) # 1c014fb8 <n16_beq_test+0x4958>
1c014f9c:	50002400 	b	36(0x24) # 1c014fc0 <n16_beq_test+0x4960>
1c014fa0:	143c1ecc 	lu12i.w	$r12,123126(0x1e0f6)
1c014fa4:	0287818c 	addi.w	$r12,$r12,480(0x1e0)
1c014fa8:	143c1ecd 	lu12i.w	$r13,123126(0x1e0f6)
1c014fac:	028781ad 	addi.w	$r13,$r13,480(0x1e0)
1c014fb0:	5bffe18d 	beq	$r12,$r13,-32(0x3ffe0) # 1c014f90 <n16_beq_test+0x4930>
1c014fb4:	50000c00 	b	12(0xc) # 1c014fc0 <n16_beq_test+0x4960>
1c014fb8:	1522adcb 	lu12i.w	$r11,-453266(0x9156e)
1c014fbc:	02a35d6b 	addi.w	$r11,$r11,-1833(0x8d7)
1c014fc0:	14f79b9c 	lu12i.w	$r28,507100(0x7bcdc)
1c014fc4:	028e039c 	addi.w	$r28,$r28,896(0x380)
1c014fc8:	1522addd 	lu12i.w	$r29,-453266(0x9156e)
1c014fcc:	02a35fbd 	addi.w	$r29,$r29,-1833(0x8d7)
1c014fd0:	5c2c355c 	bne	$r10,$r28,11316(0x2c34) # 1c017c04 <inst_error>
1c014fd4:	5c2c317d 	bne	$r11,$r29,11312(0x2c30) # 1c017c04 <inst_error>
1c014fd8:	1458e050 	lu12i.w	$r16,182018(0x2c702)
1c014fdc:	02baba10 	addi.w	$r16,$r16,-338(0xeae)
1c014fe0:	159b78f1 	lu12i.w	$r17,-205881(0xcdbc7)
1c014fe4:	02b9c231 	addi.w	$r17,$r17,-400(0xe70)
1c014fe8:	1400000a 	lu12i.w	$r10,0
1c014fec:	1400000b 	lu12i.w	$r11,0
1c014ff0:	50001400 	b	20(0x14) # 1c015004 <n16_beq_test+0x49a4>
1c014ff4:	1458e04a 	lu12i.w	$r10,182018(0x2c702)
1c014ff8:	02bab94a 	addi.w	$r10,$r10,-338(0xeae)
1c014ffc:	580021ac 	beq	$r13,$r12,32(0x20) # 1c01501c <n16_beq_test+0x49bc>
1c015000:	50002400 	b	36(0x24) # 1c015024 <n16_beq_test+0x49c4>
1c015004:	1400250c 	lu12i.w	$r12,296(0x128)
1c015008:	02a6018c 	addi.w	$r12,$r12,-1664(0x980)
1c01500c:	1400250d 	lu12i.w	$r13,296(0x128)
1c015010:	02a601ad 	addi.w	$r13,$r13,-1664(0x980)
1c015014:	5bffe18d 	beq	$r12,$r13,-32(0x3ffe0) # 1c014ff4 <n16_beq_test+0x4994>
1c015018:	50000c00 	b	12(0xc) # 1c015024 <n16_beq_test+0x49c4>
1c01501c:	159b78eb 	lu12i.w	$r11,-205881(0xcdbc7)
1c015020:	02b9c16b 	addi.w	$r11,$r11,-400(0xe70)
1c015024:	1458e05c 	lu12i.w	$r28,182018(0x2c702)
1c015028:	02babb9c 	addi.w	$r28,$r28,-338(0xeae)
1c01502c:	159b78fd 	lu12i.w	$r29,-205881(0xcdbc7)
1c015030:	02b9c3bd 	addi.w	$r29,$r29,-400(0xe70)
1c015034:	5c2bd15c 	bne	$r10,$r28,11216(0x2bd0) # 1c017c04 <inst_error>
1c015038:	5c2bcd7d 	bne	$r11,$r29,11212(0x2bcc) # 1c017c04 <inst_error>
1c01503c:	142962b0 	lu12i.w	$r16,84757(0x14b15)
1c015040:	02bb5210 	addi.w	$r16,$r16,-300(0xed4)
1c015044:	146b6d31 	lu12i.w	$r17,220009(0x35b69)
1c015048:	02ae5a31 	addi.w	$r17,$r17,-1130(0xb96)
1c01504c:	1400000a 	lu12i.w	$r10,0
1c015050:	1400000b 	lu12i.w	$r11,0
1c015054:	50001400 	b	20(0x14) # 1c015068 <n16_beq_test+0x4a08>
1c015058:	142962aa 	lu12i.w	$r10,84757(0x14b15)
1c01505c:	02bb514a 	addi.w	$r10,$r10,-300(0xed4)
1c015060:	580021ac 	beq	$r13,$r12,32(0x20) # 1c015080 <n16_beq_test+0x4a20>
1c015064:	50002400 	b	36(0x24) # 1c015088 <n16_beq_test+0x4a28>
1c015068:	1568e74c 	lu12i.w	$r12,-309446(0xb473a)
1c01506c:	02bc998c 	addi.w	$r12,$r12,-218(0xf26)
1c015070:	1568e74d 	lu12i.w	$r13,-309446(0xb473a)
1c015074:	02bc99ad 	addi.w	$r13,$r13,-218(0xf26)
1c015078:	5bffe18d 	beq	$r12,$r13,-32(0x3ffe0) # 1c015058 <n16_beq_test+0x49f8>
1c01507c:	50000c00 	b	12(0xc) # 1c015088 <n16_beq_test+0x4a28>
1c015080:	146b6d2b 	lu12i.w	$r11,220009(0x35b69)
1c015084:	02ae596b 	addi.w	$r11,$r11,-1130(0xb96)
1c015088:	142962bc 	lu12i.w	$r28,84757(0x14b15)
1c01508c:	02bb539c 	addi.w	$r28,$r28,-300(0xed4)
1c015090:	146b6d3d 	lu12i.w	$r29,220009(0x35b69)
1c015094:	02ae5bbd 	addi.w	$r29,$r29,-1130(0xb96)
1c015098:	5c2b6d5c 	bne	$r10,$r28,11116(0x2b6c) # 1c017c04 <inst_error>
1c01509c:	5c2b697d 	bne	$r11,$r29,11112(0x2b68) # 1c017c04 <inst_error>
1c0150a0:	15aae950 	lu12i.w	$r16,-174262(0xd574a)
1c0150a4:	02bd7a10 	addi.w	$r16,$r16,-162(0xf5e)
1c0150a8:	15977e91 	lu12i.w	$r17,-214028(0xcbbf4)
1c0150ac:	02b0e231 	addi.w	$r17,$r17,-968(0xc38)
1c0150b0:	1400000a 	lu12i.w	$r10,0
1c0150b4:	1400000b 	lu12i.w	$r11,0
1c0150b8:	50001400 	b	20(0x14) # 1c0150cc <n16_beq_test+0x4a6c>
1c0150bc:	15aae94a 	lu12i.w	$r10,-174262(0xd574a)
1c0150c0:	02bd794a 	addi.w	$r10,$r10,-162(0xf5e)
1c0150c4:	580021ac 	beq	$r13,$r12,32(0x20) # 1c0150e4 <n16_beq_test+0x4a84>
1c0150c8:	50002400 	b	36(0x24) # 1c0150ec <n16_beq_test+0x4a8c>
1c0150cc:	14f2960c 	lu12i.w	$r12,496816(0x794b0)
1c0150d0:	02a7ed8c 	addi.w	$r12,$r12,-1541(0x9fb)
1c0150d4:	14f2960d 	lu12i.w	$r13,496816(0x794b0)
1c0150d8:	02a7edad 	addi.w	$r13,$r13,-1541(0x9fb)
1c0150dc:	5bffe18d 	beq	$r12,$r13,-32(0x3ffe0) # 1c0150bc <n16_beq_test+0x4a5c>
1c0150e0:	50000c00 	b	12(0xc) # 1c0150ec <n16_beq_test+0x4a8c>
1c0150e4:	15977e8b 	lu12i.w	$r11,-214028(0xcbbf4)
1c0150e8:	02b0e16b 	addi.w	$r11,$r11,-968(0xc38)
1c0150ec:	15aae95c 	lu12i.w	$r28,-174262(0xd574a)
1c0150f0:	02bd7b9c 	addi.w	$r28,$r28,-162(0xf5e)
1c0150f4:	15977e9d 	lu12i.w	$r29,-214028(0xcbbf4)
1c0150f8:	02b0e3bd 	addi.w	$r29,$r29,-968(0xc38)
1c0150fc:	5c2b095c 	bne	$r10,$r28,11016(0x2b08) # 1c017c04 <inst_error>
1c015100:	5c2b057d 	bne	$r11,$r29,11012(0x2b04) # 1c017c04 <inst_error>
1c015104:	150400d0 	lu12i.w	$r16,-516090(0x82006)
1c015108:	02932a10 	addi.w	$r16,$r16,1226(0x4ca)
1c01510c:	142c4991 	lu12i.w	$r17,90700(0x1624c)
1c015110:	02b58231 	addi.w	$r17,$r17,-672(0xd60)
1c015114:	1400000a 	lu12i.w	$r10,0
1c015118:	1400000b 	lu12i.w	$r11,0
1c01511c:	50001400 	b	20(0x14) # 1c015130 <n16_beq_test+0x4ad0>
1c015120:	150400ca 	lu12i.w	$r10,-516090(0x82006)
1c015124:	0293294a 	addi.w	$r10,$r10,1226(0x4ca)
1c015128:	580021ac 	beq	$r13,$r12,32(0x20) # 1c015148 <n16_beq_test+0x4ae8>
1c01512c:	50002400 	b	36(0x24) # 1c015150 <n16_beq_test+0x4af0>
1c015130:	1457930c 	lu12i.w	$r12,179352(0x2bc98)
1c015134:	02adc18c 	addi.w	$r12,$r12,-1168(0xb70)
1c015138:	1457930d 	lu12i.w	$r13,179352(0x2bc98)
1c01513c:	02adc1ad 	addi.w	$r13,$r13,-1168(0xb70)
1c015140:	5bffe18d 	beq	$r12,$r13,-32(0x3ffe0) # 1c015120 <n16_beq_test+0x4ac0>
1c015144:	50000c00 	b	12(0xc) # 1c015150 <n16_beq_test+0x4af0>
1c015148:	142c498b 	lu12i.w	$r11,90700(0x1624c)
1c01514c:	02b5816b 	addi.w	$r11,$r11,-672(0xd60)
1c015150:	150400dc 	lu12i.w	$r28,-516090(0x82006)
1c015154:	02932b9c 	addi.w	$r28,$r28,1226(0x4ca)
1c015158:	142c499d 	lu12i.w	$r29,90700(0x1624c)
1c01515c:	02b583bd 	addi.w	$r29,$r29,-672(0xd60)
1c015160:	5c2aa55c 	bne	$r10,$r28,10916(0x2aa4) # 1c017c04 <inst_error>
1c015164:	5c2aa17d 	bne	$r11,$r29,10912(0x2aa0) # 1c017c04 <inst_error>
1c015168:	143c2410 	lu12i.w	$r16,123168(0x1e120)
1c01516c:	02a81210 	addi.w	$r16,$r16,-1532(0xa04)
1c015170:	14082ab1 	lu12i.w	$r17,16725(0x4155)
1c015174:	02b8aa31 	addi.w	$r17,$r17,-470(0xe2a)
1c015178:	1400000a 	lu12i.w	$r10,0
1c01517c:	1400000b 	lu12i.w	$r11,0
1c015180:	50001400 	b	20(0x14) # 1c015194 <n16_beq_test+0x4b34>
1c015184:	143c240a 	lu12i.w	$r10,123168(0x1e120)
1c015188:	02a8114a 	addi.w	$r10,$r10,-1532(0xa04)
1c01518c:	580021ac 	beq	$r13,$r12,32(0x20) # 1c0151ac <n16_beq_test+0x4b4c>
1c015190:	50002400 	b	36(0x24) # 1c0151b4 <n16_beq_test+0x4b54>
1c015194:	1441120c 	lu12i.w	$r12,133264(0x20890)
1c015198:	0294418c 	addi.w	$r12,$r12,1296(0x510)
1c01519c:	1441120d 	lu12i.w	$r13,133264(0x20890)
1c0151a0:	029441ad 	addi.w	$r13,$r13,1296(0x510)
1c0151a4:	5bffe18d 	beq	$r12,$r13,-32(0x3ffe0) # 1c015184 <n16_beq_test+0x4b24>
1c0151a8:	50000c00 	b	12(0xc) # 1c0151b4 <n16_beq_test+0x4b54>
1c0151ac:	14082aab 	lu12i.w	$r11,16725(0x4155)
1c0151b0:	02b8a96b 	addi.w	$r11,$r11,-470(0xe2a)
1c0151b4:	143c241c 	lu12i.w	$r28,123168(0x1e120)
1c0151b8:	02a8139c 	addi.w	$r28,$r28,-1532(0xa04)
1c0151bc:	14082abd 	lu12i.w	$r29,16725(0x4155)
1c0151c0:	02b8abbd 	addi.w	$r29,$r29,-470(0xe2a)
1c0151c4:	5c2a415c 	bne	$r10,$r28,10816(0x2a40) # 1c017c04 <inst_error>
1c0151c8:	5c2a3d7d 	bne	$r11,$r29,10812(0x2a3c) # 1c017c04 <inst_error>
1c0151cc:	150d0df0 	lu12i.w	$r16,-497553(0x8686f)
1c0151d0:	029caa10 	addi.w	$r16,$r16,1834(0x72a)
1c0151d4:	1449cd91 	lu12i.w	$r17,151148(0x24e6c)
1c0151d8:	02a8ba31 	addi.w	$r17,$r17,-1490(0xa2e)
1c0151dc:	1400000a 	lu12i.w	$r10,0
1c0151e0:	1400000b 	lu12i.w	$r11,0
1c0151e4:	50001400 	b	20(0x14) # 1c0151f8 <n16_beq_test+0x4b98>
1c0151e8:	150d0dea 	lu12i.w	$r10,-497553(0x8686f)
1c0151ec:	029ca94a 	addi.w	$r10,$r10,1834(0x72a)
1c0151f0:	580021ac 	beq	$r13,$r12,32(0x20) # 1c015210 <n16_beq_test+0x4bb0>
1c0151f4:	50002400 	b	36(0x24) # 1c015218 <n16_beq_test+0x4bb8>
1c0151f8:	14cbb2ac 	lu12i.w	$r12,417173(0x65d95)
1c0151fc:	02985d8c 	addi.w	$r12,$r12,1559(0x617)
1c015200:	14cbb2ad 	lu12i.w	$r13,417173(0x65d95)
1c015204:	02985dad 	addi.w	$r13,$r13,1559(0x617)
1c015208:	5bffe18d 	beq	$r12,$r13,-32(0x3ffe0) # 1c0151e8 <n16_beq_test+0x4b88>
1c01520c:	50000c00 	b	12(0xc) # 1c015218 <n16_beq_test+0x4bb8>
1c015210:	1449cd8b 	lu12i.w	$r11,151148(0x24e6c)
1c015214:	02a8b96b 	addi.w	$r11,$r11,-1490(0xa2e)
1c015218:	150d0dfc 	lu12i.w	$r28,-497553(0x8686f)
1c01521c:	029cab9c 	addi.w	$r28,$r28,1834(0x72a)
1c015220:	1449cd9d 	lu12i.w	$r29,151148(0x24e6c)
1c015224:	02a8bbbd 	addi.w	$r29,$r29,-1490(0xa2e)
1c015228:	5c29dd5c 	bne	$r10,$r28,10716(0x29dc) # 1c017c04 <inst_error>
1c01522c:	5c29d97d 	bne	$r11,$r29,10712(0x29d8) # 1c017c04 <inst_error>
1c015230:	14d45e50 	lu12i.w	$r16,434930(0x6a2f2)
1c015234:	02b60210 	addi.w	$r16,$r16,-640(0xd80)
1c015238:	141646f1 	lu12i.w	$r17,45623(0xb237)
1c01523c:	028f8231 	addi.w	$r17,$r17,992(0x3e0)
1c015240:	1400000a 	lu12i.w	$r10,0
1c015244:	1400000b 	lu12i.w	$r11,0
1c015248:	50001400 	b	20(0x14) # 1c01525c <n16_beq_test+0x4bfc>
1c01524c:	14d45e4a 	lu12i.w	$r10,434930(0x6a2f2)
1c015250:	02b6014a 	addi.w	$r10,$r10,-640(0xd80)
1c015254:	580021ac 	beq	$r13,$r12,32(0x20) # 1c015274 <n16_beq_test+0x4c14>
1c015258:	50002400 	b	36(0x24) # 1c01527c <n16_beq_test+0x4c1c>
1c01525c:	15742dac 	lu12i.w	$r12,-286355(0xba16d)
1c015260:	02a5518c 	addi.w	$r12,$r12,-1708(0x954)
1c015264:	15742dad 	lu12i.w	$r13,-286355(0xba16d)
1c015268:	02a551ad 	addi.w	$r13,$r13,-1708(0x954)
1c01526c:	5bffe18d 	beq	$r12,$r13,-32(0x3ffe0) # 1c01524c <n16_beq_test+0x4bec>
1c015270:	50000c00 	b	12(0xc) # 1c01527c <n16_beq_test+0x4c1c>
1c015274:	141646eb 	lu12i.w	$r11,45623(0xb237)
1c015278:	028f816b 	addi.w	$r11,$r11,992(0x3e0)
1c01527c:	14d45e5c 	lu12i.w	$r28,434930(0x6a2f2)
1c015280:	02b6039c 	addi.w	$r28,$r28,-640(0xd80)
1c015284:	141646fd 	lu12i.w	$r29,45623(0xb237)
1c015288:	028f83bd 	addi.w	$r29,$r29,992(0x3e0)
1c01528c:	5c29795c 	bne	$r10,$r28,10616(0x2978) # 1c017c04 <inst_error>
1c015290:	5c29757d 	bne	$r11,$r29,10612(0x2974) # 1c017c04 <inst_error>
1c015294:	15f25b10 	lu12i.w	$r16,-27944(0xf92d8)
1c015298:	02a45a10 	addi.w	$r16,$r16,-1770(0x916)
1c01529c:	140d7dd1 	lu12i.w	$r17,27630(0x6bee)
1c0152a0:	0282da31 	addi.w	$r17,$r17,182(0xb6)
1c0152a4:	1400000a 	lu12i.w	$r10,0
1c0152a8:	1400000b 	lu12i.w	$r11,0
1c0152ac:	50001400 	b	20(0x14) # 1c0152c0 <n16_beq_test+0x4c60>
1c0152b0:	15f25b0a 	lu12i.w	$r10,-27944(0xf92d8)
1c0152b4:	02a4594a 	addi.w	$r10,$r10,-1770(0x916)
1c0152b8:	580021ac 	beq	$r13,$r12,32(0x20) # 1c0152d8 <n16_beq_test+0x4c78>
1c0152bc:	50002400 	b	36(0x24) # 1c0152e0 <n16_beq_test+0x4c80>
1c0152c0:	154a3bcc 	lu12i.w	$r12,-372258(0xa51de)
1c0152c4:	02b5018c 	addi.w	$r12,$r12,-704(0xd40)
1c0152c8:	154a3bcd 	lu12i.w	$r13,-372258(0xa51de)
1c0152cc:	02b501ad 	addi.w	$r13,$r13,-704(0xd40)
1c0152d0:	5bffe18d 	beq	$r12,$r13,-32(0x3ffe0) # 1c0152b0 <n16_beq_test+0x4c50>
1c0152d4:	50000c00 	b	12(0xc) # 1c0152e0 <n16_beq_test+0x4c80>
1c0152d8:	140d7dcb 	lu12i.w	$r11,27630(0x6bee)
1c0152dc:	0282d96b 	addi.w	$r11,$r11,182(0xb6)
1c0152e0:	15f25b1c 	lu12i.w	$r28,-27944(0xf92d8)
1c0152e4:	02a45b9c 	addi.w	$r28,$r28,-1770(0x916)
1c0152e8:	140d7ddd 	lu12i.w	$r29,27630(0x6bee)
1c0152ec:	0282dbbd 	addi.w	$r29,$r29,182(0xb6)
1c0152f0:	5c29155c 	bne	$r10,$r28,10516(0x2914) # 1c017c04 <inst_error>
1c0152f4:	5c29117d 	bne	$r11,$r29,10512(0x2910) # 1c017c04 <inst_error>
1c0152f8:	152271f0 	lu12i.w	$r16,-453745(0x9138f)
1c0152fc:	02b50210 	addi.w	$r16,$r16,-704(0xd40)
1c015300:	148fd0b1 	lu12i.w	$r17,294533(0x47e85)
1c015304:	02bd9231 	addi.w	$r17,$r17,-156(0xf64)
1c015308:	1400000a 	lu12i.w	$r10,0
1c01530c:	1400000b 	lu12i.w	$r11,0
1c015310:	50001400 	b	20(0x14) # 1c015324 <n16_beq_test+0x4cc4>
1c015314:	152271ea 	lu12i.w	$r10,-453745(0x9138f)
1c015318:	02b5014a 	addi.w	$r10,$r10,-704(0xd40)
1c01531c:	580021ac 	beq	$r13,$r12,32(0x20) # 1c01533c <n16_beq_test+0x4cdc>
1c015320:	50002400 	b	36(0x24) # 1c015344 <n16_beq_test+0x4ce4>
1c015324:	15ad350c 	lu12i.w	$r12,-169560(0xd69a8)
1c015328:	0299e58c 	addi.w	$r12,$r12,1657(0x679)
1c01532c:	15ad350d 	lu12i.w	$r13,-169560(0xd69a8)
1c015330:	0299e5ad 	addi.w	$r13,$r13,1657(0x679)
1c015334:	5bffe18d 	beq	$r12,$r13,-32(0x3ffe0) # 1c015314 <n16_beq_test+0x4cb4>
1c015338:	50000c00 	b	12(0xc) # 1c015344 <n16_beq_test+0x4ce4>
1c01533c:	148fd0ab 	lu12i.w	$r11,294533(0x47e85)
1c015340:	02bd916b 	addi.w	$r11,$r11,-156(0xf64)
1c015344:	152271fc 	lu12i.w	$r28,-453745(0x9138f)
1c015348:	02b5039c 	addi.w	$r28,$r28,-704(0xd40)
1c01534c:	148fd0bd 	lu12i.w	$r29,294533(0x47e85)
1c015350:	02bd93bd 	addi.w	$r29,$r29,-156(0xf64)
1c015354:	5c28b15c 	bne	$r10,$r28,10416(0x28b0) # 1c017c04 <inst_error>
1c015358:	5c28ad7d 	bne	$r11,$r29,10412(0x28ac) # 1c017c04 <inst_error>
1c01535c:	150d3b30 	lu12i.w	$r16,-497191(0x869d9)
1c015360:	02bc9210 	addi.w	$r16,$r16,-220(0xf24)
1c015364:	14702af1 	lu12i.w	$r17,229719(0x38157)
1c015368:	02828231 	addi.w	$r17,$r17,160(0xa0)
1c01536c:	1400000a 	lu12i.w	$r10,0
1c015370:	1400000b 	lu12i.w	$r11,0
1c015374:	50001400 	b	20(0x14) # 1c015388 <n16_beq_test+0x4d28>
1c015378:	150d3b2a 	lu12i.w	$r10,-497191(0x869d9)
1c01537c:	02bc914a 	addi.w	$r10,$r10,-220(0xf24)
1c015380:	580021ac 	beq	$r13,$r12,32(0x20) # 1c0153a0 <n16_beq_test+0x4d40>
1c015384:	50002400 	b	36(0x24) # 1c0153a8 <n16_beq_test+0x4d48>
1c015388:	151ede6c 	lu12i.w	$r12,-461069(0x8f6f3)
1c01538c:	02a7e58c 	addi.w	$r12,$r12,-1543(0x9f9)
1c015390:	151ede6d 	lu12i.w	$r13,-461069(0x8f6f3)
1c015394:	02a7e5ad 	addi.w	$r13,$r13,-1543(0x9f9)
1c015398:	5bffe18d 	beq	$r12,$r13,-32(0x3ffe0) # 1c015378 <n16_beq_test+0x4d18>
1c01539c:	50000c00 	b	12(0xc) # 1c0153a8 <n16_beq_test+0x4d48>
1c0153a0:	14702aeb 	lu12i.w	$r11,229719(0x38157)
1c0153a4:	0282816b 	addi.w	$r11,$r11,160(0xa0)
1c0153a8:	150d3b3c 	lu12i.w	$r28,-497191(0x869d9)
1c0153ac:	02bc939c 	addi.w	$r28,$r28,-220(0xf24)
1c0153b0:	14702afd 	lu12i.w	$r29,229719(0x38157)
1c0153b4:	028283bd 	addi.w	$r29,$r29,160(0xa0)
1c0153b8:	5c284d5c 	bne	$r10,$r28,10316(0x284c) # 1c017c04 <inst_error>
1c0153bc:	5c28497d 	bne	$r11,$r29,10312(0x2848) # 1c017c04 <inst_error>
1c0153c0:	14d468b0 	lu12i.w	$r16,435013(0x6a345)
1c0153c4:	02872210 	addi.w	$r16,$r16,456(0x1c8)
1c0153c8:	152c6b71 	lu12i.w	$r17,-433317(0x9635b)
1c0153cc:	02807231 	addi.w	$r17,$r17,28(0x1c)
1c0153d0:	1400000a 	lu12i.w	$r10,0
1c0153d4:	1400000b 	lu12i.w	$r11,0
1c0153d8:	50001400 	b	20(0x14) # 1c0153ec <n16_beq_test+0x4d8c>
1c0153dc:	14d468aa 	lu12i.w	$r10,435013(0x6a345)
1c0153e0:	0287214a 	addi.w	$r10,$r10,456(0x1c8)
1c0153e4:	580021ac 	beq	$r13,$r12,32(0x20) # 1c015404 <n16_beq_test+0x4da4>
1c0153e8:	50002400 	b	36(0x24) # 1c01540c <n16_beq_test+0x4dac>
1c0153ec:	14b4d80c 	lu12i.w	$r12,370368(0x5a6c0)
1c0153f0:	0284b18c 	addi.w	$r12,$r12,300(0x12c)
1c0153f4:	14b4d80d 	lu12i.w	$r13,370368(0x5a6c0)
1c0153f8:	0284b1ad 	addi.w	$r13,$r13,300(0x12c)
1c0153fc:	5bffe18d 	beq	$r12,$r13,-32(0x3ffe0) # 1c0153dc <n16_beq_test+0x4d7c>
1c015400:	50000c00 	b	12(0xc) # 1c01540c <n16_beq_test+0x4dac>
1c015404:	152c6b6b 	lu12i.w	$r11,-433317(0x9635b)
1c015408:	0280716b 	addi.w	$r11,$r11,28(0x1c)
1c01540c:	14d468bc 	lu12i.w	$r28,435013(0x6a345)
1c015410:	0287239c 	addi.w	$r28,$r28,456(0x1c8)
1c015414:	152c6b7d 	lu12i.w	$r29,-433317(0x9635b)
1c015418:	028073bd 	addi.w	$r29,$r29,28(0x1c)
1c01541c:	5c27e95c 	bne	$r10,$r28,10216(0x27e8) # 1c017c04 <inst_error>
1c015420:	5c27e57d 	bne	$r11,$r29,10212(0x27e4) # 1c017c04 <inst_error>
1c015424:	14d6e350 	lu12i.w	$r16,440090(0x6b71a)
1c015428:	02a5d610 	addi.w	$r16,$r16,-1675(0x975)
1c01542c:	14e72071 	lu12i.w	$r17,473347(0x73903)
1c015430:	02bf4231 	addi.w	$r17,$r17,-48(0xfd0)
1c015434:	1400000a 	lu12i.w	$r10,0
1c015438:	1400000b 	lu12i.w	$r11,0
1c01543c:	50001400 	b	20(0x14) # 1c015450 <n16_beq_test+0x4df0>
1c015440:	14d6e34a 	lu12i.w	$r10,440090(0x6b71a)
1c015444:	02a5d54a 	addi.w	$r10,$r10,-1675(0x975)
1c015448:	580021ac 	beq	$r13,$r12,32(0x20) # 1c015468 <n16_beq_test+0x4e08>
1c01544c:	50002400 	b	36(0x24) # 1c015470 <n16_beq_test+0x4e10>
1c015450:	1536a32c 	lu12i.w	$r12,-412391(0x9b519)
1c015454:	028c818c 	addi.w	$r12,$r12,800(0x320)
1c015458:	1536a32d 	lu12i.w	$r13,-412391(0x9b519)
1c01545c:	028c81ad 	addi.w	$r13,$r13,800(0x320)
1c015460:	5bffe18d 	beq	$r12,$r13,-32(0x3ffe0) # 1c015440 <n16_beq_test+0x4de0>
1c015464:	50000c00 	b	12(0xc) # 1c015470 <n16_beq_test+0x4e10>
1c015468:	14e7206b 	lu12i.w	$r11,473347(0x73903)
1c01546c:	02bf416b 	addi.w	$r11,$r11,-48(0xfd0)
1c015470:	14d6e35c 	lu12i.w	$r28,440090(0x6b71a)
1c015474:	02a5d79c 	addi.w	$r28,$r28,-1675(0x975)
1c015478:	14e7207d 	lu12i.w	$r29,473347(0x73903)
1c01547c:	02bf43bd 	addi.w	$r29,$r29,-48(0xfd0)
1c015480:	5c27855c 	bne	$r10,$r28,10116(0x2784) # 1c017c04 <inst_error>
1c015484:	5c27817d 	bne	$r11,$r29,10112(0x2780) # 1c017c04 <inst_error>
1c015488:	150f7970 	lu12i.w	$r16,-492597(0x87bcb)
1c01548c:	02b34210 	addi.w	$r16,$r16,-816(0xcd0)
1c015490:	1568a031 	lu12i.w	$r17,-310015(0xb4501)
1c015494:	02a60231 	addi.w	$r17,$r17,-1664(0x980)
1c015498:	1400000a 	lu12i.w	$r10,0
1c01549c:	1400000b 	lu12i.w	$r11,0
1c0154a0:	50001400 	b	20(0x14) # 1c0154b4 <n16_beq_test+0x4e54>
1c0154a4:	150f796a 	lu12i.w	$r10,-492597(0x87bcb)
1c0154a8:	02b3414a 	addi.w	$r10,$r10,-816(0xcd0)
1c0154ac:	580021ac 	beq	$r13,$r12,32(0x20) # 1c0154cc <n16_beq_test+0x4e6c>
1c0154b0:	50002400 	b	36(0x24) # 1c0154d4 <n16_beq_test+0x4e74>
1c0154b4:	1473750c 	lu12i.w	$r12,236456(0x39ba8)
1c0154b8:	02a3b98c 	addi.w	$r12,$r12,-1810(0x8ee)
1c0154bc:	1400000d 	lu12i.w	$r13,0
1c0154c0:	028001ad 	addi.w	$r13,$r13,0
1c0154c4:	5bffe18d 	beq	$r12,$r13,-32(0x3ffe0) # 1c0154a4 <n16_beq_test+0x4e44>
1c0154c8:	50000c00 	b	12(0xc) # 1c0154d4 <n16_beq_test+0x4e74>
1c0154cc:	1568a02b 	lu12i.w	$r11,-310015(0xb4501)
1c0154d0:	02a6016b 	addi.w	$r11,$r11,-1664(0x980)
1c0154d4:	1400001c 	lu12i.w	$r28,0
1c0154d8:	0280039c 	addi.w	$r28,$r28,0
1c0154dc:	1400001d 	lu12i.w	$r29,0
1c0154e0:	028003bd 	addi.w	$r29,$r29,0
1c0154e4:	5c27215c 	bne	$r10,$r28,10016(0x2720) # 1c017c04 <inst_error>
1c0154e8:	5c271d7d 	bne	$r11,$r29,10012(0x271c) # 1c017c04 <inst_error>
1c0154ec:	143e3d30 	lu12i.w	$r16,127465(0x1f1e9)
1c0154f0:	028b2a10 	addi.w	$r16,$r16,714(0x2ca)
1c0154f4:	14b4ea51 	lu12i.w	$r17,370514(0x5a752)
1c0154f8:	028ad231 	addi.w	$r17,$r17,692(0x2b4)
1c0154fc:	1400000a 	lu12i.w	$r10,0
1c015500:	1400000b 	lu12i.w	$r11,0
1c015504:	50001400 	b	20(0x14) # 1c015518 <n16_beq_test+0x4eb8>
1c015508:	143e3d2a 	lu12i.w	$r10,127465(0x1f1e9)
1c01550c:	028b294a 	addi.w	$r10,$r10,714(0x2ca)
1c015510:	580021ac 	beq	$r13,$r12,32(0x20) # 1c015530 <n16_beq_test+0x4ed0>
1c015514:	50002400 	b	36(0x24) # 1c015538 <n16_beq_test+0x4ed8>
1c015518:	14915aec 	lu12i.w	$r12,297687(0x48ad7)
1c01551c:	029fb18c 	addi.w	$r12,$r12,2028(0x7ec)
1c015520:	1400000d 	lu12i.w	$r13,0
1c015524:	028001ad 	addi.w	$r13,$r13,0
1c015528:	5bffe18d 	beq	$r12,$r13,-32(0x3ffe0) # 1c015508 <n16_beq_test+0x4ea8>
1c01552c:	50000c00 	b	12(0xc) # 1c015538 <n16_beq_test+0x4ed8>
1c015530:	14b4ea4b 	lu12i.w	$r11,370514(0x5a752)
1c015534:	028ad16b 	addi.w	$r11,$r11,692(0x2b4)
1c015538:	1400001c 	lu12i.w	$r28,0
1c01553c:	0280039c 	addi.w	$r28,$r28,0
1c015540:	1400001d 	lu12i.w	$r29,0
1c015544:	028003bd 	addi.w	$r29,$r29,0
1c015548:	5c26bd5c 	bne	$r10,$r28,9916(0x26bc) # 1c017c04 <inst_error>
1c01554c:	5c26b97d 	bne	$r11,$r29,9912(0x26b8) # 1c017c04 <inst_error>
1c015550:	14940e50 	lu12i.w	$r16,303218(0x4a072)
1c015554:	029b0210 	addi.w	$r16,$r16,1728(0x6c0)
1c015558:	15fb6091 	lu12i.w	$r17,-9468(0xfdb04)
1c01555c:	02a6aa31 	addi.w	$r17,$r17,-1622(0x9aa)
1c015560:	1400000a 	lu12i.w	$r10,0
1c015564:	1400000b 	lu12i.w	$r11,0
1c015568:	50001400 	b	20(0x14) # 1c01557c <n16_beq_test+0x4f1c>
1c01556c:	14940e4a 	lu12i.w	$r10,303218(0x4a072)
1c015570:	029b014a 	addi.w	$r10,$r10,1728(0x6c0)
1c015574:	580021ac 	beq	$r13,$r12,32(0x20) # 1c015594 <n16_beq_test+0x4f34>
1c015578:	50002400 	b	36(0x24) # 1c01559c <n16_beq_test+0x4f3c>
1c01557c:	15d2ce0c 	lu12i.w	$r12,-92560(0xe9670)
1c015580:	02ba818c 	addi.w	$r12,$r12,-352(0xea0)
1c015584:	1400000d 	lu12i.w	$r13,0
1c015588:	028001ad 	addi.w	$r13,$r13,0
1c01558c:	5bffe18d 	beq	$r12,$r13,-32(0x3ffe0) # 1c01556c <n16_beq_test+0x4f0c>
1c015590:	50000c00 	b	12(0xc) # 1c01559c <n16_beq_test+0x4f3c>
1c015594:	15fb608b 	lu12i.w	$r11,-9468(0xfdb04)
1c015598:	02a6a96b 	addi.w	$r11,$r11,-1622(0x9aa)
1c01559c:	1400001c 	lu12i.w	$r28,0
1c0155a0:	0280039c 	addi.w	$r28,$r28,0
1c0155a4:	1400001d 	lu12i.w	$r29,0
1c0155a8:	028003bd 	addi.w	$r29,$r29,0
1c0155ac:	5c26595c 	bne	$r10,$r28,9816(0x2658) # 1c017c04 <inst_error>
1c0155b0:	5c26557d 	bne	$r11,$r29,9812(0x2654) # 1c017c04 <inst_error>
1c0155b4:	14085810 	lu12i.w	$r16,17088(0x42c0)
1c0155b8:	029a0a10 	addi.w	$r16,$r16,1666(0x682)
1c0155bc:	141e28b1 	lu12i.w	$r17,61765(0xf145)
1c0155c0:	02ada231 	addi.w	$r17,$r17,-1176(0xb68)
1c0155c4:	1400000a 	lu12i.w	$r10,0
1c0155c8:	1400000b 	lu12i.w	$r11,0
1c0155cc:	50001400 	b	20(0x14) # 1c0155e0 <n16_beq_test+0x4f80>
1c0155d0:	1408580a 	lu12i.w	$r10,17088(0x42c0)
1c0155d4:	029a094a 	addi.w	$r10,$r10,1666(0x682)
1c0155d8:	580021ac 	beq	$r13,$r12,32(0x20) # 1c0155f8 <n16_beq_test+0x4f98>
1c0155dc:	50002400 	b	36(0x24) # 1c015600 <n16_beq_test+0x4fa0>
1c0155e0:	14eed70c 	lu12i.w	$r12,489144(0x776b8)
1c0155e4:	029cc18c 	addi.w	$r12,$r12,1840(0x730)
1c0155e8:	1400000d 	lu12i.w	$r13,0
1c0155ec:	028001ad 	addi.w	$r13,$r13,0
1c0155f0:	5bffe18d 	beq	$r12,$r13,-32(0x3ffe0) # 1c0155d0 <n16_beq_test+0x4f70>
1c0155f4:	50000c00 	b	12(0xc) # 1c015600 <n16_beq_test+0x4fa0>
1c0155f8:	141e28ab 	lu12i.w	$r11,61765(0xf145)
1c0155fc:	02ada16b 	addi.w	$r11,$r11,-1176(0xb68)
1c015600:	1400001c 	lu12i.w	$r28,0
1c015604:	0280039c 	addi.w	$r28,$r28,0
1c015608:	1400001d 	lu12i.w	$r29,0
1c01560c:	028003bd 	addi.w	$r29,$r29,0
1c015610:	5c25f55c 	bne	$r10,$r28,9716(0x25f4) # 1c017c04 <inst_error>
1c015614:	5c25f17d 	bne	$r11,$r29,9712(0x25f0) # 1c017c04 <inst_error>
1c015618:	15945370 	lu12i.w	$r16,-220517(0xca29b)
1c01561c:	02b70210 	addi.w	$r16,$r16,-576(0xdc0)
1c015620:	150a3731 	lu12i.w	$r17,-503367(0x851b9)
1c015624:	0289c231 	addi.w	$r17,$r17,624(0x270)
1c015628:	1400000a 	lu12i.w	$r10,0
1c01562c:	1400000b 	lu12i.w	$r11,0
1c015630:	50001400 	b	20(0x14) # 1c015644 <n16_beq_test+0x4fe4>
1c015634:	1594536a 	lu12i.w	$r10,-220517(0xca29b)
1c015638:	02b7014a 	addi.w	$r10,$r10,-576(0xdc0)
1c01563c:	580021ac 	beq	$r13,$r12,32(0x20) # 1c01565c <n16_beq_test+0x4ffc>
1c015640:	50002400 	b	36(0x24) # 1c015664 <n16_beq_test+0x5004>
1c015644:	144891ac 	lu12i.w	$r12,148621(0x2448d)
1c015648:	02b6818c 	addi.w	$r12,$r12,-608(0xda0)
1c01564c:	1400000d 	lu12i.w	$r13,0
1c015650:	028001ad 	addi.w	$r13,$r13,0
1c015654:	5bffe18d 	beq	$r12,$r13,-32(0x3ffe0) # 1c015634 <n16_beq_test+0x4fd4>
1c015658:	50000c00 	b	12(0xc) # 1c015664 <n16_beq_test+0x5004>
1c01565c:	150a372b 	lu12i.w	$r11,-503367(0x851b9)
1c015660:	0289c16b 	addi.w	$r11,$r11,624(0x270)
1c015664:	1400001c 	lu12i.w	$r28,0
1c015668:	0280039c 	addi.w	$r28,$r28,0
1c01566c:	1400001d 	lu12i.w	$r29,0
1c015670:	028003bd 	addi.w	$r29,$r29,0
1c015674:	5c25915c 	bne	$r10,$r28,9616(0x2590) # 1c017c04 <inst_error>
1c015678:	5c258d7d 	bne	$r11,$r29,9612(0x258c) # 1c017c04 <inst_error>
1c01567c:	14e096b0 	lu12i.w	$r16,459957(0x704b5)
1c015680:	028b9a10 	addi.w	$r16,$r16,742(0x2e6)
1c015684:	1476c391 	lu12i.w	$r17,243228(0x3b61c)
1c015688:	02885a31 	addi.w	$r17,$r17,534(0x216)
1c01568c:	1400000a 	lu12i.w	$r10,0
1c015690:	1400000b 	lu12i.w	$r11,0
1c015694:	50001400 	b	20(0x14) # 1c0156a8 <n16_beq_test+0x5048>
1c015698:	14e096aa 	lu12i.w	$r10,459957(0x704b5)
1c01569c:	028b994a 	addi.w	$r10,$r10,742(0x2e6)
1c0156a0:	580021ac 	beq	$r13,$r12,32(0x20) # 1c0156c0 <n16_beq_test+0x5060>
1c0156a4:	50002400 	b	36(0x24) # 1c0156c8 <n16_beq_test+0x5068>
1c0156a8:	150ef3ec 	lu12i.w	$r12,-493665(0x8779f)
1c0156ac:	02a3cd8c 	addi.w	$r12,$r12,-1805(0x8f3)
1c0156b0:	1400000d 	lu12i.w	$r13,0
1c0156b4:	028001ad 	addi.w	$r13,$r13,0
1c0156b8:	5bffe18d 	beq	$r12,$r13,-32(0x3ffe0) # 1c015698 <n16_beq_test+0x5038>
1c0156bc:	50000c00 	b	12(0xc) # 1c0156c8 <n16_beq_test+0x5068>
1c0156c0:	1476c38b 	lu12i.w	$r11,243228(0x3b61c)
1c0156c4:	0288596b 	addi.w	$r11,$r11,534(0x216)
1c0156c8:	1400001c 	lu12i.w	$r28,0
1c0156cc:	0280039c 	addi.w	$r28,$r28,0
1c0156d0:	1400001d 	lu12i.w	$r29,0
1c0156d4:	028003bd 	addi.w	$r29,$r29,0
1c0156d8:	5c252d5c 	bne	$r10,$r28,9516(0x252c) # 1c017c04 <inst_error>
1c0156dc:	5c25297d 	bne	$r11,$r29,9512(0x2528) # 1c017c04 <inst_error>
1c0156e0:	14d723d0 	lu12i.w	$r16,440606(0x6b91e)
1c0156e4:	02a08210 	addi.w	$r16,$r16,-2016(0x820)
1c0156e8:	148461b1 	lu12i.w	$r17,271117(0x4230d)
1c0156ec:	02868231 	addi.w	$r17,$r17,416(0x1a0)
1c0156f0:	1400000a 	lu12i.w	$r10,0
1c0156f4:	1400000b 	lu12i.w	$r11,0
1c0156f8:	50001400 	b	20(0x14) # 1c01570c <n16_beq_test+0x50ac>
1c0156fc:	14d723ca 	lu12i.w	$r10,440606(0x6b91e)
1c015700:	02a0814a 	addi.w	$r10,$r10,-2016(0x820)
1c015704:	580021ac 	beq	$r13,$r12,32(0x20) # 1c015724 <n16_beq_test+0x50c4>
1c015708:	50002400 	b	36(0x24) # 1c01572c <n16_beq_test+0x50cc>
1c01570c:	1432a24c 	lu12i.w	$r12,103698(0x19512)
1c015710:	02ac5d8c 	addi.w	$r12,$r12,-1257(0xb17)
1c015714:	1400000d 	lu12i.w	$r13,0
1c015718:	028001ad 	addi.w	$r13,$r13,0
1c01571c:	5bffe18d 	beq	$r12,$r13,-32(0x3ffe0) # 1c0156fc <n16_beq_test+0x509c>
1c015720:	50000c00 	b	12(0xc) # 1c01572c <n16_beq_test+0x50cc>
1c015724:	148461ab 	lu12i.w	$r11,271117(0x4230d)
1c015728:	0286816b 	addi.w	$r11,$r11,416(0x1a0)
1c01572c:	1400001c 	lu12i.w	$r28,0
1c015730:	0280039c 	addi.w	$r28,$r28,0
1c015734:	1400001d 	lu12i.w	$r29,0
1c015738:	028003bd 	addi.w	$r29,$r29,0
1c01573c:	5c24c95c 	bne	$r10,$r28,9416(0x24c8) # 1c017c04 <inst_error>
1c015740:	5c24c57d 	bne	$r11,$r29,9412(0x24c4) # 1c017c04 <inst_error>
1c015744:	14519170 	lu12i.w	$r16,167051(0x28c8b)
1c015748:	02be2210 	addi.w	$r16,$r16,-120(0xf88)
1c01574c:	1548dd51 	lu12i.w	$r17,-375062(0xa46ea)
1c015750:	02ae6a31 	addi.w	$r17,$r17,-1126(0xb9a)
1c015754:	1400000a 	lu12i.w	$r10,0
1c015758:	1400000b 	lu12i.w	$r11,0
1c01575c:	50001400 	b	20(0x14) # 1c015770 <n16_beq_test+0x5110>
1c015760:	1451916a 	lu12i.w	$r10,167051(0x28c8b)
1c015764:	02be214a 	addi.w	$r10,$r10,-120(0xf88)
1c015768:	580021ac 	beq	$r13,$r12,32(0x20) # 1c015788 <n16_beq_test+0x5128>
1c01576c:	50002400 	b	36(0x24) # 1c015790 <n16_beq_test+0x5130>
1c015770:	14e5918c 	lu12i.w	$r12,470156(0x72c8c)
1c015774:	02b8018c 	addi.w	$r12,$r12,-512(0xe00)
1c015778:	1400000d 	lu12i.w	$r13,0
1c01577c:	028001ad 	addi.w	$r13,$r13,0
1c015780:	5bffe18d 	beq	$r12,$r13,-32(0x3ffe0) # 1c015760 <n16_beq_test+0x5100>
1c015784:	50000c00 	b	12(0xc) # 1c015790 <n16_beq_test+0x5130>
1c015788:	1548dd4b 	lu12i.w	$r11,-375062(0xa46ea)
1c01578c:	02ae696b 	addi.w	$r11,$r11,-1126(0xb9a)
1c015790:	1400001c 	lu12i.w	$r28,0
1c015794:	0280039c 	addi.w	$r28,$r28,0
1c015798:	1400001d 	lu12i.w	$r29,0
1c01579c:	028003bd 	addi.w	$r29,$r29,0
1c0157a0:	5c24655c 	bne	$r10,$r28,9316(0x2464) # 1c017c04 <inst_error>
1c0157a4:	5c24617d 	bne	$r11,$r29,9312(0x2460) # 1c017c04 <inst_error>
1c0157a8:	15407530 	lu12i.w	$r16,-392279(0xa03a9)
1c0157ac:	02af4210 	addi.w	$r16,$r16,-1072(0xbd0)
1c0157b0:	14d3b9b1 	lu12i.w	$r17,433613(0x69dcd)
1c0157b4:	02bb3a31 	addi.w	$r17,$r17,-306(0xece)
1c0157b8:	1400000a 	lu12i.w	$r10,0
1c0157bc:	1400000b 	lu12i.w	$r11,0
1c0157c0:	50001400 	b	20(0x14) # 1c0157d4 <n16_beq_test+0x5174>
1c0157c4:	1540752a 	lu12i.w	$r10,-392279(0xa03a9)
1c0157c8:	02af414a 	addi.w	$r10,$r10,-1072(0xbd0)
1c0157cc:	580021ac 	beq	$r13,$r12,32(0x20) # 1c0157ec <n16_beq_test+0x518c>
1c0157d0:	50002400 	b	36(0x24) # 1c0157f4 <n16_beq_test+0x5194>
1c0157d4:	146f402c 	lu12i.w	$r12,227841(0x37a01)
1c0157d8:	02a0818c 	addi.w	$r12,$r12,-2016(0x820)
1c0157dc:	1400000d 	lu12i.w	$r13,0
1c0157e0:	028001ad 	addi.w	$r13,$r13,0
1c0157e4:	5bffe18d 	beq	$r12,$r13,-32(0x3ffe0) # 1c0157c4 <n16_beq_test+0x5164>
1c0157e8:	50000c00 	b	12(0xc) # 1c0157f4 <n16_beq_test+0x5194>
1c0157ec:	14d3b9ab 	lu12i.w	$r11,433613(0x69dcd)
1c0157f0:	02bb396b 	addi.w	$r11,$r11,-306(0xece)
1c0157f4:	1400001c 	lu12i.w	$r28,0
1c0157f8:	0280039c 	addi.w	$r28,$r28,0
1c0157fc:	1400001d 	lu12i.w	$r29,0
1c015800:	028003bd 	addi.w	$r29,$r29,0
1c015804:	5c24015c 	bne	$r10,$r28,9216(0x2400) # 1c017c04 <inst_error>
1c015808:	5c23fd7d 	bne	$r11,$r29,9212(0x23fc) # 1c017c04 <inst_error>
1c01580c:	141e6010 	lu12i.w	$r16,62208(0xf300)
1c015810:	029d0210 	addi.w	$r16,$r16,1856(0x740)
1c015814:	14244ed1 	lu12i.w	$r17,74358(0x12276)
1c015818:	02b9aa31 	addi.w	$r17,$r17,-406(0xe6a)
1c01581c:	1400000a 	lu12i.w	$r10,0
1c015820:	1400000b 	lu12i.w	$r11,0
1c015824:	50001400 	b	20(0x14) # 1c015838 <n16_beq_test+0x51d8>
1c015828:	141e600a 	lu12i.w	$r10,62208(0xf300)
1c01582c:	029d014a 	addi.w	$r10,$r10,1856(0x740)
1c015830:	580021ac 	beq	$r13,$r12,32(0x20) # 1c015850 <n16_beq_test+0x51f0>
1c015834:	50002400 	b	36(0x24) # 1c015858 <n16_beq_test+0x51f8>
1c015838:	147e930c 	lu12i.w	$r12,259224(0x3f498)
1c01583c:	02a5bd8c 	addi.w	$r12,$r12,-1681(0x96f)
1c015840:	1400000d 	lu12i.w	$r13,0
1c015844:	028001ad 	addi.w	$r13,$r13,0
1c015848:	5bffe18d 	beq	$r12,$r13,-32(0x3ffe0) # 1c015828 <n16_beq_test+0x51c8>
1c01584c:	50000c00 	b	12(0xc) # 1c015858 <n16_beq_test+0x51f8>
1c015850:	14244ecb 	lu12i.w	$r11,74358(0x12276)
1c015854:	02b9a96b 	addi.w	$r11,$r11,-406(0xe6a)
1c015858:	1400001c 	lu12i.w	$r28,0
1c01585c:	0280039c 	addi.w	$r28,$r28,0
1c015860:	1400001d 	lu12i.w	$r29,0
1c015864:	028003bd 	addi.w	$r29,$r29,0
1c015868:	5c239d5c 	bne	$r10,$r28,9116(0x239c) # 1c017c04 <inst_error>
1c01586c:	5c23997d 	bne	$r11,$r29,9112(0x2398) # 1c017c04 <inst_error>
1c015870:	14f414d0 	lu12i.w	$r16,499878(0x7a0a6)
1c015874:	02ac0210 	addi.w	$r16,$r16,-1280(0xb00)
1c015878:	147b9d51 	lu12i.w	$r17,253162(0x3dcea)
1c01587c:	02ad4e31 	addi.w	$r17,$r17,-1197(0xb53)
1c015880:	1400000a 	lu12i.w	$r10,0
1c015884:	1400000b 	lu12i.w	$r11,0
1c015888:	50001400 	b	20(0x14) # 1c01589c <n16_beq_test+0x523c>
1c01588c:	14f414ca 	lu12i.w	$r10,499878(0x7a0a6)
1c015890:	02ac014a 	addi.w	$r10,$r10,-1280(0xb00)
1c015894:	580021ac 	beq	$r13,$r12,32(0x20) # 1c0158b4 <n16_beq_test+0x5254>
1c015898:	50002400 	b	36(0x24) # 1c0158bc <n16_beq_test+0x525c>
1c01589c:	1420a0ac 	lu12i.w	$r12,66821(0x10505)
1c0158a0:	028e2d8c 	addi.w	$r12,$r12,907(0x38b)
1c0158a4:	1400000d 	lu12i.w	$r13,0
1c0158a8:	028001ad 	addi.w	$r13,$r13,0
1c0158ac:	5bffe18d 	beq	$r12,$r13,-32(0x3ffe0) # 1c01588c <n16_beq_test+0x522c>
1c0158b0:	50000c00 	b	12(0xc) # 1c0158bc <n16_beq_test+0x525c>
1c0158b4:	147b9d4b 	lu12i.w	$r11,253162(0x3dcea)
1c0158b8:	02ad4d6b 	addi.w	$r11,$r11,-1197(0xb53)
1c0158bc:	1400001c 	lu12i.w	$r28,0
1c0158c0:	0280039c 	addi.w	$r28,$r28,0
1c0158c4:	1400001d 	lu12i.w	$r29,0
1c0158c8:	028003bd 	addi.w	$r29,$r29,0
1c0158cc:	5c23395c 	bne	$r10,$r28,9016(0x2338) # 1c017c04 <inst_error>
1c0158d0:	5c23357d 	bne	$r11,$r29,9012(0x2334) # 1c017c04 <inst_error>
1c0158d4:	14eafa70 	lu12i.w	$r16,481235(0x757d3)
1c0158d8:	028dc210 	addi.w	$r16,$r16,880(0x370)
1c0158dc:	14930771 	lu12i.w	$r17,301115(0x4983b)
1c0158e0:	0286e231 	addi.w	$r17,$r17,440(0x1b8)
1c0158e4:	1400000a 	lu12i.w	$r10,0
1c0158e8:	1400000b 	lu12i.w	$r11,0
1c0158ec:	50001400 	b	20(0x14) # 1c015900 <n16_beq_test+0x52a0>
1c0158f0:	14eafa6a 	lu12i.w	$r10,481235(0x757d3)
1c0158f4:	028dc14a 	addi.w	$r10,$r10,880(0x370)
1c0158f8:	580021ac 	beq	$r13,$r12,32(0x20) # 1c015918 <n16_beq_test+0x52b8>
1c0158fc:	50002400 	b	36(0x24) # 1c015920 <n16_beq_test+0x52c0>
1c015900:	146419ec 	lu12i.w	$r12,205007(0x320cf)
1c015904:	029b718c 	addi.w	$r12,$r12,1756(0x6dc)
1c015908:	1400000d 	lu12i.w	$r13,0
1c01590c:	028001ad 	addi.w	$r13,$r13,0
1c015910:	5bffe18d 	beq	$r12,$r13,-32(0x3ffe0) # 1c0158f0 <n16_beq_test+0x5290>
1c015914:	50000c00 	b	12(0xc) # 1c015920 <n16_beq_test+0x52c0>
1c015918:	1493076b 	lu12i.w	$r11,301115(0x4983b)
1c01591c:	0286e16b 	addi.w	$r11,$r11,440(0x1b8)
1c015920:	1400001c 	lu12i.w	$r28,0
1c015924:	0280039c 	addi.w	$r28,$r28,0
1c015928:	1400001d 	lu12i.w	$r29,0
1c01592c:	028003bd 	addi.w	$r29,$r29,0
1c015930:	5c22d55c 	bne	$r10,$r28,8916(0x22d4) # 1c017c04 <inst_error>
1c015934:	5c22d17d 	bne	$r11,$r29,8912(0x22d0) # 1c017c04 <inst_error>
1c015938:	15b92390 	lu12i.w	$r16,-145124(0xdc91c)
1c01593c:	0287c210 	addi.w	$r16,$r16,496(0x1f0)
1c015940:	15d18551 	lu12i.w	$r17,-95190(0xe8c2a)
1c015944:	02b11231 	addi.w	$r17,$r17,-956(0xc44)
1c015948:	1400000a 	lu12i.w	$r10,0
1c01594c:	1400000b 	lu12i.w	$r11,0
1c015950:	50001400 	b	20(0x14) # 1c015964 <n16_beq_test+0x5304>
1c015954:	15b9238a 	lu12i.w	$r10,-145124(0xdc91c)
1c015958:	0287c14a 	addi.w	$r10,$r10,496(0x1f0)
1c01595c:	580021ac 	beq	$r13,$r12,32(0x20) # 1c01597c <n16_beq_test+0x531c>
1c015960:	50002400 	b	36(0x24) # 1c015984 <n16_beq_test+0x5324>
1c015964:	148142ec 	lu12i.w	$r12,264727(0x40a17)
1c015968:	029df58c 	addi.w	$r12,$r12,1917(0x77d)
1c01596c:	1400000d 	lu12i.w	$r13,0
1c015970:	028001ad 	addi.w	$r13,$r13,0
1c015974:	5bffe18d 	beq	$r12,$r13,-32(0x3ffe0) # 1c015954 <n16_beq_test+0x52f4>
1c015978:	50000c00 	b	12(0xc) # 1c015984 <n16_beq_test+0x5324>
1c01597c:	15d1854b 	lu12i.w	$r11,-95190(0xe8c2a)
1c015980:	02b1116b 	addi.w	$r11,$r11,-956(0xc44)
1c015984:	1400001c 	lu12i.w	$r28,0
1c015988:	0280039c 	addi.w	$r28,$r28,0
1c01598c:	1400001d 	lu12i.w	$r29,0
1c015990:	028003bd 	addi.w	$r29,$r29,0
1c015994:	5c22715c 	bne	$r10,$r28,8816(0x2270) # 1c017c04 <inst_error>
1c015998:	5c226d7d 	bne	$r11,$r29,8812(0x226c) # 1c017c04 <inst_error>
1c01599c:	15d7c850 	lu12i.w	$r16,-82366(0xebe42)
1c0159a0:	02b44210 	addi.w	$r16,$r16,-752(0xd10)
1c0159a4:	15cfca11 	lu12i.w	$r17,-98736(0xe7e50)
1c0159a8:	0297d231 	addi.w	$r17,$r17,1524(0x5f4)
1c0159ac:	1400000a 	lu12i.w	$r10,0
1c0159b0:	1400000b 	lu12i.w	$r11,0
1c0159b4:	50001400 	b	20(0x14) # 1c0159c8 <n16_beq_test+0x5368>
1c0159b8:	15d7c84a 	lu12i.w	$r10,-82366(0xebe42)
1c0159bc:	02b4414a 	addi.w	$r10,$r10,-752(0xd10)
1c0159c0:	580021ac 	beq	$r13,$r12,32(0x20) # 1c0159e0 <n16_beq_test+0x5380>
1c0159c4:	50002400 	b	36(0x24) # 1c0159e8 <n16_beq_test+0x5388>
1c0159c8:	144ef58c 	lu12i.w	$r12,161708(0x277ac)
1c0159cc:	0295118c 	addi.w	$r12,$r12,1348(0x544)
1c0159d0:	1400000d 	lu12i.w	$r13,0
1c0159d4:	028001ad 	addi.w	$r13,$r13,0
1c0159d8:	5bffe18d 	beq	$r12,$r13,-32(0x3ffe0) # 1c0159b8 <n16_beq_test+0x5358>
1c0159dc:	50000c00 	b	12(0xc) # 1c0159e8 <n16_beq_test+0x5388>
1c0159e0:	15cfca0b 	lu12i.w	$r11,-98736(0xe7e50)
1c0159e4:	0297d16b 	addi.w	$r11,$r11,1524(0x5f4)
1c0159e8:	1400001c 	lu12i.w	$r28,0
1c0159ec:	0280039c 	addi.w	$r28,$r28,0
1c0159f0:	1400001d 	lu12i.w	$r29,0
1c0159f4:	028003bd 	addi.w	$r29,$r29,0
1c0159f8:	5c220d5c 	bne	$r10,$r28,8716(0x220c) # 1c017c04 <inst_error>
1c0159fc:	5c22097d 	bne	$r11,$r29,8712(0x2208) # 1c017c04 <inst_error>
1c015a00:	15babe30 	lu12i.w	$r16,-141839(0xdd5f1)
1c015a04:	02803a10 	addi.w	$r16,$r16,14(0xe)
1c015a08:	15cfdcd1 	lu12i.w	$r17,-98586(0xe7ee6)
1c015a0c:	02beb231 	addi.w	$r17,$r17,-84(0xfac)
1c015a10:	1400000a 	lu12i.w	$r10,0
1c015a14:	1400000b 	lu12i.w	$r11,0
1c015a18:	50001400 	b	20(0x14) # 1c015a2c <n16_beq_test+0x53cc>
1c015a1c:	15babe2a 	lu12i.w	$r10,-141839(0xdd5f1)
1c015a20:	0280394a 	addi.w	$r10,$r10,14(0xe)
1c015a24:	580021ac 	beq	$r13,$r12,32(0x20) # 1c015a44 <n16_beq_test+0x53e4>
1c015a28:	50002400 	b	36(0x24) # 1c015a4c <n16_beq_test+0x53ec>
1c015a2c:	15145dac 	lu12i.w	$r12,-482579(0x8a2ed)
1c015a30:	028d7d8c 	addi.w	$r12,$r12,863(0x35f)
1c015a34:	1400000d 	lu12i.w	$r13,0
1c015a38:	028001ad 	addi.w	$r13,$r13,0
1c015a3c:	5bffe18d 	beq	$r12,$r13,-32(0x3ffe0) # 1c015a1c <n16_beq_test+0x53bc>
1c015a40:	50000c00 	b	12(0xc) # 1c015a4c <n16_beq_test+0x53ec>
1c015a44:	15cfdccb 	lu12i.w	$r11,-98586(0xe7ee6)
1c015a48:	02beb16b 	addi.w	$r11,$r11,-84(0xfac)
1c015a4c:	1400001c 	lu12i.w	$r28,0
1c015a50:	0280039c 	addi.w	$r28,$r28,0
1c015a54:	1400001d 	lu12i.w	$r29,0
1c015a58:	028003bd 	addi.w	$r29,$r29,0
1c015a5c:	5c21a95c 	bne	$r10,$r28,8616(0x21a8) # 1c017c04 <inst_error>
1c015a60:	5c21a57d 	bne	$r11,$r29,8612(0x21a4) # 1c017c04 <inst_error>
1c015a64:	15c8e3b0 	lu12i.w	$r16,-112867(0xe471d)
1c015a68:	02a00210 	addi.w	$r16,$r16,-2048(0x800)
1c015a6c:	15ff4d31 	lu12i.w	$r17,-1431(0xffa69)
1c015a70:	0292c231 	addi.w	$r17,$r17,1200(0x4b0)
1c015a74:	1400000a 	lu12i.w	$r10,0
1c015a78:	1400000b 	lu12i.w	$r11,0
1c015a7c:	50001400 	b	20(0x14) # 1c015a90 <n16_beq_test+0x5430>
1c015a80:	15c8e3aa 	lu12i.w	$r10,-112867(0xe471d)
1c015a84:	02a0014a 	addi.w	$r10,$r10,-2048(0x800)
1c015a88:	580021ac 	beq	$r13,$r12,32(0x20) # 1c015aa8 <n16_beq_test+0x5448>
1c015a8c:	50002400 	b	36(0x24) # 1c015ab0 <n16_beq_test+0x5450>
1c015a90:	15d5600c 	lu12i.w	$r12,-87296(0xeab00)
1c015a94:	0284c58c 	addi.w	$r12,$r12,305(0x131)
1c015a98:	1400000d 	lu12i.w	$r13,0
1c015a9c:	028001ad 	addi.w	$r13,$r13,0
1c015aa0:	5bffe18d 	beq	$r12,$r13,-32(0x3ffe0) # 1c015a80 <n16_beq_test+0x5420>
1c015aa4:	50000c00 	b	12(0xc) # 1c015ab0 <n16_beq_test+0x5450>
1c015aa8:	15ff4d2b 	lu12i.w	$r11,-1431(0xffa69)
1c015aac:	0292c16b 	addi.w	$r11,$r11,1200(0x4b0)
1c015ab0:	1400001c 	lu12i.w	$r28,0
1c015ab4:	0280039c 	addi.w	$r28,$r28,0
1c015ab8:	1400001d 	lu12i.w	$r29,0
1c015abc:	028003bd 	addi.w	$r29,$r29,0
1c015ac0:	5c21455c 	bne	$r10,$r28,8516(0x2144) # 1c017c04 <inst_error>
1c015ac4:	5c21417d 	bne	$r11,$r29,8512(0x2140) # 1c017c04 <inst_error>
1c015ac8:	140b9950 	lu12i.w	$r16,23754(0x5cca)
1c015acc:	02b18210 	addi.w	$r16,$r16,-928(0xc60)
1c015ad0:	140862d1 	lu12i.w	$r17,17174(0x4316)
1c015ad4:	02b8fe31 	addi.w	$r17,$r17,-449(0xe3f)
1c015ad8:	1400000a 	lu12i.w	$r10,0
1c015adc:	1400000b 	lu12i.w	$r11,0
1c015ae0:	50001400 	b	20(0x14) # 1c015af4 <n16_beq_test+0x5494>
1c015ae4:	140b994a 	lu12i.w	$r10,23754(0x5cca)
1c015ae8:	02b1814a 	addi.w	$r10,$r10,-928(0xc60)
1c015aec:	580021ac 	beq	$r13,$r12,32(0x20) # 1c015b0c <n16_beq_test+0x54ac>
1c015af0:	50002400 	b	36(0x24) # 1c015b14 <n16_beq_test+0x54b4>
1c015af4:	15d38c8c 	lu12i.w	$r12,-91036(0xe9c64)
1c015af8:	0290a18c 	addi.w	$r12,$r12,1064(0x428)
1c015afc:	1400000d 	lu12i.w	$r13,0
1c015b00:	028001ad 	addi.w	$r13,$r13,0
1c015b04:	5bffe18d 	beq	$r12,$r13,-32(0x3ffe0) # 1c015ae4 <n16_beq_test+0x5484>
1c015b08:	50000c00 	b	12(0xc) # 1c015b14 <n16_beq_test+0x54b4>
1c015b0c:	140862cb 	lu12i.w	$r11,17174(0x4316)
1c015b10:	02b8fd6b 	addi.w	$r11,$r11,-449(0xe3f)
1c015b14:	1400001c 	lu12i.w	$r28,0
1c015b18:	0280039c 	addi.w	$r28,$r28,0
1c015b1c:	1400001d 	lu12i.w	$r29,0
1c015b20:	028003bd 	addi.w	$r29,$r29,0
1c015b24:	5c20e15c 	bne	$r10,$r28,8416(0x20e0) # 1c017c04 <inst_error>
1c015b28:	5c20dd7d 	bne	$r11,$r29,8412(0x20dc) # 1c017c04 <inst_error>
1c015b2c:	15c23070 	lu12i.w	$r16,-126589(0xe1183)
1c015b30:	02b33610 	addi.w	$r16,$r16,-819(0xccd)
1c015b34:	15c0c251 	lu12i.w	$r17,-129518(0xe0612)
1c015b38:	02800231 	addi.w	$r17,$r17,0
1c015b3c:	1400000a 	lu12i.w	$r10,0
1c015b40:	1400000b 	lu12i.w	$r11,0
1c015b44:	50001400 	b	20(0x14) # 1c015b58 <n16_beq_test+0x54f8>
1c015b48:	15c2306a 	lu12i.w	$r10,-126589(0xe1183)
1c015b4c:	02b3354a 	addi.w	$r10,$r10,-819(0xccd)
1c015b50:	580021ac 	beq	$r13,$r12,32(0x20) # 1c015b70 <n16_beq_test+0x5510>
1c015b54:	50002400 	b	36(0x24) # 1c015b78 <n16_beq_test+0x5518>
1c015b58:	15bdd7ec 	lu12i.w	$r12,-135489(0xdeebf)
1c015b5c:	02b4098c 	addi.w	$r12,$r12,-766(0xd02)
1c015b60:	1400000d 	lu12i.w	$r13,0
1c015b64:	028001ad 	addi.w	$r13,$r13,0
1c015b68:	5bffe18d 	beq	$r12,$r13,-32(0x3ffe0) # 1c015b48 <n16_beq_test+0x54e8>
1c015b6c:	50000c00 	b	12(0xc) # 1c015b78 <n16_beq_test+0x5518>
1c015b70:	15c0c24b 	lu12i.w	$r11,-129518(0xe0612)
1c015b74:	0280016b 	addi.w	$r11,$r11,0
1c015b78:	1400001c 	lu12i.w	$r28,0
1c015b7c:	0280039c 	addi.w	$r28,$r28,0
1c015b80:	1400001d 	lu12i.w	$r29,0
1c015b84:	028003bd 	addi.w	$r29,$r29,0
1c015b88:	5c207d5c 	bne	$r10,$r28,8316(0x207c) # 1c017c04 <inst_error>
1c015b8c:	5c20797d 	bne	$r11,$r29,8312(0x2078) # 1c017c04 <inst_error>
1c015b90:	15b1e310 	lu12i.w	$r16,-159976(0xd8f18)
1c015b94:	02bb8210 	addi.w	$r16,$r16,-288(0xee0)
1c015b98:	15322631 	lu12i.w	$r17,-421583(0x99131)
1c015b9c:	02963631 	addi.w	$r17,$r17,1421(0x58d)
1c015ba0:	1400000a 	lu12i.w	$r10,0
1c015ba4:	1400000b 	lu12i.w	$r11,0
1c015ba8:	50001400 	b	20(0x14) # 1c015bbc <n16_beq_test+0x555c>
1c015bac:	15b1e30a 	lu12i.w	$r10,-159976(0xd8f18)
1c015bb0:	02bb814a 	addi.w	$r10,$r10,-288(0xee0)
1c015bb4:	580021ac 	beq	$r13,$r12,32(0x20) # 1c015bd4 <n16_beq_test+0x5574>
1c015bb8:	50002400 	b	36(0x24) # 1c015bdc <n16_beq_test+0x557c>
1c015bbc:	144465ec 	lu12i.w	$r12,140079(0x2232f)
1c015bc0:	02b6018c 	addi.w	$r12,$r12,-640(0xd80)
1c015bc4:	1400000d 	lu12i.w	$r13,0
1c015bc8:	028001ad 	addi.w	$r13,$r13,0
1c015bcc:	5bffe18d 	beq	$r12,$r13,-32(0x3ffe0) # 1c015bac <n16_beq_test+0x554c>
1c015bd0:	50000c00 	b	12(0xc) # 1c015bdc <n16_beq_test+0x557c>
1c015bd4:	1532262b 	lu12i.w	$r11,-421583(0x99131)
1c015bd8:	0296356b 	addi.w	$r11,$r11,1421(0x58d)
1c015bdc:	1400001c 	lu12i.w	$r28,0
1c015be0:	0280039c 	addi.w	$r28,$r28,0
1c015be4:	1400001d 	lu12i.w	$r29,0
1c015be8:	028003bd 	addi.w	$r29,$r29,0
1c015bec:	5c20195c 	bne	$r10,$r28,8216(0x2018) # 1c017c04 <inst_error>
1c015bf0:	5c20157d 	bne	$r11,$r29,8212(0x2014) # 1c017c04 <inst_error>
1c015bf4:	1467b6d0 	lu12i.w	$r16,212406(0x33db6)
1c015bf8:	02ad2210 	addi.w	$r16,$r16,-1208(0xb48)
1c015bfc:	1521b0b1 	lu12i.w	$r17,-455291(0x90d85)
1c015c00:	02800231 	addi.w	$r17,$r17,0
1c015c04:	1400000a 	lu12i.w	$r10,0
1c015c08:	1400000b 	lu12i.w	$r11,0
1c015c0c:	50001400 	b	20(0x14) # 1c015c20 <n16_beq_test+0x55c0>
1c015c10:	1467b6ca 	lu12i.w	$r10,212406(0x33db6)
1c015c14:	02ad214a 	addi.w	$r10,$r10,-1208(0xb48)
1c015c18:	580021ac 	beq	$r13,$r12,32(0x20) # 1c015c38 <n16_beq_test+0x55d8>
1c015c1c:	50002400 	b	36(0x24) # 1c015c40 <n16_beq_test+0x55e0>
1c015c20:	140be06c 	lu12i.w	$r12,24323(0x5f03)
1c015c24:	029b018c 	addi.w	$r12,$r12,1728(0x6c0)
1c015c28:	1400000d 	lu12i.w	$r13,0
1c015c2c:	028001ad 	addi.w	$r13,$r13,0
1c015c30:	5bffe18d 	beq	$r12,$r13,-32(0x3ffe0) # 1c015c10 <n16_beq_test+0x55b0>
1c015c34:	50000c00 	b	12(0xc) # 1c015c40 <n16_beq_test+0x55e0>
1c015c38:	1521b0ab 	lu12i.w	$r11,-455291(0x90d85)
1c015c3c:	0280016b 	addi.w	$r11,$r11,0
1c015c40:	1400001c 	lu12i.w	$r28,0
1c015c44:	0280039c 	addi.w	$r28,$r28,0
1c015c48:	1400001d 	lu12i.w	$r29,0
1c015c4c:	028003bd 	addi.w	$r29,$r29,0
1c015c50:	5c1fb55c 	bne	$r10,$r28,8116(0x1fb4) # 1c017c04 <inst_error>
1c015c54:	5c1fb17d 	bne	$r11,$r29,8112(0x1fb0) # 1c017c04 <inst_error>
1c015c58:	1469de10 	lu12i.w	$r16,216816(0x34ef0)
1c015c5c:	02a34210 	addi.w	$r16,$r16,-1840(0x8d0)
1c015c60:	1476ecd1 	lu12i.w	$r17,243558(0x3b766)
1c015c64:	0287de31 	addi.w	$r17,$r17,503(0x1f7)
1c015c68:	1400000a 	lu12i.w	$r10,0
1c015c6c:	1400000b 	lu12i.w	$r11,0
1c015c70:	50001400 	b	20(0x14) # 1c015c84 <n16_beq_test+0x5624>
1c015c74:	1469de0a 	lu12i.w	$r10,216816(0x34ef0)
1c015c78:	02a3414a 	addi.w	$r10,$r10,-1840(0x8d0)
1c015c7c:	580021ac 	beq	$r13,$r12,32(0x20) # 1c015c9c <n16_beq_test+0x563c>
1c015c80:	50002400 	b	36(0x24) # 1c015ca4 <n16_beq_test+0x5644>
1c015c84:	1470fd2c 	lu12i.w	$r12,231401(0x387e9)
1c015c88:	028ab18c 	addi.w	$r12,$r12,684(0x2ac)
1c015c8c:	1400000d 	lu12i.w	$r13,0
1c015c90:	028001ad 	addi.w	$r13,$r13,0
1c015c94:	5bffe18d 	beq	$r12,$r13,-32(0x3ffe0) # 1c015c74 <n16_beq_test+0x5614>
1c015c98:	50000c00 	b	12(0xc) # 1c015ca4 <n16_beq_test+0x5644>
1c015c9c:	1476eccb 	lu12i.w	$r11,243558(0x3b766)
1c015ca0:	0287dd6b 	addi.w	$r11,$r11,503(0x1f7)
1c015ca4:	1400001c 	lu12i.w	$r28,0
1c015ca8:	0280039c 	addi.w	$r28,$r28,0
1c015cac:	1400001d 	lu12i.w	$r29,0
1c015cb0:	028003bd 	addi.w	$r29,$r29,0
1c015cb4:	5c1f515c 	bne	$r10,$r28,8016(0x1f50) # 1c017c04 <inst_error>
1c015cb8:	5c1f4d7d 	bne	$r11,$r29,8012(0x1f4c) # 1c017c04 <inst_error>
1c015cbc:	153cec50 	lu12i.w	$r16,-399518(0x9e762)
1c015cc0:	02b16210 	addi.w	$r16,$r16,-936(0xc58)
1c015cc4:	152537f1 	lu12i.w	$r17,-448065(0x929bf)
1c015cc8:	02832231 	addi.w	$r17,$r17,200(0xc8)
1c015ccc:	1400000a 	lu12i.w	$r10,0
1c015cd0:	1400000b 	lu12i.w	$r11,0
1c015cd4:	50001400 	b	20(0x14) # 1c015ce8 <n16_beq_test+0x5688>
1c015cd8:	153cec4a 	lu12i.w	$r10,-399518(0x9e762)
1c015cdc:	02b1614a 	addi.w	$r10,$r10,-936(0xc58)
1c015ce0:	580021ac 	beq	$r13,$r12,32(0x20) # 1c015d00 <n16_beq_test+0x56a0>
1c015ce4:	50002400 	b	36(0x24) # 1c015d08 <n16_beq_test+0x56a8>
1c015ce8:	14a11f2c 	lu12i.w	$r12,329977(0x508f9)
1c015cec:	0286e18c 	addi.w	$r12,$r12,440(0x1b8)
1c015cf0:	1400000d 	lu12i.w	$r13,0
1c015cf4:	028001ad 	addi.w	$r13,$r13,0
1c015cf8:	5bffe18d 	beq	$r12,$r13,-32(0x3ffe0) # 1c015cd8 <n16_beq_test+0x5678>
1c015cfc:	50000c00 	b	12(0xc) # 1c015d08 <n16_beq_test+0x56a8>
1c015d00:	152537eb 	lu12i.w	$r11,-448065(0x929bf)
1c015d04:	0283216b 	addi.w	$r11,$r11,200(0xc8)
1c015d08:	1400001c 	lu12i.w	$r28,0
1c015d0c:	0280039c 	addi.w	$r28,$r28,0
1c015d10:	1400001d 	lu12i.w	$r29,0
1c015d14:	028003bd 	addi.w	$r29,$r29,0
1c015d18:	5c1eed5c 	bne	$r10,$r28,7916(0x1eec) # 1c017c04 <inst_error>
1c015d1c:	5c1ee97d 	bne	$r11,$r29,7912(0x1ee8) # 1c017c04 <inst_error>
1c015d20:	14d62130 	lu12i.w	$r16,438537(0x6b109)
1c015d24:	0297c610 	addi.w	$r16,$r16,1521(0x5f1)
1c015d28:	15dd2b11 	lu12i.w	$r17,-71336(0xee958)
1c015d2c:	02a2ca31 	addi.w	$r17,$r17,-1870(0x8b2)
1c015d30:	1400000a 	lu12i.w	$r10,0
1c015d34:	1400000b 	lu12i.w	$r11,0
1c015d38:	50001400 	b	20(0x14) # 1c015d4c <n16_beq_test+0x56ec>
1c015d3c:	14d6212a 	lu12i.w	$r10,438537(0x6b109)
1c015d40:	0297c54a 	addi.w	$r10,$r10,1521(0x5f1)
1c015d44:	580021ac 	beq	$r13,$r12,32(0x20) # 1c015d64 <n16_beq_test+0x5704>
1c015d48:	50002400 	b	36(0x24) # 1c015d6c <n16_beq_test+0x570c>
1c015d4c:	15c7a7cc 	lu12i.w	$r12,-115394(0xe3d3e)
1c015d50:	0283818c 	addi.w	$r12,$r12,224(0xe0)
1c015d54:	1400000d 	lu12i.w	$r13,0
1c015d58:	028001ad 	addi.w	$r13,$r13,0
1c015d5c:	5bffe18d 	beq	$r12,$r13,-32(0x3ffe0) # 1c015d3c <n16_beq_test+0x56dc>
1c015d60:	50000c00 	b	12(0xc) # 1c015d6c <n16_beq_test+0x570c>
1c015d64:	15dd2b0b 	lu12i.w	$r11,-71336(0xee958)
1c015d68:	02a2c96b 	addi.w	$r11,$r11,-1870(0x8b2)
1c015d6c:	1400001c 	lu12i.w	$r28,0
1c015d70:	0280039c 	addi.w	$r28,$r28,0
1c015d74:	1400001d 	lu12i.w	$r29,0
1c015d78:	028003bd 	addi.w	$r29,$r29,0
1c015d7c:	5c1e895c 	bne	$r10,$r28,7816(0x1e88) # 1c017c04 <inst_error>
1c015d80:	5c1e857d 	bne	$r11,$r29,7812(0x1e84) # 1c017c04 <inst_error>
1c015d84:	15c9e950 	lu12i.w	$r16,-110774(0xe4f4a)
1c015d88:	028dc210 	addi.w	$r16,$r16,880(0x370)
1c015d8c:	150902f1 	lu12i.w	$r17,-505833(0x84817)
1c015d90:	02a09a31 	addi.w	$r17,$r17,-2010(0x826)
1c015d94:	1400000a 	lu12i.w	$r10,0
1c015d98:	1400000b 	lu12i.w	$r11,0
1c015d9c:	50001400 	b	20(0x14) # 1c015db0 <n16_beq_test+0x5750>
1c015da0:	15c9e94a 	lu12i.w	$r10,-110774(0xe4f4a)
1c015da4:	028dc14a 	addi.w	$r10,$r10,880(0x370)
1c015da8:	580021ac 	beq	$r13,$r12,32(0x20) # 1c015dc8 <n16_beq_test+0x5768>
1c015dac:	50002400 	b	36(0x24) # 1c015dd0 <n16_beq_test+0x5770>
1c015db0:	142f508c 	lu12i.w	$r12,96900(0x17a84)
1c015db4:	02a8018c 	addi.w	$r12,$r12,-1536(0xa00)
1c015db8:	1400000d 	lu12i.w	$r13,0
1c015dbc:	028001ad 	addi.w	$r13,$r13,0
1c015dc0:	5bffe18d 	beq	$r12,$r13,-32(0x3ffe0) # 1c015da0 <n16_beq_test+0x5740>
1c015dc4:	50000c00 	b	12(0xc) # 1c015dd0 <n16_beq_test+0x5770>
1c015dc8:	150902eb 	lu12i.w	$r11,-505833(0x84817)
1c015dcc:	02a0996b 	addi.w	$r11,$r11,-2010(0x826)
1c015dd0:	1400001c 	lu12i.w	$r28,0
1c015dd4:	0280039c 	addi.w	$r28,$r28,0
1c015dd8:	1400001d 	lu12i.w	$r29,0
1c015ddc:	028003bd 	addi.w	$r29,$r29,0
1c015de0:	5c1e255c 	bne	$r10,$r28,7716(0x1e24) # 1c017c04 <inst_error>
1c015de4:	5c1e217d 	bne	$r11,$r29,7712(0x1e20) # 1c017c04 <inst_error>
1c015de8:	15d80cd0 	lu12i.w	$r16,-81818(0xec066)
1c015dec:	02adc210 	addi.w	$r16,$r16,-1168(0xb70)
1c015df0:	147b9351 	lu12i.w	$r17,253082(0x3dc9a)
1c015df4:	02a0e231 	addi.w	$r17,$r17,-1992(0x838)
1c015df8:	1400000a 	lu12i.w	$r10,0
1c015dfc:	1400000b 	lu12i.w	$r11,0
1c015e00:	50001400 	b	20(0x14) # 1c015e14 <n16_beq_test+0x57b4>
1c015e04:	15d80cca 	lu12i.w	$r10,-81818(0xec066)
1c015e08:	02adc14a 	addi.w	$r10,$r10,-1168(0xb70)
1c015e0c:	580021ac 	beq	$r13,$r12,32(0x20) # 1c015e2c <n16_beq_test+0x57cc>
1c015e10:	50002400 	b	36(0x24) # 1c015e34 <n16_beq_test+0x57d4>
1c015e14:	14e9a5cc 	lu12i.w	$r12,478510(0x74d2e)
1c015e18:	02b4ed8c 	addi.w	$r12,$r12,-709(0xd3b)
1c015e1c:	1400000d 	lu12i.w	$r13,0
1c015e20:	028001ad 	addi.w	$r13,$r13,0
1c015e24:	5bffe18d 	beq	$r12,$r13,-32(0x3ffe0) # 1c015e04 <n16_beq_test+0x57a4>
1c015e28:	50000c00 	b	12(0xc) # 1c015e34 <n16_beq_test+0x57d4>
1c015e2c:	147b934b 	lu12i.w	$r11,253082(0x3dc9a)
1c015e30:	02a0e16b 	addi.w	$r11,$r11,-1992(0x838)
1c015e34:	1400001c 	lu12i.w	$r28,0
1c015e38:	0280039c 	addi.w	$r28,$r28,0
1c015e3c:	1400001d 	lu12i.w	$r29,0
1c015e40:	028003bd 	addi.w	$r29,$r29,0
1c015e44:	5c1dc15c 	bne	$r10,$r28,7616(0x1dc0) # 1c017c04 <inst_error>
1c015e48:	5c1dbd7d 	bne	$r11,$r29,7612(0x1dbc) # 1c017c04 <inst_error>
1c015e4c:	14d7aad0 	lu12i.w	$r16,441686(0x6bd56)
1c015e50:	02bf1610 	addi.w	$r16,$r16,-59(0xfc5)
1c015e54:	15ddc051 	lu12i.w	$r17,-70142(0xeee02)
1c015e58:	029a4231 	addi.w	$r17,$r17,1680(0x690)
1c015e5c:	1400000a 	lu12i.w	$r10,0
1c015e60:	1400000b 	lu12i.w	$r11,0
1c015e64:	50001400 	b	20(0x14) # 1c015e78 <n16_beq_test+0x5818>
1c015e68:	14d7aaca 	lu12i.w	$r10,441686(0x6bd56)
1c015e6c:	02bf154a 	addi.w	$r10,$r10,-59(0xfc5)
1c015e70:	580021ac 	beq	$r13,$r12,32(0x20) # 1c015e90 <n16_beq_test+0x5830>
1c015e74:	50002400 	b	36(0x24) # 1c015e98 <n16_beq_test+0x5838>
1c015e78:	1559890c 	lu12i.w	$r12,-340920(0xacc48)
1c015e7c:	0280898c 	addi.w	$r12,$r12,34(0x22)
1c015e80:	1400000d 	lu12i.w	$r13,0
1c015e84:	028001ad 	addi.w	$r13,$r13,0
1c015e88:	5bffe18d 	beq	$r12,$r13,-32(0x3ffe0) # 1c015e68 <n16_beq_test+0x5808>
1c015e8c:	50000c00 	b	12(0xc) # 1c015e98 <n16_beq_test+0x5838>
1c015e90:	15ddc04b 	lu12i.w	$r11,-70142(0xeee02)
1c015e94:	029a416b 	addi.w	$r11,$r11,1680(0x690)
1c015e98:	1400001c 	lu12i.w	$r28,0
1c015e9c:	0280039c 	addi.w	$r28,$r28,0
1c015ea0:	1400001d 	lu12i.w	$r29,0
1c015ea4:	028003bd 	addi.w	$r29,$r29,0
1c015ea8:	5c1d5d5c 	bne	$r10,$r28,7516(0x1d5c) # 1c017c04 <inst_error>
1c015eac:	5c1d597d 	bne	$r11,$r29,7512(0x1d58) # 1c017c04 <inst_error>
1c015eb0:	1425edb0 	lu12i.w	$r16,77677(0x12f6d)
1c015eb4:	02ba1610 	addi.w	$r16,$r16,-379(0xe85)
1c015eb8:	155caed1 	lu12i.w	$r17,-334474(0xae576)
1c015ebc:	02901a31 	addi.w	$r17,$r17,1030(0x406)
1c015ec0:	1400000a 	lu12i.w	$r10,0
1c015ec4:	1400000b 	lu12i.w	$r11,0
1c015ec8:	50001400 	b	20(0x14) # 1c015edc <n16_beq_test+0x587c>
1c015ecc:	1425edaa 	lu12i.w	$r10,77677(0x12f6d)
1c015ed0:	02ba154a 	addi.w	$r10,$r10,-379(0xe85)
1c015ed4:	580021ac 	beq	$r13,$r12,32(0x20) # 1c015ef4 <n16_beq_test+0x5894>
1c015ed8:	50002400 	b	36(0x24) # 1c015efc <n16_beq_test+0x589c>
1c015edc:	14fc3b0c 	lu12i.w	$r12,516568(0x7e1d8)
1c015ee0:	0284b98c 	addi.w	$r12,$r12,302(0x12e)
1c015ee4:	1400000d 	lu12i.w	$r13,0
1c015ee8:	028001ad 	addi.w	$r13,$r13,0
1c015eec:	5bffe18d 	beq	$r12,$r13,-32(0x3ffe0) # 1c015ecc <n16_beq_test+0x586c>
1c015ef0:	50000c00 	b	12(0xc) # 1c015efc <n16_beq_test+0x589c>
1c015ef4:	155caecb 	lu12i.w	$r11,-334474(0xae576)
1c015ef8:	0290196b 	addi.w	$r11,$r11,1030(0x406)
1c015efc:	1400001c 	lu12i.w	$r28,0
1c015f00:	0280039c 	addi.w	$r28,$r28,0
1c015f04:	1400001d 	lu12i.w	$r29,0
1c015f08:	028003bd 	addi.w	$r29,$r29,0
1c015f0c:	5c1cf95c 	bne	$r10,$r28,7416(0x1cf8) # 1c017c04 <inst_error>
1c015f10:	5c1cf57d 	bne	$r11,$r29,7412(0x1cf4) # 1c017c04 <inst_error>
1c015f14:	15cdf1f0 	lu12i.w	$r16,-102513(0xe6f8f)
1c015f18:	029d4210 	addi.w	$r16,$r16,1872(0x750)
1c015f1c:	15c1a511 	lu12i.w	$r17,-127704(0xe0d28)
1c015f20:	02805231 	addi.w	$r17,$r17,20(0x14)
1c015f24:	1400000a 	lu12i.w	$r10,0
1c015f28:	1400000b 	lu12i.w	$r11,0
1c015f2c:	50001400 	b	20(0x14) # 1c015f40 <n16_beq_test+0x58e0>
1c015f30:	15cdf1ea 	lu12i.w	$r10,-102513(0xe6f8f)
1c015f34:	029d414a 	addi.w	$r10,$r10,1872(0x750)
1c015f38:	580021ac 	beq	$r13,$r12,32(0x20) # 1c015f58 <n16_beq_test+0x58f8>
1c015f3c:	50002400 	b	36(0x24) # 1c015f60 <n16_beq_test+0x5900>
1c015f40:	15ab2a8c 	lu12i.w	$r12,-173740(0xd5954)
1c015f44:	0293658c 	addi.w	$r12,$r12,1241(0x4d9)
1c015f48:	1400000d 	lu12i.w	$r13,0
1c015f4c:	028001ad 	addi.w	$r13,$r13,0
1c015f50:	5bffe18d 	beq	$r12,$r13,-32(0x3ffe0) # 1c015f30 <n16_beq_test+0x58d0>
1c015f54:	50000c00 	b	12(0xc) # 1c015f60 <n16_beq_test+0x5900>
1c015f58:	15c1a50b 	lu12i.w	$r11,-127704(0xe0d28)
1c015f5c:	0280516b 	addi.w	$r11,$r11,20(0x14)
1c015f60:	1400001c 	lu12i.w	$r28,0
1c015f64:	0280039c 	addi.w	$r28,$r28,0
1c015f68:	1400001d 	lu12i.w	$r29,0
1c015f6c:	028003bd 	addi.w	$r29,$r29,0
1c015f70:	5c1c955c 	bne	$r10,$r28,7316(0x1c94) # 1c017c04 <inst_error>
1c015f74:	5c1c917d 	bne	$r11,$r29,7312(0x1c90) # 1c017c04 <inst_error>
1c015f78:	1455b770 	lu12i.w	$r16,175547(0x2adbb)
1c015f7c:	028dc210 	addi.w	$r16,$r16,880(0x370)
1c015f80:	149752f1 	lu12i.w	$r17,309911(0x4ba97)
1c015f84:	02860a31 	addi.w	$r17,$r17,386(0x182)
1c015f88:	1400000a 	lu12i.w	$r10,0
1c015f8c:	1400000b 	lu12i.w	$r11,0
1c015f90:	50001400 	b	20(0x14) # 1c015fa4 <n16_beq_test+0x5944>
1c015f94:	1455b76a 	lu12i.w	$r10,175547(0x2adbb)
1c015f98:	028dc14a 	addi.w	$r10,$r10,880(0x370)
1c015f9c:	580021ac 	beq	$r13,$r12,32(0x20) # 1c015fbc <n16_beq_test+0x595c>
1c015fa0:	50002400 	b	36(0x24) # 1c015fc4 <n16_beq_test+0x5964>
1c015fa4:	15cc824c 	lu12i.w	$r12,-105454(0xe6412)
1c015fa8:	028cf98c 	addi.w	$r12,$r12,830(0x33e)
1c015fac:	1400000d 	lu12i.w	$r13,0
1c015fb0:	028001ad 	addi.w	$r13,$r13,0
1c015fb4:	5bffe18d 	beq	$r12,$r13,-32(0x3ffe0) # 1c015f94 <n16_beq_test+0x5934>
1c015fb8:	50000c00 	b	12(0xc) # 1c015fc4 <n16_beq_test+0x5964>
1c015fbc:	149752eb 	lu12i.w	$r11,309911(0x4ba97)
1c015fc0:	0286096b 	addi.w	$r11,$r11,386(0x182)
1c015fc4:	1400001c 	lu12i.w	$r28,0
1c015fc8:	0280039c 	addi.w	$r28,$r28,0
1c015fcc:	1400001d 	lu12i.w	$r29,0
1c015fd0:	028003bd 	addi.w	$r29,$r29,0
1c015fd4:	5c1c315c 	bne	$r10,$r28,7216(0x1c30) # 1c017c04 <inst_error>
1c015fd8:	5c1c2d7d 	bne	$r11,$r29,7212(0x1c2c) # 1c017c04 <inst_error>
1c015fdc:	1468c3d0 	lu12i.w	$r16,214558(0x3461e)
1c015fe0:	02862210 	addi.w	$r16,$r16,392(0x188)
1c015fe4:	151a0711 	lu12i.w	$r17,-470984(0x8d038)
1c015fe8:	02bda231 	addi.w	$r17,$r17,-152(0xf68)
1c015fec:	1400000a 	lu12i.w	$r10,0
1c015ff0:	1400000b 	lu12i.w	$r11,0
1c015ff4:	50001400 	b	20(0x14) # 1c016008 <n16_beq_test+0x59a8>
1c015ff8:	1468c3ca 	lu12i.w	$r10,214558(0x3461e)
1c015ffc:	0286214a 	addi.w	$r10,$r10,392(0x188)
1c016000:	580021ac 	beq	$r13,$r12,32(0x20) # 1c016020 <n16_beq_test+0x59c0>
1c016004:	50002400 	b	36(0x24) # 1c016028 <n16_beq_test+0x59c8>
1c016008:	14c8cacc 	lu12i.w	$r12,411222(0x64656)
1c01600c:	02a9498c 	addi.w	$r12,$r12,-1454(0xa52)
1c016010:	1400000d 	lu12i.w	$r13,0
1c016014:	028001ad 	addi.w	$r13,$r13,0
1c016018:	5bffe18d 	beq	$r12,$r13,-32(0x3ffe0) # 1c015ff8 <n16_beq_test+0x5998>
1c01601c:	50000c00 	b	12(0xc) # 1c016028 <n16_beq_test+0x59c8>
1c016020:	151a070b 	lu12i.w	$r11,-470984(0x8d038)
1c016024:	02bda16b 	addi.w	$r11,$r11,-152(0xf68)
1c016028:	1400001c 	lu12i.w	$r28,0
1c01602c:	0280039c 	addi.w	$r28,$r28,0
1c016030:	1400001d 	lu12i.w	$r29,0
1c016034:	028003bd 	addi.w	$r29,$r29,0
1c016038:	5c1bcd5c 	bne	$r10,$r28,7116(0x1bcc) # 1c017c04 <inst_error>
1c01603c:	5c1bc97d 	bne	$r11,$r29,7112(0x1bc8) # 1c017c04 <inst_error>
1c016040:	14fa9790 	lu12i.w	$r16,513212(0x7d4bc)
1c016044:	02875210 	addi.w	$r16,$r16,468(0x1d4)
1c016048:	14d1db71 	lu12i.w	$r17,429787(0x68edb)
1c01604c:	02923231 	addi.w	$r17,$r17,1164(0x48c)
1c016050:	1400000a 	lu12i.w	$r10,0
1c016054:	1400000b 	lu12i.w	$r11,0
1c016058:	50001400 	b	20(0x14) # 1c01606c <n16_beq_test+0x5a0c>
1c01605c:	14fa978a 	lu12i.w	$r10,513212(0x7d4bc)
1c016060:	0287514a 	addi.w	$r10,$r10,468(0x1d4)
1c016064:	580021ac 	beq	$r13,$r12,32(0x20) # 1c016084 <n16_beq_test+0x5a24>
1c016068:	50002400 	b	36(0x24) # 1c01608c <n16_beq_test+0x5a2c>
1c01606c:	1496f8cc 	lu12i.w	$r12,309190(0x4b7c6)
1c016070:	0286018c 	addi.w	$r12,$r12,384(0x180)
1c016074:	1400000d 	lu12i.w	$r13,0
1c016078:	028001ad 	addi.w	$r13,$r13,0
1c01607c:	5bffe18d 	beq	$r12,$r13,-32(0x3ffe0) # 1c01605c <n16_beq_test+0x59fc>
1c016080:	50000c00 	b	12(0xc) # 1c01608c <n16_beq_test+0x5a2c>
1c016084:	14d1db6b 	lu12i.w	$r11,429787(0x68edb)
1c016088:	0292316b 	addi.w	$r11,$r11,1164(0x48c)
1c01608c:	1400001c 	lu12i.w	$r28,0
1c016090:	0280039c 	addi.w	$r28,$r28,0
1c016094:	1400001d 	lu12i.w	$r29,0
1c016098:	028003bd 	addi.w	$r29,$r29,0
1c01609c:	5c1b695c 	bne	$r10,$r28,7016(0x1b68) # 1c017c04 <inst_error>
1c0160a0:	5c1b657d 	bne	$r11,$r29,7012(0x1b64) # 1c017c04 <inst_error>
1c0160a4:	15107d50 	lu12i.w	$r16,-490518(0x883ea)
1c0160a8:	02a32210 	addi.w	$r16,$r16,-1848(0x8c8)
1c0160ac:	15cfcc51 	lu12i.w	$r17,-98718(0xe7e62)
1c0160b0:	02914e31 	addi.w	$r17,$r17,1107(0x453)
1c0160b4:	1400000a 	lu12i.w	$r10,0
1c0160b8:	1400000b 	lu12i.w	$r11,0
1c0160bc:	50001400 	b	20(0x14) # 1c0160d0 <n16_beq_test+0x5a70>
1c0160c0:	15107d4a 	lu12i.w	$r10,-490518(0x883ea)
1c0160c4:	02a3214a 	addi.w	$r10,$r10,-1848(0x8c8)
1c0160c8:	580021ac 	beq	$r13,$r12,32(0x20) # 1c0160e8 <n16_beq_test+0x5a88>
1c0160cc:	50002400 	b	36(0x24) # 1c0160f0 <n16_beq_test+0x5a90>
1c0160d0:	14e960ac 	lu12i.w	$r12,477957(0x74b05)
1c0160d4:	0294118c 	addi.w	$r12,$r12,1284(0x504)
1c0160d8:	1400000d 	lu12i.w	$r13,0
1c0160dc:	028001ad 	addi.w	$r13,$r13,0
1c0160e0:	5bffe18d 	beq	$r12,$r13,-32(0x3ffe0) # 1c0160c0 <n16_beq_test+0x5a60>
1c0160e4:	50000c00 	b	12(0xc) # 1c0160f0 <n16_beq_test+0x5a90>
1c0160e8:	15cfcc4b 	lu12i.w	$r11,-98718(0xe7e62)
1c0160ec:	02914d6b 	addi.w	$r11,$r11,1107(0x453)
1c0160f0:	1400001c 	lu12i.w	$r28,0
1c0160f4:	0280039c 	addi.w	$r28,$r28,0
1c0160f8:	1400001d 	lu12i.w	$r29,0
1c0160fc:	028003bd 	addi.w	$r29,$r29,0
1c016100:	5c1b055c 	bne	$r10,$r28,6916(0x1b04) # 1c017c04 <inst_error>
1c016104:	5c1b017d 	bne	$r11,$r29,6912(0x1b00) # 1c017c04 <inst_error>
1c016108:	14c82ab0 	lu12i.w	$r16,409941(0x64155)
1c01610c:	02b61210 	addi.w	$r16,$r16,-636(0xd84)
1c016110:	155eb611 	lu12i.w	$r17,-330320(0xaf5b0)
1c016114:	02876231 	addi.w	$r17,$r17,472(0x1d8)
1c016118:	1400000a 	lu12i.w	$r10,0
1c01611c:	1400000b 	lu12i.w	$r11,0
1c016120:	50001400 	b	20(0x14) # 1c016134 <n16_beq_test+0x5ad4>
1c016124:	14c82aaa 	lu12i.w	$r10,409941(0x64155)
1c016128:	02b6114a 	addi.w	$r10,$r10,-636(0xd84)
1c01612c:	580021ac 	beq	$r13,$r12,32(0x20) # 1c01614c <n16_beq_test+0x5aec>
1c016130:	50002400 	b	36(0x24) # 1c016154 <n16_beq_test+0x5af4>
1c016134:	1456270c 	lu12i.w	$r12,176440(0x2b138)
1c016138:	02af018c 	addi.w	$r12,$r12,-1088(0xbc0)
1c01613c:	1400000d 	lu12i.w	$r13,0
1c016140:	028001ad 	addi.w	$r13,$r13,0
1c016144:	5bffe18d 	beq	$r12,$r13,-32(0x3ffe0) # 1c016124 <n16_beq_test+0x5ac4>
1c016148:	50000c00 	b	12(0xc) # 1c016154 <n16_beq_test+0x5af4>
1c01614c:	155eb60b 	lu12i.w	$r11,-330320(0xaf5b0)
1c016150:	0287616b 	addi.w	$r11,$r11,472(0x1d8)
1c016154:	1400001c 	lu12i.w	$r28,0
1c016158:	0280039c 	addi.w	$r28,$r28,0
1c01615c:	1400001d 	lu12i.w	$r29,0
1c016160:	028003bd 	addi.w	$r29,$r29,0
1c016164:	5c1aa15c 	bne	$r10,$r28,6816(0x1aa0) # 1c017c04 <inst_error>
1c016168:	5c1a9d7d 	bne	$r11,$r29,6812(0x1a9c) # 1c017c04 <inst_error>
1c01616c:	14986750 	lu12i.w	$r16,312122(0x4c33a)
1c016170:	02b97a10 	addi.w	$r16,$r16,-418(0xe5e)
1c016174:	14af90f1 	lu12i.w	$r17,359559(0x57c87)
1c016178:	02a87231 	addi.w	$r17,$r17,-1508(0xa1c)
1c01617c:	1400000a 	lu12i.w	$r10,0
1c016180:	1400000b 	lu12i.w	$r11,0
1c016184:	50001400 	b	20(0x14) # 1c016198 <n16_beq_test+0x5b38>
1c016188:	1498674a 	lu12i.w	$r10,312122(0x4c33a)
1c01618c:	02b9794a 	addi.w	$r10,$r10,-418(0xe5e)
1c016190:	580021ac 	beq	$r13,$r12,32(0x20) # 1c0161b0 <n16_beq_test+0x5b50>
1c016194:	50002400 	b	36(0x24) # 1c0161b8 <n16_beq_test+0x5b58>
1c016198:	153295cc 	lu12i.w	$r12,-420690(0x994ae)
1c01619c:	02be918c 	addi.w	$r12,$r12,-92(0xfa4)
1c0161a0:	1400000d 	lu12i.w	$r13,0
1c0161a4:	028001ad 	addi.w	$r13,$r13,0
1c0161a8:	5bffe18d 	beq	$r12,$r13,-32(0x3ffe0) # 1c016188 <n16_beq_test+0x5b28>
1c0161ac:	50000c00 	b	12(0xc) # 1c0161b8 <n16_beq_test+0x5b58>
1c0161b0:	14af90eb 	lu12i.w	$r11,359559(0x57c87)
1c0161b4:	02a8716b 	addi.w	$r11,$r11,-1508(0xa1c)
1c0161b8:	1400001c 	lu12i.w	$r28,0
1c0161bc:	0280039c 	addi.w	$r28,$r28,0
1c0161c0:	1400001d 	lu12i.w	$r29,0
1c0161c4:	028003bd 	addi.w	$r29,$r29,0
1c0161c8:	5c1a3d5c 	bne	$r10,$r28,6716(0x1a3c) # 1c017c04 <inst_error>
1c0161cc:	5c1a397d 	bne	$r11,$r29,6712(0x1a38) # 1c017c04 <inst_error>
1c0161d0:	14d0a930 	lu12i.w	$r16,427337(0x68549)
1c0161d4:	02be9210 	addi.w	$r16,$r16,-92(0xfa4)
1c0161d8:	15364c71 	lu12i.w	$r17,-413085(0x9b263)
1c0161dc:	02acc231 	addi.w	$r17,$r17,-1232(0xb30)
1c0161e0:	1400000a 	lu12i.w	$r10,0
1c0161e4:	1400000b 	lu12i.w	$r11,0
1c0161e8:	50001400 	b	20(0x14) # 1c0161fc <n16_beq_test+0x5b9c>
1c0161ec:	14d0a92a 	lu12i.w	$r10,427337(0x68549)
1c0161f0:	02be914a 	addi.w	$r10,$r10,-92(0xfa4)
1c0161f4:	580021ac 	beq	$r13,$r12,32(0x20) # 1c016214 <n16_beq_test+0x5bb4>
1c0161f8:	50002400 	b	36(0x24) # 1c01621c <n16_beq_test+0x5bbc>
1c0161fc:	14caefcc 	lu12i.w	$r12,415614(0x6577e)
1c016200:	02a2a18c 	addi.w	$r12,$r12,-1880(0x8a8)
1c016204:	1400000d 	lu12i.w	$r13,0
1c016208:	028001ad 	addi.w	$r13,$r13,0
1c01620c:	5bffe18d 	beq	$r12,$r13,-32(0x3ffe0) # 1c0161ec <n16_beq_test+0x5b8c>
1c016210:	50000c00 	b	12(0xc) # 1c01621c <n16_beq_test+0x5bbc>
1c016214:	15364c6b 	lu12i.w	$r11,-413085(0x9b263)
1c016218:	02acc16b 	addi.w	$r11,$r11,-1232(0xb30)
1c01621c:	1400001c 	lu12i.w	$r28,0
1c016220:	0280039c 	addi.w	$r28,$r28,0
1c016224:	1400001d 	lu12i.w	$r29,0
1c016228:	028003bd 	addi.w	$r29,$r29,0
1c01622c:	5c19d95c 	bne	$r10,$r28,6616(0x19d8) # 1c017c04 <inst_error>
1c016230:	5c19d57d 	bne	$r11,$r29,6612(0x19d4) # 1c017c04 <inst_error>
1c016234:	14ded550 	lu12i.w	$r16,456362(0x6f6aa)
1c016238:	02985e10 	addi.w	$r16,$r16,1559(0x617)
1c01623c:	15ae67b1 	lu12i.w	$r17,-167107(0xd733d)
1c016240:	02839231 	addi.w	$r17,$r17,228(0xe4)
1c016244:	1400000a 	lu12i.w	$r10,0
1c016248:	1400000b 	lu12i.w	$r11,0
1c01624c:	50001400 	b	20(0x14) # 1c016260 <n16_beq_test+0x5c00>
1c016250:	14ded54a 	lu12i.w	$r10,456362(0x6f6aa)
1c016254:	02985d4a 	addi.w	$r10,$r10,1559(0x617)
1c016258:	580021ac 	beq	$r13,$r12,32(0x20) # 1c016278 <n16_beq_test+0x5c18>
1c01625c:	50002400 	b	36(0x24) # 1c016280 <n16_beq_test+0x5c20>
1c016260:	15a1266c 	lu12i.w	$r12,-194253(0xd0933)
1c016264:	02b6798c 	addi.w	$r12,$r12,-610(0xd9e)
1c016268:	1400000d 	lu12i.w	$r13,0
1c01626c:	028001ad 	addi.w	$r13,$r13,0
1c016270:	5bffe18d 	beq	$r12,$r13,-32(0x3ffe0) # 1c016250 <n16_beq_test+0x5bf0>
1c016274:	50000c00 	b	12(0xc) # 1c016280 <n16_beq_test+0x5c20>
1c016278:	15ae67ab 	lu12i.w	$r11,-167107(0xd733d)
1c01627c:	0283916b 	addi.w	$r11,$r11,228(0xe4)
1c016280:	1400001c 	lu12i.w	$r28,0
1c016284:	0280039c 	addi.w	$r28,$r28,0
1c016288:	1400001d 	lu12i.w	$r29,0
1c01628c:	028003bd 	addi.w	$r29,$r29,0
1c016290:	5c19755c 	bne	$r10,$r28,6516(0x1974) # 1c017c04 <inst_error>
1c016294:	5c19717d 	bne	$r11,$r29,6512(0x1970) # 1c017c04 <inst_error>
1c016298:	140d7150 	lu12i.w	$r16,27530(0x6b8a)
1c01629c:	02a88210 	addi.w	$r16,$r16,-1504(0xa20)
1c0162a0:	156e4a71 	lu12i.w	$r17,-298413(0xb7253)
1c0162a4:	02a09231 	addi.w	$r17,$r17,-2012(0x824)
1c0162a8:	1400000a 	lu12i.w	$r10,0
1c0162ac:	1400000b 	lu12i.w	$r11,0
1c0162b0:	50001400 	b	20(0x14) # 1c0162c4 <n16_beq_test+0x5c64>
1c0162b4:	140d714a 	lu12i.w	$r10,27530(0x6b8a)
1c0162b8:	02a8814a 	addi.w	$r10,$r10,-1504(0xa20)
1c0162bc:	580021ac 	beq	$r13,$r12,32(0x20) # 1c0162dc <n16_beq_test+0x5c7c>
1c0162c0:	50002400 	b	36(0x24) # 1c0162e4 <n16_beq_test+0x5c84>
1c0162c4:	1570334c 	lu12i.w	$r12,-294502(0xb819a)
1c0162c8:	02b5f58c 	addi.w	$r12,$r12,-643(0xd7d)
1c0162cc:	1400000d 	lu12i.w	$r13,0
1c0162d0:	028001ad 	addi.w	$r13,$r13,0
1c0162d4:	5bffe18d 	beq	$r12,$r13,-32(0x3ffe0) # 1c0162b4 <n16_beq_test+0x5c54>
1c0162d8:	50000c00 	b	12(0xc) # 1c0162e4 <n16_beq_test+0x5c84>
1c0162dc:	156e4a6b 	lu12i.w	$r11,-298413(0xb7253)
1c0162e0:	02a0916b 	addi.w	$r11,$r11,-2012(0x824)
1c0162e4:	1400001c 	lu12i.w	$r28,0
1c0162e8:	0280039c 	addi.w	$r28,$r28,0
1c0162ec:	1400001d 	lu12i.w	$r29,0
1c0162f0:	028003bd 	addi.w	$r29,$r29,0
1c0162f4:	5c19115c 	bne	$r10,$r28,6416(0x1910) # 1c017c04 <inst_error>
1c0162f8:	5c190d7d 	bne	$r11,$r29,6412(0x190c) # 1c017c04 <inst_error>
1c0162fc:	14a12730 	lu12i.w	$r16,330041(0x50939)
1c016300:	02ac0210 	addi.w	$r16,$r16,-1280(0xb00)
1c016304:	1528b171 	lu12i.w	$r17,-440949(0x9458b)
1c016308:	02ac2231 	addi.w	$r17,$r17,-1272(0xb08)
1c01630c:	1400000a 	lu12i.w	$r10,0
1c016310:	1400000b 	lu12i.w	$r11,0
1c016314:	50001400 	b	20(0x14) # 1c016328 <n16_beq_test+0x5cc8>
1c016318:	14a1272a 	lu12i.w	$r10,330041(0x50939)
1c01631c:	02ac014a 	addi.w	$r10,$r10,-1280(0xb00)
1c016320:	580021ac 	beq	$r13,$r12,32(0x20) # 1c016340 <n16_beq_test+0x5ce0>
1c016324:	50002400 	b	36(0x24) # 1c016348 <n16_beq_test+0x5ce8>
1c016328:	1489cbec 	lu12i.w	$r12,282207(0x44e5f)
1c01632c:	0289018c 	addi.w	$r12,$r12,576(0x240)
1c016330:	1400000d 	lu12i.w	$r13,0
1c016334:	028001ad 	addi.w	$r13,$r13,0
1c016338:	5bffe18d 	beq	$r12,$r13,-32(0x3ffe0) # 1c016318 <n16_beq_test+0x5cb8>
1c01633c:	50000c00 	b	12(0xc) # 1c016348 <n16_beq_test+0x5ce8>
1c016340:	1528b16b 	lu12i.w	$r11,-440949(0x9458b)
1c016344:	02ac216b 	addi.w	$r11,$r11,-1272(0xb08)
1c016348:	1400001c 	lu12i.w	$r28,0
1c01634c:	0280039c 	addi.w	$r28,$r28,0
1c016350:	1400001d 	lu12i.w	$r29,0
1c016354:	028003bd 	addi.w	$r29,$r29,0
1c016358:	5c18ad5c 	bne	$r10,$r28,6316(0x18ac) # 1c017c04 <inst_error>
1c01635c:	5c18a97d 	bne	$r11,$r29,6312(0x18a8) # 1c017c04 <inst_error>
1c016360:	144652b0 	lu12i.w	$r16,144021(0x23295)
1c016364:	02bfb210 	addi.w	$r16,$r16,-20(0xfec)
1c016368:	1461e851 	lu12i.w	$r17,200514(0x30f42)
1c01636c:	028d3631 	addi.w	$r17,$r17,845(0x34d)
1c016370:	1400000a 	lu12i.w	$r10,0
1c016374:	1400000b 	lu12i.w	$r11,0
1c016378:	50001400 	b	20(0x14) # 1c01638c <n16_beq_test+0x5d2c>
1c01637c:	144652aa 	lu12i.w	$r10,144021(0x23295)
1c016380:	02bfb14a 	addi.w	$r10,$r10,-20(0xfec)
1c016384:	580021ac 	beq	$r13,$r12,32(0x20) # 1c0163a4 <n16_beq_test+0x5d44>
1c016388:	50002400 	b	36(0x24) # 1c0163ac <n16_beq_test+0x5d4c>
1c01638c:	15b6774c 	lu12i.w	$r12,-150598(0xdb3ba)
1c016390:	0297b18c 	addi.w	$r12,$r12,1516(0x5ec)
1c016394:	1400000d 	lu12i.w	$r13,0
1c016398:	028001ad 	addi.w	$r13,$r13,0
1c01639c:	5bffe18d 	beq	$r12,$r13,-32(0x3ffe0) # 1c01637c <n16_beq_test+0x5d1c>
1c0163a0:	50000c00 	b	12(0xc) # 1c0163ac <n16_beq_test+0x5d4c>
1c0163a4:	1461e84b 	lu12i.w	$r11,200514(0x30f42)
1c0163a8:	028d356b 	addi.w	$r11,$r11,845(0x34d)
1c0163ac:	1400001c 	lu12i.w	$r28,0
1c0163b0:	0280039c 	addi.w	$r28,$r28,0
1c0163b4:	1400001d 	lu12i.w	$r29,0
1c0163b8:	028003bd 	addi.w	$r29,$r29,0
1c0163bc:	5c18495c 	bne	$r10,$r28,6216(0x1848) # 1c017c04 <inst_error>
1c0163c0:	5c18457d 	bne	$r11,$r29,6212(0x1844) # 1c017c04 <inst_error>
1c0163c4:	158a8830 	lu12i.w	$r16,-240575(0xc5441)
1c0163c8:	02b6a210 	addi.w	$r16,$r16,-600(0xda8)
1c0163cc:	1569fe71 	lu12i.w	$r17,-307213(0xb4ff3)
1c0163d0:	02a6a231 	addi.w	$r17,$r17,-1624(0x9a8)
1c0163d4:	1400000a 	lu12i.w	$r10,0
1c0163d8:	1400000b 	lu12i.w	$r11,0
1c0163dc:	50001400 	b	20(0x14) # 1c0163f0 <n16_beq_test+0x5d90>
1c0163e0:	158a882a 	lu12i.w	$r10,-240575(0xc5441)
1c0163e4:	02b6a14a 	addi.w	$r10,$r10,-600(0xda8)
1c0163e8:	580021ac 	beq	$r13,$r12,32(0x20) # 1c016408 <n16_beq_test+0x5da8>
1c0163ec:	50002400 	b	36(0x24) # 1c016410 <n16_beq_test+0x5db0>
1c0163f0:	15066b4c 	lu12i.w	$r12,-511142(0x8335a)
1c0163f4:	02a9e58c 	addi.w	$r12,$r12,-1415(0xa79)
1c0163f8:	1400000d 	lu12i.w	$r13,0
1c0163fc:	028001ad 	addi.w	$r13,$r13,0
1c016400:	5bffe18d 	beq	$r12,$r13,-32(0x3ffe0) # 1c0163e0 <n16_beq_test+0x5d80>
1c016404:	50000c00 	b	12(0xc) # 1c016410 <n16_beq_test+0x5db0>
1c016408:	1569fe6b 	lu12i.w	$r11,-307213(0xb4ff3)
1c01640c:	02a6a16b 	addi.w	$r11,$r11,-1624(0x9a8)
1c016410:	1400001c 	lu12i.w	$r28,0
1c016414:	0280039c 	addi.w	$r28,$r28,0
1c016418:	1400001d 	lu12i.w	$r29,0
1c01641c:	028003bd 	addi.w	$r29,$r29,0
1c016420:	5c17e55c 	bne	$r10,$r28,6116(0x17e4) # 1c017c04 <inst_error>
1c016424:	5c17e17d 	bne	$r11,$r29,6112(0x17e0) # 1c017c04 <inst_error>
1c016428:	1422f070 	lu12i.w	$r16,71555(0x11783)
1c01642c:	028b0210 	addi.w	$r16,$r16,704(0x2c0)
1c016430:	15b54471 	lu12i.w	$r17,-153053(0xdaa23)
1c016434:	02970231 	addi.w	$r17,$r17,1472(0x5c0)
1c016438:	1400000a 	lu12i.w	$r10,0
1c01643c:	1400000b 	lu12i.w	$r11,0
1c016440:	50001400 	b	20(0x14) # 1c016454 <n16_beq_test+0x5df4>
1c016444:	1422f06a 	lu12i.w	$r10,71555(0x11783)
1c016448:	028b014a 	addi.w	$r10,$r10,704(0x2c0)
1c01644c:	580021ac 	beq	$r13,$r12,32(0x20) # 1c01646c <n16_beq_test+0x5e0c>
1c016450:	50002400 	b	36(0x24) # 1c016474 <n16_beq_test+0x5e14>
1c016454:	148372ec 	lu12i.w	$r12,269207(0x41b97)
1c016458:	029fe98c 	addi.w	$r12,$r12,2042(0x7fa)
1c01645c:	1400000d 	lu12i.w	$r13,0
1c016460:	028001ad 	addi.w	$r13,$r13,0
1c016464:	5bffe18d 	beq	$r12,$r13,-32(0x3ffe0) # 1c016444 <n16_beq_test+0x5de4>
1c016468:	50000c00 	b	12(0xc) # 1c016474 <n16_beq_test+0x5e14>
1c01646c:	15b5446b 	lu12i.w	$r11,-153053(0xdaa23)
1c016470:	0297016b 	addi.w	$r11,$r11,1472(0x5c0)
1c016474:	1400001c 	lu12i.w	$r28,0
1c016478:	0280039c 	addi.w	$r28,$r28,0
1c01647c:	1400001d 	lu12i.w	$r29,0
1c016480:	028003bd 	addi.w	$r29,$r29,0
1c016484:	5c17815c 	bne	$r10,$r28,6016(0x1780) # 1c017c04 <inst_error>
1c016488:	5c177d7d 	bne	$r11,$r29,6012(0x177c) # 1c017c04 <inst_error>
1c01648c:	14d89cb0 	lu12i.w	$r16,443621(0x6c4e5)
1c016490:	028a6210 	addi.w	$r16,$r16,664(0x298)
1c016494:	15e4add1 	lu12i.w	$r17,-55954(0xf256e)
1c016498:	02ac8a31 	addi.w	$r17,$r17,-1246(0xb22)
1c01649c:	1400000a 	lu12i.w	$r10,0
1c0164a0:	1400000b 	lu12i.w	$r11,0
1c0164a4:	50001400 	b	20(0x14) # 1c0164b8 <n16_beq_test+0x5e58>
1c0164a8:	14d89caa 	lu12i.w	$r10,443621(0x6c4e5)
1c0164ac:	028a614a 	addi.w	$r10,$r10,664(0x298)
1c0164b0:	580021ac 	beq	$r13,$r12,32(0x20) # 1c0164d0 <n16_beq_test+0x5e70>
1c0164b4:	50002400 	b	36(0x24) # 1c0164d8 <n16_beq_test+0x5e78>
1c0164b8:	1533d56c 	lu12i.w	$r12,-418133(0x99eab)
1c0164bc:	02a9e18c 	addi.w	$r12,$r12,-1416(0xa78)
1c0164c0:	1400000d 	lu12i.w	$r13,0
1c0164c4:	028001ad 	addi.w	$r13,$r13,0
1c0164c8:	5bffe18d 	beq	$r12,$r13,-32(0x3ffe0) # 1c0164a8 <n16_beq_test+0x5e48>
1c0164cc:	50000c00 	b	12(0xc) # 1c0164d8 <n16_beq_test+0x5e78>
1c0164d0:	15e4adcb 	lu12i.w	$r11,-55954(0xf256e)
1c0164d4:	02ac896b 	addi.w	$r11,$r11,-1246(0xb22)
1c0164d8:	1400001c 	lu12i.w	$r28,0
1c0164dc:	0280039c 	addi.w	$r28,$r28,0
1c0164e0:	1400001d 	lu12i.w	$r29,0
1c0164e4:	028003bd 	addi.w	$r29,$r29,0
1c0164e8:	5c171d5c 	bne	$r10,$r28,5916(0x171c) # 1c017c04 <inst_error>
1c0164ec:	5c17197d 	bne	$r11,$r29,5912(0x1718) # 1c017c04 <inst_error>
1c0164f0:	1524ee30 	lu12i.w	$r16,-448655(0x92771)
1c0164f4:	02952610 	addi.w	$r16,$r16,1353(0x549)
1c0164f8:	148b4b71 	lu12i.w	$r17,285275(0x45a5b)
1c0164fc:	02948231 	addi.w	$r17,$r17,1312(0x520)
1c016500:	1400000a 	lu12i.w	$r10,0
1c016504:	1400000b 	lu12i.w	$r11,0
1c016508:	50001400 	b	20(0x14) # 1c01651c <n16_beq_test+0x5ebc>
1c01650c:	1524ee2a 	lu12i.w	$r10,-448655(0x92771)
1c016510:	0295254a 	addi.w	$r10,$r10,1353(0x549)
1c016514:	580021ac 	beq	$r13,$r12,32(0x20) # 1c016534 <n16_beq_test+0x5ed4>
1c016518:	50002400 	b	36(0x24) # 1c01653c <n16_beq_test+0x5edc>
1c01651c:	150cc3ec 	lu12i.w	$r12,-498145(0x8661f)
1c016520:	02b3018c 	addi.w	$r12,$r12,-832(0xcc0)
1c016524:	1400000d 	lu12i.w	$r13,0
1c016528:	028001ad 	addi.w	$r13,$r13,0
1c01652c:	5bffe18d 	beq	$r12,$r13,-32(0x3ffe0) # 1c01650c <n16_beq_test+0x5eac>
1c016530:	50000c00 	b	12(0xc) # 1c01653c <n16_beq_test+0x5edc>
1c016534:	148b4b6b 	lu12i.w	$r11,285275(0x45a5b)
1c016538:	0294816b 	addi.w	$r11,$r11,1312(0x520)
1c01653c:	1400001c 	lu12i.w	$r28,0
1c016540:	0280039c 	addi.w	$r28,$r28,0
1c016544:	1400001d 	lu12i.w	$r29,0
1c016548:	028003bd 	addi.w	$r29,$r29,0
1c01654c:	5c16b95c 	bne	$r10,$r28,5816(0x16b8) # 1c017c04 <inst_error>
1c016550:	5c16b57d 	bne	$r11,$r29,5812(0x16b4) # 1c017c04 <inst_error>
1c016554:	15d32cd0 	lu12i.w	$r16,-91802(0xe9966)
1c016558:	02a60210 	addi.w	$r16,$r16,-1664(0x980)
1c01655c:	148cce91 	lu12i.w	$r17,288372(0x46674)
1c016560:	028e7231 	addi.w	$r17,$r17,924(0x39c)
1c016564:	1400000a 	lu12i.w	$r10,0
1c016568:	1400000b 	lu12i.w	$r11,0
1c01656c:	50001400 	b	20(0x14) # 1c016580 <n16_beq_test+0x5f20>
1c016570:	15d32cca 	lu12i.w	$r10,-91802(0xe9966)
1c016574:	02a6014a 	addi.w	$r10,$r10,-1664(0x980)
1c016578:	580021ac 	beq	$r13,$r12,32(0x20) # 1c016598 <n16_beq_test+0x5f38>
1c01657c:	50002400 	b	36(0x24) # 1c0165a0 <n16_beq_test+0x5f40>
1c016580:	150cb90c 	lu12i.w	$r12,-498232(0x865c8)
1c016584:	0295018c 	addi.w	$r12,$r12,1344(0x540)
1c016588:	1400000d 	lu12i.w	$r13,0
1c01658c:	028001ad 	addi.w	$r13,$r13,0
1c016590:	5bffe18d 	beq	$r12,$r13,-32(0x3ffe0) # 1c016570 <n16_beq_test+0x5f10>
1c016594:	50000c00 	b	12(0xc) # 1c0165a0 <n16_beq_test+0x5f40>
1c016598:	148cce8b 	lu12i.w	$r11,288372(0x46674)
1c01659c:	028e716b 	addi.w	$r11,$r11,924(0x39c)
1c0165a0:	1400001c 	lu12i.w	$r28,0
1c0165a4:	0280039c 	addi.w	$r28,$r28,0
1c0165a8:	1400001d 	lu12i.w	$r29,0
1c0165ac:	028003bd 	addi.w	$r29,$r29,0
1c0165b0:	5c16555c 	bne	$r10,$r28,5716(0x1654) # 1c017c04 <inst_error>
1c0165b4:	5c16517d 	bne	$r11,$r29,5712(0x1650) # 1c017c04 <inst_error>
1c0165b8:	15779010 	lu12i.w	$r16,-279424(0xbbc80)
1c0165bc:	028f6210 	addi.w	$r16,$r16,984(0x3d8)
1c0165c0:	14e3e631 	lu12i.w	$r17,466737(0x71f31)
1c0165c4:	02ab4e31 	addi.w	$r17,$r17,-1325(0xad3)
1c0165c8:	1400000a 	lu12i.w	$r10,0
1c0165cc:	1400000b 	lu12i.w	$r11,0
1c0165d0:	50001400 	b	20(0x14) # 1c0165e4 <n16_beq_test+0x5f84>
1c0165d4:	1577900a 	lu12i.w	$r10,-279424(0xbbc80)
1c0165d8:	028f614a 	addi.w	$r10,$r10,984(0x3d8)
1c0165dc:	580021ac 	beq	$r13,$r12,32(0x20) # 1c0165fc <n16_beq_test+0x5f9c>
1c0165e0:	50002400 	b	36(0x24) # 1c016604 <n16_beq_test+0x5fa4>
1c0165e4:	1556f86c 	lu12i.w	$r12,-346173(0xab7c3)
1c0165e8:	02a3018c 	addi.w	$r12,$r12,-1856(0x8c0)
1c0165ec:	1400000d 	lu12i.w	$r13,0
1c0165f0:	028001ad 	addi.w	$r13,$r13,0
1c0165f4:	5bffe18d 	beq	$r12,$r13,-32(0x3ffe0) # 1c0165d4 <n16_beq_test+0x5f74>
1c0165f8:	50000c00 	b	12(0xc) # 1c016604 <n16_beq_test+0x5fa4>
1c0165fc:	14e3e62b 	lu12i.w	$r11,466737(0x71f31)
1c016600:	02ab4d6b 	addi.w	$r11,$r11,-1325(0xad3)
1c016604:	1400001c 	lu12i.w	$r28,0
1c016608:	0280039c 	addi.w	$r28,$r28,0
1c01660c:	1400001d 	lu12i.w	$r29,0
1c016610:	028003bd 	addi.w	$r29,$r29,0
1c016614:	5c15f15c 	bne	$r10,$r28,5616(0x15f0) # 1c017c04 <inst_error>
1c016618:	5c15ed7d 	bne	$r11,$r29,5612(0x15ec) # 1c017c04 <inst_error>
1c01661c:	15835ef0 	lu12i.w	$r16,-255241(0xc1af7)
1c016620:	02b83210 	addi.w	$r16,$r16,-500(0xe0c)
1c016624:	14251751 	lu12i.w	$r17,75962(0x128ba)
1c016628:	02b48231 	addi.w	$r17,$r17,-736(0xd20)
1c01662c:	1400000a 	lu12i.w	$r10,0
1c016630:	1400000b 	lu12i.w	$r11,0
1c016634:	50001400 	b	20(0x14) # 1c016648 <n16_beq_test+0x5fe8>
1c016638:	15835eea 	lu12i.w	$r10,-255241(0xc1af7)
1c01663c:	02b8314a 	addi.w	$r10,$r10,-500(0xe0c)
1c016640:	580021ac 	beq	$r13,$r12,32(0x20) # 1c016660 <n16_beq_test+0x6000>
1c016644:	50002400 	b	36(0x24) # 1c016668 <n16_beq_test+0x6008>
1c016648:	147b138c 	lu12i.w	$r12,252060(0x3d89c)
1c01664c:	02a6518c 	addi.w	$r12,$r12,-1644(0x994)
1c016650:	1400000d 	lu12i.w	$r13,0
1c016654:	028001ad 	addi.w	$r13,$r13,0
1c016658:	5bffe18d 	beq	$r12,$r13,-32(0x3ffe0) # 1c016638 <n16_beq_test+0x5fd8>
1c01665c:	50000c00 	b	12(0xc) # 1c016668 <n16_beq_test+0x6008>
1c016660:	1425174b 	lu12i.w	$r11,75962(0x128ba)
1c016664:	02b4816b 	addi.w	$r11,$r11,-736(0xd20)
1c016668:	1400001c 	lu12i.w	$r28,0
1c01666c:	0280039c 	addi.w	$r28,$r28,0
1c016670:	1400001d 	lu12i.w	$r29,0
1c016674:	028003bd 	addi.w	$r29,$r29,0
1c016678:	5c158d5c 	bne	$r10,$r28,5516(0x158c) # 1c017c04 <inst_error>
1c01667c:	5c15897d 	bne	$r11,$r29,5512(0x1588) # 1c017c04 <inst_error>
1c016680:	15c5b5b0 	lu12i.w	$r16,-119379(0xe2dad)
1c016684:	02811a10 	addi.w	$r16,$r16,70(0x46)
1c016688:	140e62b1 	lu12i.w	$r17,29461(0x7315)
1c01668c:	02bce231 	addi.w	$r17,$r17,-200(0xf38)
1c016690:	1400000a 	lu12i.w	$r10,0
1c016694:	1400000b 	lu12i.w	$r11,0
1c016698:	50001400 	b	20(0x14) # 1c0166ac <n16_beq_test+0x604c>
1c01669c:	15c5b5aa 	lu12i.w	$r10,-119379(0xe2dad)
1c0166a0:	0281194a 	addi.w	$r10,$r10,70(0x46)
1c0166a4:	580021ac 	beq	$r13,$r12,32(0x20) # 1c0166c4 <n16_beq_test+0x6064>
1c0166a8:	50002400 	b	36(0x24) # 1c0166cc <n16_beq_test+0x606c>
1c0166ac:	1502b2ec 	lu12i.w	$r12,-518761(0x81597)
1c0166b0:	029cf98c 	addi.w	$r12,$r12,1854(0x73e)
1c0166b4:	1400000d 	lu12i.w	$r13,0
1c0166b8:	028001ad 	addi.w	$r13,$r13,0
1c0166bc:	5bffe18d 	beq	$r12,$r13,-32(0x3ffe0) # 1c01669c <n16_beq_test+0x603c>
1c0166c0:	50000c00 	b	12(0xc) # 1c0166cc <n16_beq_test+0x606c>
1c0166c4:	140e62ab 	lu12i.w	$r11,29461(0x7315)
1c0166c8:	02bce16b 	addi.w	$r11,$r11,-200(0xf38)
1c0166cc:	1400001c 	lu12i.w	$r28,0
1c0166d0:	0280039c 	addi.w	$r28,$r28,0
1c0166d4:	1400001d 	lu12i.w	$r29,0
1c0166d8:	028003bd 	addi.w	$r29,$r29,0
1c0166dc:	5c15295c 	bne	$r10,$r28,5416(0x1528) # 1c017c04 <inst_error>
1c0166e0:	5c15257d 	bne	$r11,$r29,5412(0x1524) # 1c017c04 <inst_error>
1c0166e4:	14c09b10 	lu12i.w	$r16,394456(0x604d8)
1c0166e8:	02862e10 	addi.w	$r16,$r16,395(0x18b)
1c0166ec:	14be97b1 	lu12i.w	$r17,390333(0x5f4bd)
1c0166f0:	02987a31 	addi.w	$r17,$r17,1566(0x61e)
1c0166f4:	1400000a 	lu12i.w	$r10,0
1c0166f8:	1400000b 	lu12i.w	$r11,0
1c0166fc:	50001400 	b	20(0x14) # 1c016710 <n16_beq_test+0x60b0>
1c016700:	14c09b0a 	lu12i.w	$r10,394456(0x604d8)
1c016704:	02862d4a 	addi.w	$r10,$r10,395(0x18b)
1c016708:	580021ac 	beq	$r13,$r12,32(0x20) # 1c016728 <n16_beq_test+0x60c8>
1c01670c:	50002400 	b	36(0x24) # 1c016730 <n16_beq_test+0x60d0>
1c016710:	15636ecc 	lu12i.w	$r12,-320650(0xb1b76)
1c016714:	02b0818c 	addi.w	$r12,$r12,-992(0xc20)
1c016718:	1400000d 	lu12i.w	$r13,0
1c01671c:	028001ad 	addi.w	$r13,$r13,0
1c016720:	5bffe18d 	beq	$r12,$r13,-32(0x3ffe0) # 1c016700 <n16_beq_test+0x60a0>
1c016724:	50000c00 	b	12(0xc) # 1c016730 <n16_beq_test+0x60d0>
1c016728:	14be97ab 	lu12i.w	$r11,390333(0x5f4bd)
1c01672c:	0298796b 	addi.w	$r11,$r11,1566(0x61e)
1c016730:	1400001c 	lu12i.w	$r28,0
1c016734:	0280039c 	addi.w	$r28,$r28,0
1c016738:	1400001d 	lu12i.w	$r29,0
1c01673c:	028003bd 	addi.w	$r29,$r29,0
1c016740:	5c14c55c 	bne	$r10,$r28,5316(0x14c4) # 1c017c04 <inst_error>
1c016744:	5c14c17d 	bne	$r11,$r29,5312(0x14c0) # 1c017c04 <inst_error>
1c016748:	158be430 	lu12i.w	$r16,-237791(0xc5f21)
1c01674c:	02bfca10 	addi.w	$r16,$r16,-14(0xff2)
1c016750:	14478131 	lu12i.w	$r17,146441(0x23c09)
1c016754:	02b0b231 	addi.w	$r17,$r17,-980(0xc2c)
1c016758:	1400000a 	lu12i.w	$r10,0
1c01675c:	1400000b 	lu12i.w	$r11,0
1c016760:	50001400 	b	20(0x14) # 1c016774 <n16_beq_test+0x6114>
1c016764:	158be42a 	lu12i.w	$r10,-237791(0xc5f21)
1c016768:	02bfc94a 	addi.w	$r10,$r10,-14(0xff2)
1c01676c:	580021ac 	beq	$r13,$r12,32(0x20) # 1c01678c <n16_beq_test+0x612c>
1c016770:	50002400 	b	36(0x24) # 1c016794 <n16_beq_test+0x6134>
1c016774:	15c7972c 	lu12i.w	$r12,-115527(0xe3cb9)
1c016778:	02a4e18c 	addi.w	$r12,$r12,-1736(0x938)
1c01677c:	1400000d 	lu12i.w	$r13,0
1c016780:	028001ad 	addi.w	$r13,$r13,0
1c016784:	5bffe18d 	beq	$r12,$r13,-32(0x3ffe0) # 1c016764 <n16_beq_test+0x6104>
1c016788:	50000c00 	b	12(0xc) # 1c016794 <n16_beq_test+0x6134>
1c01678c:	1447812b 	lu12i.w	$r11,146441(0x23c09)
1c016790:	02b0b16b 	addi.w	$r11,$r11,-980(0xc2c)
1c016794:	1400001c 	lu12i.w	$r28,0
1c016798:	0280039c 	addi.w	$r28,$r28,0
1c01679c:	1400001d 	lu12i.w	$r29,0
1c0167a0:	028003bd 	addi.w	$r29,$r29,0
1c0167a4:	5c14615c 	bne	$r10,$r28,5216(0x1460) # 1c017c04 <inst_error>
1c0167a8:	5c145d7d 	bne	$r11,$r29,5212(0x145c) # 1c017c04 <inst_error>
1c0167ac:	14232cd0 	lu12i.w	$r16,72038(0x11966)
1c0167b0:	02b74210 	addi.w	$r16,$r16,-560(0xdd0)
1c0167b4:	14c129d1 	lu12i.w	$r17,395598(0x6094e)
1c0167b8:	02954231 	addi.w	$r17,$r17,1360(0x550)
1c0167bc:	1400000a 	lu12i.w	$r10,0
1c0167c0:	1400000b 	lu12i.w	$r11,0
1c0167c4:	50001400 	b	20(0x14) # 1c0167d8 <n16_beq_test+0x6178>
1c0167c8:	14232cca 	lu12i.w	$r10,72038(0x11966)
1c0167cc:	02b7414a 	addi.w	$r10,$r10,-560(0xdd0)
1c0167d0:	580021ac 	beq	$r13,$r12,32(0x20) # 1c0167f0 <n16_beq_test+0x6190>
1c0167d4:	50002400 	b	36(0x24) # 1c0167f8 <n16_beq_test+0x6198>
1c0167d8:	14e2b20c 	lu12i.w	$r12,464272(0x71590)
1c0167dc:	029d098c 	addi.w	$r12,$r12,1858(0x742)
1c0167e0:	1400000d 	lu12i.w	$r13,0
1c0167e4:	028001ad 	addi.w	$r13,$r13,0
1c0167e8:	5bffe18d 	beq	$r12,$r13,-32(0x3ffe0) # 1c0167c8 <n16_beq_test+0x6168>
1c0167ec:	50000c00 	b	12(0xc) # 1c0167f8 <n16_beq_test+0x6198>
1c0167f0:	14c129cb 	lu12i.w	$r11,395598(0x6094e)
1c0167f4:	0295416b 	addi.w	$r11,$r11,1360(0x550)
1c0167f8:	1400001c 	lu12i.w	$r28,0
1c0167fc:	0280039c 	addi.w	$r28,$r28,0
1c016800:	1400001d 	lu12i.w	$r29,0
1c016804:	028003bd 	addi.w	$r29,$r29,0
1c016808:	5c13fd5c 	bne	$r10,$r28,5116(0x13fc) # 1c017c04 <inst_error>
1c01680c:	5c13f97d 	bne	$r11,$r29,5112(0x13f8) # 1c017c04 <inst_error>
1c016810:	153164d0 	lu12i.w	$r16,-423130(0x98b26)
1c016814:	0288c210 	addi.w	$r16,$r16,560(0x230)
1c016818:	15079271 	lu12i.w	$r17,-508781(0x83c93)
1c01681c:	0296b231 	addi.w	$r17,$r17,1452(0x5ac)
1c016820:	1400000a 	lu12i.w	$r10,0
1c016824:	1400000b 	lu12i.w	$r11,0
1c016828:	50001400 	b	20(0x14) # 1c01683c <n16_beq_test+0x61dc>
1c01682c:	153164ca 	lu12i.w	$r10,-423130(0x98b26)
1c016830:	0288c14a 	addi.w	$r10,$r10,560(0x230)
1c016834:	580021ac 	beq	$r13,$r12,32(0x20) # 1c016854 <n16_beq_test+0x61f4>
1c016838:	50002400 	b	36(0x24) # 1c01685c <n16_beq_test+0x61fc>
1c01683c:	1400000c 	lu12i.w	$r12,0
1c016840:	0280018c 	addi.w	$r12,$r12,0
1c016844:	1460e52d 	lu12i.w	$r13,198441(0x30729)
1c016848:	029bc1ad 	addi.w	$r13,$r13,1776(0x6f0)
1c01684c:	5bffe18d 	beq	$r12,$r13,-32(0x3ffe0) # 1c01682c <n16_beq_test+0x61cc>
1c016850:	50000c00 	b	12(0xc) # 1c01685c <n16_beq_test+0x61fc>
1c016854:	1507926b 	lu12i.w	$r11,-508781(0x83c93)
1c016858:	0296b16b 	addi.w	$r11,$r11,1452(0x5ac)
1c01685c:	1400001c 	lu12i.w	$r28,0
1c016860:	0280039c 	addi.w	$r28,$r28,0
1c016864:	1400001d 	lu12i.w	$r29,0
1c016868:	028003bd 	addi.w	$r29,$r29,0
1c01686c:	5c13995c 	bne	$r10,$r28,5016(0x1398) # 1c017c04 <inst_error>
1c016870:	5c13957d 	bne	$r11,$r29,5012(0x1394) # 1c017c04 <inst_error>
1c016874:	15a01470 	lu12i.w	$r16,-196445(0xd00a3)
1c016878:	02b6e210 	addi.w	$r16,$r16,-584(0xdb8)
1c01687c:	14237431 	lu12i.w	$r17,72609(0x11ba1)
1c016880:	02a12231 	addi.w	$r17,$r17,-1976(0x848)
1c016884:	1400000a 	lu12i.w	$r10,0
1c016888:	1400000b 	lu12i.w	$r11,0
1c01688c:	50001400 	b	20(0x14) # 1c0168a0 <n16_beq_test+0x6240>
1c016890:	15a0146a 	lu12i.w	$r10,-196445(0xd00a3)
1c016894:	02b6e14a 	addi.w	$r10,$r10,-584(0xdb8)
1c016898:	580021ac 	beq	$r13,$r12,32(0x20) # 1c0168b8 <n16_beq_test+0x6258>
1c01689c:	50002400 	b	36(0x24) # 1c0168c0 <n16_beq_test+0x6260>
1c0168a0:	1400000c 	lu12i.w	$r12,0
1c0168a4:	0280018c 	addi.w	$r12,$r12,0
1c0168a8:	15e79b0d 	lu12i.w	$r13,-49960(0xf3cd8)
1c0168ac:	028581ad 	addi.w	$r13,$r13,352(0x160)
1c0168b0:	5bffe18d 	beq	$r12,$r13,-32(0x3ffe0) # 1c016890 <n16_beq_test+0x6230>
1c0168b4:	50000c00 	b	12(0xc) # 1c0168c0 <n16_beq_test+0x6260>
1c0168b8:	1423742b 	lu12i.w	$r11,72609(0x11ba1)
1c0168bc:	02a1216b 	addi.w	$r11,$r11,-1976(0x848)
1c0168c0:	1400001c 	lu12i.w	$r28,0
1c0168c4:	0280039c 	addi.w	$r28,$r28,0
1c0168c8:	1400001d 	lu12i.w	$r29,0
1c0168cc:	028003bd 	addi.w	$r29,$r29,0
1c0168d0:	5c13355c 	bne	$r10,$r28,4916(0x1334) # 1c017c04 <inst_error>
1c0168d4:	5c13317d 	bne	$r11,$r29,4912(0x1330) # 1c017c04 <inst_error>
1c0168d8:	15853850 	lu12i.w	$r16,-251454(0xc29c2)
1c0168dc:	02866210 	addi.w	$r16,$r16,408(0x198)
1c0168e0:	15707231 	lu12i.w	$r17,-293999(0xb8391)
1c0168e4:	028a9a31 	addi.w	$r17,$r17,678(0x2a6)
1c0168e8:	1400000a 	lu12i.w	$r10,0
1c0168ec:	1400000b 	lu12i.w	$r11,0
1c0168f0:	50001400 	b	20(0x14) # 1c016904 <n16_beq_test+0x62a4>
1c0168f4:	1585384a 	lu12i.w	$r10,-251454(0xc29c2)
1c0168f8:	0286614a 	addi.w	$r10,$r10,408(0x198)
1c0168fc:	580021ac 	beq	$r13,$r12,32(0x20) # 1c01691c <n16_beq_test+0x62bc>
1c016900:	50002400 	b	36(0x24) # 1c016924 <n16_beq_test+0x62c4>
1c016904:	1400000c 	lu12i.w	$r12,0
1c016908:	0280018c 	addi.w	$r12,$r12,0
1c01690c:	1444f54d 	lu12i.w	$r13,141226(0x227aa)
1c016910:	02b609ad 	addi.w	$r13,$r13,-638(0xd82)
1c016914:	5bffe18d 	beq	$r12,$r13,-32(0x3ffe0) # 1c0168f4 <n16_beq_test+0x6294>
1c016918:	50000c00 	b	12(0xc) # 1c016924 <n16_beq_test+0x62c4>
1c01691c:	1570722b 	lu12i.w	$r11,-293999(0xb8391)
1c016920:	028a996b 	addi.w	$r11,$r11,678(0x2a6)
1c016924:	1400001c 	lu12i.w	$r28,0
1c016928:	0280039c 	addi.w	$r28,$r28,0
1c01692c:	1400001d 	lu12i.w	$r29,0
1c016930:	028003bd 	addi.w	$r29,$r29,0
1c016934:	5c12d15c 	bne	$r10,$r28,4816(0x12d0) # 1c017c04 <inst_error>
1c016938:	5c12cd7d 	bne	$r11,$r29,4812(0x12cc) # 1c017c04 <inst_error>
1c01693c:	14916db0 	lu12i.w	$r16,297837(0x48b6d)
1c016940:	028ffa10 	addi.w	$r16,$r16,1022(0x3fe)
1c016944:	155f2d11 	lu12i.w	$r17,-329368(0xaf968)
1c016948:	029afe31 	addi.w	$r17,$r17,1727(0x6bf)
1c01694c:	1400000a 	lu12i.w	$r10,0
1c016950:	1400000b 	lu12i.w	$r11,0
1c016954:	50001400 	b	20(0x14) # 1c016968 <n16_beq_test+0x6308>
1c016958:	14916daa 	lu12i.w	$r10,297837(0x48b6d)
1c01695c:	028ff94a 	addi.w	$r10,$r10,1022(0x3fe)
1c016960:	580021ac 	beq	$r13,$r12,32(0x20) # 1c016980 <n16_beq_test+0x6320>
1c016964:	50002400 	b	36(0x24) # 1c016988 <n16_beq_test+0x6328>
1c016968:	1400000c 	lu12i.w	$r12,0
1c01696c:	0280018c 	addi.w	$r12,$r12,0
1c016970:	14ee6ced 	lu12i.w	$r13,488295(0x77367)
1c016974:	029081ad 	addi.w	$r13,$r13,1056(0x420)
1c016978:	5bffe18d 	beq	$r12,$r13,-32(0x3ffe0) # 1c016958 <n16_beq_test+0x62f8>
1c01697c:	50000c00 	b	12(0xc) # 1c016988 <n16_beq_test+0x6328>
1c016980:	155f2d0b 	lu12i.w	$r11,-329368(0xaf968)
1c016984:	029afd6b 	addi.w	$r11,$r11,1727(0x6bf)
1c016988:	1400001c 	lu12i.w	$r28,0
1c01698c:	0280039c 	addi.w	$r28,$r28,0
1c016990:	1400001d 	lu12i.w	$r29,0
1c016994:	028003bd 	addi.w	$r29,$r29,0
1c016998:	5c126d5c 	bne	$r10,$r28,4716(0x126c) # 1c017c04 <inst_error>
1c01699c:	5c12697d 	bne	$r11,$r29,4712(0x1268) # 1c017c04 <inst_error>
1c0169a0:	15c65590 	lu12i.w	$r16,-118100(0xe32ac)
1c0169a4:	02a8f210 	addi.w	$r16,$r16,-1476(0xa3c)
1c0169a8:	14b75a91 	lu12i.w	$r17,375508(0x5bad4)
1c0169ac:	029d5231 	addi.w	$r17,$r17,1876(0x754)
1c0169b0:	1400000a 	lu12i.w	$r10,0
1c0169b4:	1400000b 	lu12i.w	$r11,0
1c0169b8:	50001400 	b	20(0x14) # 1c0169cc <n16_beq_test+0x636c>
1c0169bc:	15c6558a 	lu12i.w	$r10,-118100(0xe32ac)
1c0169c0:	02a8f14a 	addi.w	$r10,$r10,-1476(0xa3c)
1c0169c4:	580021ac 	beq	$r13,$r12,32(0x20) # 1c0169e4 <n16_beq_test+0x6384>
1c0169c8:	50002400 	b	36(0x24) # 1c0169ec <n16_beq_test+0x638c>
1c0169cc:	1400000c 	lu12i.w	$r12,0
1c0169d0:	0280018c 	addi.w	$r12,$r12,0
1c0169d4:	143ae5cd 	lu12i.w	$r13,120622(0x1d72e)
1c0169d8:	02ba01ad 	addi.w	$r13,$r13,-384(0xe80)
1c0169dc:	5bffe18d 	beq	$r12,$r13,-32(0x3ffe0) # 1c0169bc <n16_beq_test+0x635c>
1c0169e0:	50000c00 	b	12(0xc) # 1c0169ec <n16_beq_test+0x638c>
1c0169e4:	14b75a8b 	lu12i.w	$r11,375508(0x5bad4)
1c0169e8:	029d516b 	addi.w	$r11,$r11,1876(0x754)
1c0169ec:	1400001c 	lu12i.w	$r28,0
1c0169f0:	0280039c 	addi.w	$r28,$r28,0
1c0169f4:	1400001d 	lu12i.w	$r29,0
1c0169f8:	028003bd 	addi.w	$r29,$r29,0
1c0169fc:	5c12095c 	bne	$r10,$r28,4616(0x1208) # 1c017c04 <inst_error>
1c016a00:	5c12057d 	bne	$r11,$r29,4612(0x1204) # 1c017c04 <inst_error>
1c016a04:	15f68d70 	lu12i.w	$r16,-19349(0xfb46b)
1c016a08:	02964210 	addi.w	$r16,$r16,1424(0x590)
1c016a0c:	143ff071 	lu12i.w	$r17,130947(0x1ff83)
1c016a10:	029b8231 	addi.w	$r17,$r17,1760(0x6e0)
1c016a14:	1400000a 	lu12i.w	$r10,0
1c016a18:	1400000b 	lu12i.w	$r11,0
1c016a1c:	50001400 	b	20(0x14) # 1c016a30 <n16_beq_test+0x63d0>
1c016a20:	15f68d6a 	lu12i.w	$r10,-19349(0xfb46b)
1c016a24:	0296414a 	addi.w	$r10,$r10,1424(0x590)
1c016a28:	580021ac 	beq	$r13,$r12,32(0x20) # 1c016a48 <n16_beq_test+0x63e8>
1c016a2c:	50002400 	b	36(0x24) # 1c016a50 <n16_beq_test+0x63f0>
1c016a30:	1400000c 	lu12i.w	$r12,0
1c016a34:	0280018c 	addi.w	$r12,$r12,0
1c016a38:	142af82d 	lu12i.w	$r13,88001(0x157c1)
1c016a3c:	02ac01ad 	addi.w	$r13,$r13,-1280(0xb00)
1c016a40:	5bffe18d 	beq	$r12,$r13,-32(0x3ffe0) # 1c016a20 <n16_beq_test+0x63c0>
1c016a44:	50000c00 	b	12(0xc) # 1c016a50 <n16_beq_test+0x63f0>
1c016a48:	143ff06b 	lu12i.w	$r11,130947(0x1ff83)
1c016a4c:	029b816b 	addi.w	$r11,$r11,1760(0x6e0)
1c016a50:	1400001c 	lu12i.w	$r28,0
1c016a54:	0280039c 	addi.w	$r28,$r28,0
1c016a58:	1400001d 	lu12i.w	$r29,0
1c016a5c:	028003bd 	addi.w	$r29,$r29,0
1c016a60:	5c11a55c 	bne	$r10,$r28,4516(0x11a4) # 1c017c04 <inst_error>
1c016a64:	5c11a17d 	bne	$r11,$r29,4512(0x11a0) # 1c017c04 <inst_error>
1c016a68:	14e0ddd0 	lu12i.w	$r16,460526(0x706ee)
1c016a6c:	028fda10 	addi.w	$r16,$r16,1014(0x3f6)
1c016a70:	142000d1 	lu12i.w	$r17,65542(0x10006)
1c016a74:	02964231 	addi.w	$r17,$r17,1424(0x590)
1c016a78:	1400000a 	lu12i.w	$r10,0
1c016a7c:	1400000b 	lu12i.w	$r11,0
1c016a80:	50001400 	b	20(0x14) # 1c016a94 <n16_beq_test+0x6434>
1c016a84:	14e0ddca 	lu12i.w	$r10,460526(0x706ee)
1c016a88:	028fd94a 	addi.w	$r10,$r10,1014(0x3f6)
1c016a8c:	580021ac 	beq	$r13,$r12,32(0x20) # 1c016aac <n16_beq_test+0x644c>
1c016a90:	50002400 	b	36(0x24) # 1c016ab4 <n16_beq_test+0x6454>
1c016a94:	1400000c 	lu12i.w	$r12,0
1c016a98:	0280018c 	addi.w	$r12,$r12,0
1c016a9c:	15294b2d 	lu12i.w	$r13,-439719(0x94a59)
1c016aa0:	02b821ad 	addi.w	$r13,$r13,-504(0xe08)
1c016aa4:	5bffe18d 	beq	$r12,$r13,-32(0x3ffe0) # 1c016a84 <n16_beq_test+0x6424>
1c016aa8:	50000c00 	b	12(0xc) # 1c016ab4 <n16_beq_test+0x6454>
1c016aac:	142000cb 	lu12i.w	$r11,65542(0x10006)
1c016ab0:	0296416b 	addi.w	$r11,$r11,1424(0x590)
1c016ab4:	1400001c 	lu12i.w	$r28,0
1c016ab8:	0280039c 	addi.w	$r28,$r28,0
1c016abc:	1400001d 	lu12i.w	$r29,0
1c016ac0:	028003bd 	addi.w	$r29,$r29,0
1c016ac4:	5c11415c 	bne	$r10,$r28,4416(0x1140) # 1c017c04 <inst_error>
1c016ac8:	5c113d7d 	bne	$r11,$r29,4412(0x113c) # 1c017c04 <inst_error>
1c016acc:	14dc3ad0 	lu12i.w	$r16,451030(0x6e1d6)
1c016ad0:	0295ea10 	addi.w	$r16,$r16,1402(0x57a)
1c016ad4:	14e8d871 	lu12i.w	$r17,476867(0x746c3)
1c016ad8:	02bb4231 	addi.w	$r17,$r17,-304(0xed0)
1c016adc:	1400000a 	lu12i.w	$r10,0
1c016ae0:	1400000b 	lu12i.w	$r11,0
1c016ae4:	50001400 	b	20(0x14) # 1c016af8 <n16_beq_test+0x6498>
1c016ae8:	14dc3aca 	lu12i.w	$r10,451030(0x6e1d6)
1c016aec:	0295e94a 	addi.w	$r10,$r10,1402(0x57a)
1c016af0:	580021ac 	beq	$r13,$r12,32(0x20) # 1c016b10 <n16_beq_test+0x64b0>
1c016af4:	50002400 	b	36(0x24) # 1c016b18 <n16_beq_test+0x64b8>
1c016af8:	1400000c 	lu12i.w	$r12,0
1c016afc:	0280018c 	addi.w	$r12,$r12,0
1c016b00:	153e1c0d 	lu12i.w	$r13,-397088(0x9f0e0)
1c016b04:	02b7e1ad 	addi.w	$r13,$r13,-520(0xdf8)
1c016b08:	5bffe18d 	beq	$r12,$r13,-32(0x3ffe0) # 1c016ae8 <n16_beq_test+0x6488>
1c016b0c:	50000c00 	b	12(0xc) # 1c016b18 <n16_beq_test+0x64b8>
1c016b10:	14e8d86b 	lu12i.w	$r11,476867(0x746c3)
1c016b14:	02bb416b 	addi.w	$r11,$r11,-304(0xed0)
1c016b18:	1400001c 	lu12i.w	$r28,0
1c016b1c:	0280039c 	addi.w	$r28,$r28,0
1c016b20:	1400001d 	lu12i.w	$r29,0
1c016b24:	028003bd 	addi.w	$r29,$r29,0
1c016b28:	5c10dd5c 	bne	$r10,$r28,4316(0x10dc) # 1c017c04 <inst_error>
1c016b2c:	5c10d97d 	bne	$r11,$r29,4312(0x10d8) # 1c017c04 <inst_error>
1c016b30:	1546e6b0 	lu12i.w	$r16,-379083(0xa3735)
1c016b34:	02993a10 	addi.w	$r16,$r16,1614(0x64e)
1c016b38:	1435d791 	lu12i.w	$r17,110268(0x1aebc)
1c016b3c:	02940231 	addi.w	$r17,$r17,1280(0x500)
1c016b40:	1400000a 	lu12i.w	$r10,0
1c016b44:	1400000b 	lu12i.w	$r11,0
1c016b48:	50001400 	b	20(0x14) # 1c016b5c <n16_beq_test+0x64fc>
1c016b4c:	1546e6aa 	lu12i.w	$r10,-379083(0xa3735)
1c016b50:	0299394a 	addi.w	$r10,$r10,1614(0x64e)
1c016b54:	580021ac 	beq	$r13,$r12,32(0x20) # 1c016b74 <n16_beq_test+0x6514>
1c016b58:	50002400 	b	36(0x24) # 1c016b7c <n16_beq_test+0x651c>
1c016b5c:	1400000c 	lu12i.w	$r12,0
1c016b60:	0280018c 	addi.w	$r12,$r12,0
1c016b64:	1425436d 	lu12i.w	$r13,76315(0x12a1b)
1c016b68:	029941ad 	addi.w	$r13,$r13,1616(0x650)
1c016b6c:	5bffe18d 	beq	$r12,$r13,-32(0x3ffe0) # 1c016b4c <n16_beq_test+0x64ec>
1c016b70:	50000c00 	b	12(0xc) # 1c016b7c <n16_beq_test+0x651c>
1c016b74:	1435d78b 	lu12i.w	$r11,110268(0x1aebc)
1c016b78:	0294016b 	addi.w	$r11,$r11,1280(0x500)
1c016b7c:	1400001c 	lu12i.w	$r28,0
1c016b80:	0280039c 	addi.w	$r28,$r28,0
1c016b84:	1400001d 	lu12i.w	$r29,0
1c016b88:	028003bd 	addi.w	$r29,$r29,0
1c016b8c:	5c10795c 	bne	$r10,$r28,4216(0x1078) # 1c017c04 <inst_error>
1c016b90:	5c10757d 	bne	$r11,$r29,4212(0x1074) # 1c017c04 <inst_error>
1c016b94:	145cd530 	lu12i.w	$r16,190121(0x2e6a9)
1c016b98:	0292b210 	addi.w	$r16,$r16,1196(0x4ac)
1c016b9c:	14ffcc91 	lu12i.w	$r17,523876(0x7fe64)
1c016ba0:	02980231 	addi.w	$r17,$r17,1536(0x600)
1c016ba4:	1400000a 	lu12i.w	$r10,0
1c016ba8:	1400000b 	lu12i.w	$r11,0
1c016bac:	50001400 	b	20(0x14) # 1c016bc0 <n16_beq_test+0x6560>
1c016bb0:	145cd52a 	lu12i.w	$r10,190121(0x2e6a9)
1c016bb4:	0292b14a 	addi.w	$r10,$r10,1196(0x4ac)
1c016bb8:	580021ac 	beq	$r13,$r12,32(0x20) # 1c016bd8 <n16_beq_test+0x6578>
1c016bbc:	50002400 	b	36(0x24) # 1c016be0 <n16_beq_test+0x6580>
1c016bc0:	1400000c 	lu12i.w	$r12,0
1c016bc4:	0280018c 	addi.w	$r12,$r12,0
1c016bc8:	14c903ad 	lu12i.w	$r13,411677(0x6481d)
1c016bcc:	028ed9ad 	addi.w	$r13,$r13,950(0x3b6)
1c016bd0:	5bffe18d 	beq	$r12,$r13,-32(0x3ffe0) # 1c016bb0 <n16_beq_test+0x6550>
1c016bd4:	50000c00 	b	12(0xc) # 1c016be0 <n16_beq_test+0x6580>
1c016bd8:	14ffcc8b 	lu12i.w	$r11,523876(0x7fe64)
1c016bdc:	0298016b 	addi.w	$r11,$r11,1536(0x600)
1c016be0:	1400001c 	lu12i.w	$r28,0
1c016be4:	0280039c 	addi.w	$r28,$r28,0
1c016be8:	1400001d 	lu12i.w	$r29,0
1c016bec:	028003bd 	addi.w	$r29,$r29,0
1c016bf0:	5c10155c 	bne	$r10,$r28,4116(0x1014) # 1c017c04 <inst_error>
1c016bf4:	5c10117d 	bne	$r11,$r29,4112(0x1010) # 1c017c04 <inst_error>
1c016bf8:	1556deb0 	lu12i.w	$r16,-346379(0xab6f5)
1c016bfc:	029a2610 	addi.w	$r16,$r16,1673(0x689)
1c016c00:	15057b91 	lu12i.w	$r17,-513060(0x82bdc)
1c016c04:	02bc2a31 	addi.w	$r17,$r17,-246(0xf0a)
1c016c08:	1400000a 	lu12i.w	$r10,0
1c016c0c:	1400000b 	lu12i.w	$r11,0
1c016c10:	50001400 	b	20(0x14) # 1c016c24 <n16_beq_test+0x65c4>
1c016c14:	1556deaa 	lu12i.w	$r10,-346379(0xab6f5)
1c016c18:	029a254a 	addi.w	$r10,$r10,1673(0x689)
1c016c1c:	580021ac 	beq	$r13,$r12,32(0x20) # 1c016c3c <n16_beq_test+0x65dc>
1c016c20:	50002400 	b	36(0x24) # 1c016c44 <n16_beq_test+0x65e4>
1c016c24:	1400000c 	lu12i.w	$r12,0
1c016c28:	0280018c 	addi.w	$r12,$r12,0
1c016c2c:	155a520d 	lu12i.w	$r13,-339312(0xad290)
1c016c30:	02b139ad 	addi.w	$r13,$r13,-946(0xc4e)
1c016c34:	5bffe18d 	beq	$r12,$r13,-32(0x3ffe0) # 1c016c14 <n16_beq_test+0x65b4>
1c016c38:	50000c00 	b	12(0xc) # 1c016c44 <n16_beq_test+0x65e4>
1c016c3c:	15057b8b 	lu12i.w	$r11,-513060(0x82bdc)
1c016c40:	02bc296b 	addi.w	$r11,$r11,-246(0xf0a)
1c016c44:	1400001c 	lu12i.w	$r28,0
1c016c48:	0280039c 	addi.w	$r28,$r28,0
1c016c4c:	1400001d 	lu12i.w	$r29,0
1c016c50:	028003bd 	addi.w	$r29,$r29,0
1c016c54:	5c0fb15c 	bne	$r10,$r28,4016(0xfb0) # 1c017c04 <inst_error>
1c016c58:	5c0fad7d 	bne	$r11,$r29,4012(0xfac) # 1c017c04 <inst_error>
1c016c5c:	140ff510 	lu12i.w	$r16,32680(0x7fa8)
1c016c60:	029a5210 	addi.w	$r16,$r16,1684(0x694)
1c016c64:	15e65151 	lu12i.w	$r17,-52598(0xf328a)
1c016c68:	02a47a31 	addi.w	$r17,$r17,-1762(0x91e)
1c016c6c:	1400000a 	lu12i.w	$r10,0
1c016c70:	1400000b 	lu12i.w	$r11,0
1c016c74:	50001400 	b	20(0x14) # 1c016c88 <n16_beq_test+0x6628>
1c016c78:	140ff50a 	lu12i.w	$r10,32680(0x7fa8)
1c016c7c:	029a514a 	addi.w	$r10,$r10,1684(0x694)
1c016c80:	580021ac 	beq	$r13,$r12,32(0x20) # 1c016ca0 <n16_beq_test+0x6640>
1c016c84:	50002400 	b	36(0x24) # 1c016ca8 <n16_beq_test+0x6648>
1c016c88:	1400000c 	lu12i.w	$r12,0
1c016c8c:	0280018c 	addi.w	$r12,$r12,0
1c016c90:	14560a8d 	lu12i.w	$r13,176212(0x2b054)
1c016c94:	029781ad 	addi.w	$r13,$r13,1504(0x5e0)
1c016c98:	5bffe18d 	beq	$r12,$r13,-32(0x3ffe0) # 1c016c78 <n16_beq_test+0x6618>
1c016c9c:	50000c00 	b	12(0xc) # 1c016ca8 <n16_beq_test+0x6648>
1c016ca0:	15e6514b 	lu12i.w	$r11,-52598(0xf328a)
1c016ca4:	02a4796b 	addi.w	$r11,$r11,-1762(0x91e)
1c016ca8:	1400001c 	lu12i.w	$r28,0
1c016cac:	0280039c 	addi.w	$r28,$r28,0
1c016cb0:	1400001d 	lu12i.w	$r29,0
1c016cb4:	028003bd 	addi.w	$r29,$r29,0
1c016cb8:	5c0f4d5c 	bne	$r10,$r28,3916(0xf4c) # 1c017c04 <inst_error>
1c016cbc:	5c0f497d 	bne	$r11,$r29,3912(0xf48) # 1c017c04 <inst_error>
1c016cc0:	1432b790 	lu12i.w	$r16,103868(0x195bc)
1c016cc4:	029ff610 	addi.w	$r16,$r16,2045(0x7fd)
1c016cc8:	1423f551 	lu12i.w	$r17,73642(0x11faa)
1c016ccc:	02b21231 	addi.w	$r17,$r17,-892(0xc84)
1c016cd0:	1400000a 	lu12i.w	$r10,0
1c016cd4:	1400000b 	lu12i.w	$r11,0
1c016cd8:	50001400 	b	20(0x14) # 1c016cec <n16_beq_test+0x668c>
1c016cdc:	1432b78a 	lu12i.w	$r10,103868(0x195bc)
1c016ce0:	029ff54a 	addi.w	$r10,$r10,2045(0x7fd)
1c016ce4:	580021ac 	beq	$r13,$r12,32(0x20) # 1c016d04 <n16_beq_test+0x66a4>
1c016ce8:	50002400 	b	36(0x24) # 1c016d0c <n16_beq_test+0x66ac>
1c016cec:	1400000c 	lu12i.w	$r12,0
1c016cf0:	0280018c 	addi.w	$r12,$r12,0
1c016cf4:	1417f70d 	lu12i.w	$r13,49080(0xbfb8)
1c016cf8:	028801ad 	addi.w	$r13,$r13,512(0x200)
1c016cfc:	5bffe18d 	beq	$r12,$r13,-32(0x3ffe0) # 1c016cdc <n16_beq_test+0x667c>
1c016d00:	50000c00 	b	12(0xc) # 1c016d0c <n16_beq_test+0x66ac>
1c016d04:	1423f54b 	lu12i.w	$r11,73642(0x11faa)
1c016d08:	02b2116b 	addi.w	$r11,$r11,-892(0xc84)
1c016d0c:	1400001c 	lu12i.w	$r28,0
1c016d10:	0280039c 	addi.w	$r28,$r28,0
1c016d14:	1400001d 	lu12i.w	$r29,0
1c016d18:	028003bd 	addi.w	$r29,$r29,0
1c016d1c:	5c0ee95c 	bne	$r10,$r28,3816(0xee8) # 1c017c04 <inst_error>
1c016d20:	5c0ee57d 	bne	$r11,$r29,3812(0xee4) # 1c017c04 <inst_error>
1c016d24:	1564d650 	lu12i.w	$r16,-317774(0xb26b2)
1c016d28:	02941210 	addi.w	$r16,$r16,1284(0x504)
1c016d2c:	1597a231 	lu12i.w	$r17,-213743(0xcbd11)
1c016d30:	029f5a31 	addi.w	$r17,$r17,2006(0x7d6)
1c016d34:	1400000a 	lu12i.w	$r10,0
1c016d38:	1400000b 	lu12i.w	$r11,0
1c016d3c:	50001400 	b	20(0x14) # 1c016d50 <n16_beq_test+0x66f0>
1c016d40:	1564d64a 	lu12i.w	$r10,-317774(0xb26b2)
1c016d44:	0294114a 	addi.w	$r10,$r10,1284(0x504)
1c016d48:	580021ac 	beq	$r13,$r12,32(0x20) # 1c016d68 <n16_beq_test+0x6708>
1c016d4c:	50002400 	b	36(0x24) # 1c016d70 <n16_beq_test+0x6710>
1c016d50:	1400000c 	lu12i.w	$r12,0
1c016d54:	0280018c 	addi.w	$r12,$r12,0
1c016d58:	147b242d 	lu12i.w	$r13,252193(0x3d921)
1c016d5c:	02b701ad 	addi.w	$r13,$r13,-576(0xdc0)
1c016d60:	5bffe18d 	beq	$r12,$r13,-32(0x3ffe0) # 1c016d40 <n16_beq_test+0x66e0>
1c016d64:	50000c00 	b	12(0xc) # 1c016d70 <n16_beq_test+0x6710>
1c016d68:	1597a22b 	lu12i.w	$r11,-213743(0xcbd11)
1c016d6c:	029f596b 	addi.w	$r11,$r11,2006(0x7d6)
1c016d70:	1400001c 	lu12i.w	$r28,0
1c016d74:	0280039c 	addi.w	$r28,$r28,0
1c016d78:	1400001d 	lu12i.w	$r29,0
1c016d7c:	028003bd 	addi.w	$r29,$r29,0
1c016d80:	5c0e855c 	bne	$r10,$r28,3716(0xe84) # 1c017c04 <inst_error>
1c016d84:	5c0e817d 	bne	$r11,$r29,3712(0xe80) # 1c017c04 <inst_error>
1c016d88:	14b000d0 	lu12i.w	$r16,360454(0x58006)
1c016d8c:	0280fe10 	addi.w	$r16,$r16,63(0x3f)
1c016d90:	14a38471 	lu12i.w	$r17,334883(0x51c23)
1c016d94:	0291a231 	addi.w	$r17,$r17,1128(0x468)
1c016d98:	1400000a 	lu12i.w	$r10,0
1c016d9c:	1400000b 	lu12i.w	$r11,0
1c016da0:	50001400 	b	20(0x14) # 1c016db4 <n16_beq_test+0x6754>
1c016da4:	14b000ca 	lu12i.w	$r10,360454(0x58006)
1c016da8:	0280fd4a 	addi.w	$r10,$r10,63(0x3f)
1c016dac:	580021ac 	beq	$r13,$r12,32(0x20) # 1c016dcc <n16_beq_test+0x676c>
1c016db0:	50002400 	b	36(0x24) # 1c016dd4 <n16_beq_test+0x6774>
1c016db4:	1400000c 	lu12i.w	$r12,0
1c016db8:	0280018c 	addi.w	$r12,$r12,0
1c016dbc:	14fd974d 	lu12i.w	$r13,519354(0x7ecba)
1c016dc0:	02bfe1ad 	addi.w	$r13,$r13,-8(0xff8)
1c016dc4:	5bffe18d 	beq	$r12,$r13,-32(0x3ffe0) # 1c016da4 <n16_beq_test+0x6744>
1c016dc8:	50000c00 	b	12(0xc) # 1c016dd4 <n16_beq_test+0x6774>
1c016dcc:	14a3846b 	lu12i.w	$r11,334883(0x51c23)
1c016dd0:	0291a16b 	addi.w	$r11,$r11,1128(0x468)
1c016dd4:	1400001c 	lu12i.w	$r28,0
1c016dd8:	0280039c 	addi.w	$r28,$r28,0
1c016ddc:	1400001d 	lu12i.w	$r29,0
1c016de0:	028003bd 	addi.w	$r29,$r29,0
1c016de4:	5c0e215c 	bne	$r10,$r28,3616(0xe20) # 1c017c04 <inst_error>
1c016de8:	5c0e1d7d 	bne	$r11,$r29,3612(0xe1c) # 1c017c04 <inst_error>
1c016dec:	15935850 	lu12i.w	$r16,-222526(0xc9ac2)
1c016df0:	0285ca10 	addi.w	$r16,$r16,370(0x172)
1c016df4:	14f68811 	lu12i.w	$r17,504896(0x7b440)
1c016df8:	02a83e31 	addi.w	$r17,$r17,-1521(0xa0f)
1c016dfc:	1400000a 	lu12i.w	$r10,0
1c016e00:	1400000b 	lu12i.w	$r11,0
1c016e04:	50001400 	b	20(0x14) # 1c016e18 <n16_beq_test+0x67b8>
1c016e08:	1593584a 	lu12i.w	$r10,-222526(0xc9ac2)
1c016e0c:	0285c94a 	addi.w	$r10,$r10,370(0x172)
1c016e10:	580021ac 	beq	$r13,$r12,32(0x20) # 1c016e30 <n16_beq_test+0x67d0>
1c016e14:	50002400 	b	36(0x24) # 1c016e38 <n16_beq_test+0x67d8>
1c016e18:	1400000c 	lu12i.w	$r12,0
1c016e1c:	0280018c 	addi.w	$r12,$r12,0
1c016e20:	15ab82ed 	lu12i.w	$r13,-173033(0xd5c17)
1c016e24:	028819ad 	addi.w	$r13,$r13,518(0x206)
1c016e28:	5bffe18d 	beq	$r12,$r13,-32(0x3ffe0) # 1c016e08 <n16_beq_test+0x67a8>
1c016e2c:	50000c00 	b	12(0xc) # 1c016e38 <n16_beq_test+0x67d8>
1c016e30:	14f6880b 	lu12i.w	$r11,504896(0x7b440)
1c016e34:	02a83d6b 	addi.w	$r11,$r11,-1521(0xa0f)
1c016e38:	1400001c 	lu12i.w	$r28,0
1c016e3c:	0280039c 	addi.w	$r28,$r28,0
1c016e40:	1400001d 	lu12i.w	$r29,0
1c016e44:	028003bd 	addi.w	$r29,$r29,0
1c016e48:	5c0dbd5c 	bne	$r10,$r28,3516(0xdbc) # 1c017c04 <inst_error>
1c016e4c:	5c0db97d 	bne	$r11,$r29,3512(0xdb8) # 1c017c04 <inst_error>
1c016e50:	155f92b0 	lu12i.w	$r16,-328555(0xafc95)
1c016e54:	02b25a10 	addi.w	$r16,$r16,-874(0xc96)
1c016e58:	15b2c031 	lu12i.w	$r17,-158207(0xd9601)
1c016e5c:	02ab0631 	addi.w	$r17,$r17,-1343(0xac1)
1c016e60:	1400000a 	lu12i.w	$r10,0
1c016e64:	1400000b 	lu12i.w	$r11,0
1c016e68:	50001400 	b	20(0x14) # 1c016e7c <n16_beq_test+0x681c>
1c016e6c:	155f92aa 	lu12i.w	$r10,-328555(0xafc95)
1c016e70:	02b2594a 	addi.w	$r10,$r10,-874(0xc96)
1c016e74:	580021ac 	beq	$r13,$r12,32(0x20) # 1c016e94 <n16_beq_test+0x6834>
1c016e78:	50002400 	b	36(0x24) # 1c016e9c <n16_beq_test+0x683c>
1c016e7c:	1400000c 	lu12i.w	$r12,0
1c016e80:	0280018c 	addi.w	$r12,$r12,0
1c016e84:	15dfd38d 	lu12i.w	$r13,-65892(0xefe9c)
1c016e88:	02b349ad 	addi.w	$r13,$r13,-814(0xcd2)
1c016e8c:	5bffe18d 	beq	$r12,$r13,-32(0x3ffe0) # 1c016e6c <n16_beq_test+0x680c>
1c016e90:	50000c00 	b	12(0xc) # 1c016e9c <n16_beq_test+0x683c>
1c016e94:	15b2c02b 	lu12i.w	$r11,-158207(0xd9601)
1c016e98:	02ab056b 	addi.w	$r11,$r11,-1343(0xac1)
1c016e9c:	1400001c 	lu12i.w	$r28,0
1c016ea0:	0280039c 	addi.w	$r28,$r28,0
1c016ea4:	1400001d 	lu12i.w	$r29,0
1c016ea8:	028003bd 	addi.w	$r29,$r29,0
1c016eac:	5c0d595c 	bne	$r10,$r28,3416(0xd58) # 1c017c04 <inst_error>
1c016eb0:	5c0d557d 	bne	$r11,$r29,3412(0xd54) # 1c017c04 <inst_error>
1c016eb4:	14ca16f0 	lu12i.w	$r16,413879(0x650b7)
1c016eb8:	02a00210 	addi.w	$r16,$r16,-2048(0x800)
1c016ebc:	149551b1 	lu12i.w	$r17,305805(0x4aa8d)
1c016ec0:	02adc231 	addi.w	$r17,$r17,-1168(0xb70)
1c016ec4:	1400000a 	lu12i.w	$r10,0
1c016ec8:	1400000b 	lu12i.w	$r11,0
1c016ecc:	50001400 	b	20(0x14) # 1c016ee0 <n16_beq_test+0x6880>
1c016ed0:	14ca16ea 	lu12i.w	$r10,413879(0x650b7)
1c016ed4:	02a0014a 	addi.w	$r10,$r10,-2048(0x800)
1c016ed8:	580021ac 	beq	$r13,$r12,32(0x20) # 1c016ef8 <n16_beq_test+0x6898>
1c016edc:	50002400 	b	36(0x24) # 1c016f00 <n16_beq_test+0x68a0>
1c016ee0:	1400000c 	lu12i.w	$r12,0
1c016ee4:	0280018c 	addi.w	$r12,$r12,0
1c016ee8:	14d8cf0d 	lu12i.w	$r13,444024(0x6c678)
1c016eec:	028161ad 	addi.w	$r13,$r13,88(0x58)
1c016ef0:	5bffe18d 	beq	$r12,$r13,-32(0x3ffe0) # 1c016ed0 <n16_beq_test+0x6870>
1c016ef4:	50000c00 	b	12(0xc) # 1c016f00 <n16_beq_test+0x68a0>
1c016ef8:	149551ab 	lu12i.w	$r11,305805(0x4aa8d)
1c016efc:	02adc16b 	addi.w	$r11,$r11,-1168(0xb70)
1c016f00:	1400001c 	lu12i.w	$r28,0
1c016f04:	0280039c 	addi.w	$r28,$r28,0
1c016f08:	1400001d 	lu12i.w	$r29,0
1c016f0c:	028003bd 	addi.w	$r29,$r29,0
1c016f10:	5c0cf55c 	bne	$r10,$r28,3316(0xcf4) # 1c017c04 <inst_error>
1c016f14:	5c0cf17d 	bne	$r11,$r29,3312(0xcf0) # 1c017c04 <inst_error>
1c016f18:	15f853d0 	lu12i.w	$r16,-15714(0xfc29e)
1c016f1c:	02843a10 	addi.w	$r16,$r16,270(0x10e)
1c016f20:	1471a431 	lu12i.w	$r17,232737(0x38d21)
1c016f24:	028b4a31 	addi.w	$r17,$r17,722(0x2d2)
1c016f28:	1400000a 	lu12i.w	$r10,0
1c016f2c:	1400000b 	lu12i.w	$r11,0
1c016f30:	50001400 	b	20(0x14) # 1c016f44 <n16_beq_test+0x68e4>
1c016f34:	15f853ca 	lu12i.w	$r10,-15714(0xfc29e)
1c016f38:	0284394a 	addi.w	$r10,$r10,270(0x10e)
1c016f3c:	580021ac 	beq	$r13,$r12,32(0x20) # 1c016f5c <n16_beq_test+0x68fc>
1c016f40:	50002400 	b	36(0x24) # 1c016f64 <n16_beq_test+0x6904>
1c016f44:	1400000c 	lu12i.w	$r12,0
1c016f48:	0280018c 	addi.w	$r12,$r12,0
1c016f4c:	1401998d 	lu12i.w	$r13,3276(0xccc)
1c016f50:	02b20dad 	addi.w	$r13,$r13,-893(0xc83)
1c016f54:	5bffe18d 	beq	$r12,$r13,-32(0x3ffe0) # 1c016f34 <n16_beq_test+0x68d4>
1c016f58:	50000c00 	b	12(0xc) # 1c016f64 <n16_beq_test+0x6904>
1c016f5c:	1471a42b 	lu12i.w	$r11,232737(0x38d21)
1c016f60:	028b496b 	addi.w	$r11,$r11,722(0x2d2)
1c016f64:	1400001c 	lu12i.w	$r28,0
1c016f68:	0280039c 	addi.w	$r28,$r28,0
1c016f6c:	1400001d 	lu12i.w	$r29,0
1c016f70:	028003bd 	addi.w	$r29,$r29,0
1c016f74:	5c0c915c 	bne	$r10,$r28,3216(0xc90) # 1c017c04 <inst_error>
1c016f78:	5c0c8d7d 	bne	$r11,$r29,3212(0xc8c) # 1c017c04 <inst_error>
1c016f7c:	14ce5bd0 	lu12i.w	$r16,422622(0x672de)
1c016f80:	02b3c210 	addi.w	$r16,$r16,-784(0xcf0)
1c016f84:	152711d1 	lu12i.w	$r17,-444274(0x9388e)
1c016f88:	028f8231 	addi.w	$r17,$r17,992(0x3e0)
1c016f8c:	1400000a 	lu12i.w	$r10,0
1c016f90:	1400000b 	lu12i.w	$r11,0
1c016f94:	50001400 	b	20(0x14) # 1c016fa8 <n16_beq_test+0x6948>
1c016f98:	14ce5bca 	lu12i.w	$r10,422622(0x672de)
1c016f9c:	02b3c14a 	addi.w	$r10,$r10,-784(0xcf0)
1c016fa0:	580021ac 	beq	$r13,$r12,32(0x20) # 1c016fc0 <n16_beq_test+0x6960>
1c016fa4:	50002400 	b	36(0x24) # 1c016fc8 <n16_beq_test+0x6968>
1c016fa8:	1400000c 	lu12i.w	$r12,0
1c016fac:	0280018c 	addi.w	$r12,$r12,0
1c016fb0:	1488810d 	lu12i.w	$r13,279560(0x44408)
1c016fb4:	029711ad 	addi.w	$r13,$r13,1476(0x5c4)
1c016fb8:	5bffe18d 	beq	$r12,$r13,-32(0x3ffe0) # 1c016f98 <n16_beq_test+0x6938>
1c016fbc:	50000c00 	b	12(0xc) # 1c016fc8 <n16_beq_test+0x6968>
1c016fc0:	152711cb 	lu12i.w	$r11,-444274(0x9388e)
1c016fc4:	028f816b 	addi.w	$r11,$r11,992(0x3e0)
1c016fc8:	1400001c 	lu12i.w	$r28,0
1c016fcc:	0280039c 	addi.w	$r28,$r28,0
1c016fd0:	1400001d 	lu12i.w	$r29,0
1c016fd4:	028003bd 	addi.w	$r29,$r29,0
1c016fd8:	5c0c2d5c 	bne	$r10,$r28,3116(0xc2c) # 1c017c04 <inst_error>
1c016fdc:	5c0c297d 	bne	$r11,$r29,3112(0xc28) # 1c017c04 <inst_error>
1c016fe0:	149d9270 	lu12i.w	$r16,322707(0x4ec93)
1c016fe4:	029e5e10 	addi.w	$r16,$r16,1943(0x797)
1c016fe8:	1598f091 	lu12i.w	$r17,-211068(0xcc784)
1c016fec:	02ab4231 	addi.w	$r17,$r17,-1328(0xad0)
1c016ff0:	1400000a 	lu12i.w	$r10,0
1c016ff4:	1400000b 	lu12i.w	$r11,0
1c016ff8:	50001400 	b	20(0x14) # 1c01700c <n16_beq_test+0x69ac>
1c016ffc:	149d926a 	lu12i.w	$r10,322707(0x4ec93)
1c017000:	029e5d4a 	addi.w	$r10,$r10,1943(0x797)
1c017004:	580021ac 	beq	$r13,$r12,32(0x20) # 1c017024 <n16_beq_test+0x69c4>
1c017008:	50002400 	b	36(0x24) # 1c01702c <n16_beq_test+0x69cc>
1c01700c:	1400000c 	lu12i.w	$r12,0
1c017010:	0280018c 	addi.w	$r12,$r12,0
1c017014:	14e9ce0d 	lu12i.w	$r13,478832(0x74e70)
1c017018:	029241ad 	addi.w	$r13,$r13,1168(0x490)
1c01701c:	5bffe18d 	beq	$r12,$r13,-32(0x3ffe0) # 1c016ffc <n16_beq_test+0x699c>
1c017020:	50000c00 	b	12(0xc) # 1c01702c <n16_beq_test+0x69cc>
1c017024:	1598f08b 	lu12i.w	$r11,-211068(0xcc784)
1c017028:	02ab416b 	addi.w	$r11,$r11,-1328(0xad0)
1c01702c:	1400001c 	lu12i.w	$r28,0
1c017030:	0280039c 	addi.w	$r28,$r28,0
1c017034:	1400001d 	lu12i.w	$r29,0
1c017038:	028003bd 	addi.w	$r29,$r29,0
1c01703c:	5c0bc95c 	bne	$r10,$r28,3016(0xbc8) # 1c017c04 <inst_error>
1c017040:	5c0bc57d 	bne	$r11,$r29,3012(0xbc4) # 1c017c04 <inst_error>
1c017044:	151d7830 	lu12i.w	$r16,-463935(0x8ebc1)
1c017048:	02bf8210 	addi.w	$r16,$r16,-32(0xfe0)
1c01704c:	15664fb1 	lu12i.w	$r17,-314755(0xb327d)
1c017050:	029bf231 	addi.w	$r17,$r17,1788(0x6fc)
1c017054:	1400000a 	lu12i.w	$r10,0
1c017058:	1400000b 	lu12i.w	$r11,0
1c01705c:	50001400 	b	20(0x14) # 1c017070 <n16_beq_test+0x6a10>
1c017060:	151d782a 	lu12i.w	$r10,-463935(0x8ebc1)
1c017064:	02bf814a 	addi.w	$r10,$r10,-32(0xfe0)
1c017068:	580021ac 	beq	$r13,$r12,32(0x20) # 1c017088 <n16_beq_test+0x6a28>
1c01706c:	50002400 	b	36(0x24) # 1c017090 <n16_beq_test+0x6a30>
1c017070:	1400000c 	lu12i.w	$r12,0
1c017074:	0280018c 	addi.w	$r12,$r12,0
1c017078:	14b95eed 	lu12i.w	$r13,379639(0x5caf7)
1c01707c:	02b439ad 	addi.w	$r13,$r13,-754(0xd0e)
1c017080:	5bffe18d 	beq	$r12,$r13,-32(0x3ffe0) # 1c017060 <n16_beq_test+0x6a00>
1c017084:	50000c00 	b	12(0xc) # 1c017090 <n16_beq_test+0x6a30>
1c017088:	15664fab 	lu12i.w	$r11,-314755(0xb327d)
1c01708c:	029bf16b 	addi.w	$r11,$r11,1788(0x6fc)
1c017090:	1400001c 	lu12i.w	$r28,0
1c017094:	0280039c 	addi.w	$r28,$r28,0
1c017098:	1400001d 	lu12i.w	$r29,0
1c01709c:	028003bd 	addi.w	$r29,$r29,0
1c0170a0:	5c0b655c 	bne	$r10,$r28,2916(0xb64) # 1c017c04 <inst_error>
1c0170a4:	5c0b617d 	bne	$r11,$r29,2912(0xb60) # 1c017c04 <inst_error>
1c0170a8:	15a6b130 	lu12i.w	$r16,-182903(0xd3589)
1c0170ac:	02a40210 	addi.w	$r16,$r16,-1792(0x900)
1c0170b0:	159c3d91 	lu12i.w	$r17,-204308(0xce1ec)
1c0170b4:	02988231 	addi.w	$r17,$r17,1568(0x620)
1c0170b8:	1400000a 	lu12i.w	$r10,0
1c0170bc:	1400000b 	lu12i.w	$r11,0
1c0170c0:	50001400 	b	20(0x14) # 1c0170d4 <n16_beq_test+0x6a74>
1c0170c4:	15a6b12a 	lu12i.w	$r10,-182903(0xd3589)
1c0170c8:	02a4014a 	addi.w	$r10,$r10,-1792(0x900)
1c0170cc:	580021ac 	beq	$r13,$r12,32(0x20) # 1c0170ec <n16_beq_test+0x6a8c>
1c0170d0:	50002400 	b	36(0x24) # 1c0170f4 <n16_beq_test+0x6a94>
1c0170d4:	1400000c 	lu12i.w	$r12,0
1c0170d8:	0280018c 	addi.w	$r12,$r12,0
1c0170dc:	143d7bcd 	lu12i.w	$r13,125918(0x1ebde)
1c0170e0:	028cd1ad 	addi.w	$r13,$r13,820(0x334)
1c0170e4:	5bffe18d 	beq	$r12,$r13,-32(0x3ffe0) # 1c0170c4 <n16_beq_test+0x6a64>
1c0170e8:	50000c00 	b	12(0xc) # 1c0170f4 <n16_beq_test+0x6a94>
1c0170ec:	159c3d8b 	lu12i.w	$r11,-204308(0xce1ec)
1c0170f0:	0298816b 	addi.w	$r11,$r11,1568(0x620)
1c0170f4:	1400001c 	lu12i.w	$r28,0
1c0170f8:	0280039c 	addi.w	$r28,$r28,0
1c0170fc:	1400001d 	lu12i.w	$r29,0
1c017100:	028003bd 	addi.w	$r29,$r29,0
1c017104:	5c0b015c 	bne	$r10,$r28,2816(0xb00) # 1c017c04 <inst_error>
1c017108:	5c0afd7d 	bne	$r11,$r29,2812(0xafc) # 1c017c04 <inst_error>
1c01710c:	14e43af0 	lu12i.w	$r16,467415(0x721d7)
1c017110:	02807a10 	addi.w	$r16,$r16,30(0x1e)
1c017114:	14991f11 	lu12i.w	$r17,313592(0x4c8f8)
1c017118:	028d8231 	addi.w	$r17,$r17,864(0x360)
1c01711c:	1400000a 	lu12i.w	$r10,0
1c017120:	1400000b 	lu12i.w	$r11,0
1c017124:	50001400 	b	20(0x14) # 1c017138 <n16_beq_test+0x6ad8>
1c017128:	14e43aea 	lu12i.w	$r10,467415(0x721d7)
1c01712c:	0280794a 	addi.w	$r10,$r10,30(0x1e)
1c017130:	580021ac 	beq	$r13,$r12,32(0x20) # 1c017150 <n16_beq_test+0x6af0>
1c017134:	50002400 	b	36(0x24) # 1c017158 <n16_beq_test+0x6af8>
1c017138:	1400000c 	lu12i.w	$r12,0
1c01713c:	0280018c 	addi.w	$r12,$r12,0
1c017140:	14e070cd 	lu12i.w	$r13,459654(0x70386)
1c017144:	028399ad 	addi.w	$r13,$r13,230(0xe6)
1c017148:	5bffe18d 	beq	$r12,$r13,-32(0x3ffe0) # 1c017128 <n16_beq_test+0x6ac8>
1c01714c:	50000c00 	b	12(0xc) # 1c017158 <n16_beq_test+0x6af8>
1c017150:	14991f0b 	lu12i.w	$r11,313592(0x4c8f8)
1c017154:	028d816b 	addi.w	$r11,$r11,864(0x360)
1c017158:	1400001c 	lu12i.w	$r28,0
1c01715c:	0280039c 	addi.w	$r28,$r28,0
1c017160:	1400001d 	lu12i.w	$r29,0
1c017164:	028003bd 	addi.w	$r29,$r29,0
1c017168:	5c0a9d5c 	bne	$r10,$r28,2716(0xa9c) # 1c017c04 <inst_error>
1c01716c:	5c0a997d 	bne	$r11,$r29,2712(0xa98) # 1c017c04 <inst_error>
1c017170:	14574b10 	lu12i.w	$r16,178776(0x2ba58)
1c017174:	02b30210 	addi.w	$r16,$r16,-832(0xcc0)
1c017178:	14ac3f11 	lu12i.w	$r17,352760(0x561f8)
1c01717c:	02aa7a31 	addi.w	$r17,$r17,-1378(0xa9e)
1c017180:	1400000a 	lu12i.w	$r10,0
1c017184:	1400000b 	lu12i.w	$r11,0
1c017188:	50001400 	b	20(0x14) # 1c01719c <n16_beq_test+0x6b3c>
1c01718c:	14574b0a 	lu12i.w	$r10,178776(0x2ba58)
1c017190:	02b3014a 	addi.w	$r10,$r10,-832(0xcc0)
1c017194:	580021ac 	beq	$r13,$r12,32(0x20) # 1c0171b4 <n16_beq_test+0x6b54>
1c017198:	50002400 	b	36(0x24) # 1c0171bc <n16_beq_test+0x6b5c>
1c01719c:	1400000c 	lu12i.w	$r12,0
1c0171a0:	0280018c 	addi.w	$r12,$r12,0
1c0171a4:	153b8f0d 	lu12i.w	$r13,-402312(0x9dc78)
1c0171a8:	028f41ad 	addi.w	$r13,$r13,976(0x3d0)
1c0171ac:	5bffe18d 	beq	$r12,$r13,-32(0x3ffe0) # 1c01718c <n16_beq_test+0x6b2c>
1c0171b0:	50000c00 	b	12(0xc) # 1c0171bc <n16_beq_test+0x6b5c>
1c0171b4:	14ac3f0b 	lu12i.w	$r11,352760(0x561f8)
1c0171b8:	02aa796b 	addi.w	$r11,$r11,-1378(0xa9e)
1c0171bc:	1400001c 	lu12i.w	$r28,0
1c0171c0:	0280039c 	addi.w	$r28,$r28,0
1c0171c4:	1400001d 	lu12i.w	$r29,0
1c0171c8:	028003bd 	addi.w	$r29,$r29,0
1c0171cc:	5c0a395c 	bne	$r10,$r28,2616(0xa38) # 1c017c04 <inst_error>
1c0171d0:	5c0a357d 	bne	$r11,$r29,2612(0xa34) # 1c017c04 <inst_error>
1c0171d4:	15001c90 	lu12i.w	$r16,-524060(0x800e4)
1c0171d8:	02bace10 	addi.w	$r16,$r16,-333(0xeb3)
1c0171dc:	159ca4f1 	lu12i.w	$r17,-203481(0xce527)
1c0171e0:	02af2a31 	addi.w	$r17,$r17,-1078(0xbca)
1c0171e4:	1400000a 	lu12i.w	$r10,0
1c0171e8:	1400000b 	lu12i.w	$r11,0
1c0171ec:	50001400 	b	20(0x14) # 1c017200 <n16_beq_test+0x6ba0>
1c0171f0:	15001c8a 	lu12i.w	$r10,-524060(0x800e4)
1c0171f4:	02bacd4a 	addi.w	$r10,$r10,-333(0xeb3)
1c0171f8:	580021ac 	beq	$r13,$r12,32(0x20) # 1c017218 <n16_beq_test+0x6bb8>
1c0171fc:	50002400 	b	36(0x24) # 1c017220 <n16_beq_test+0x6bc0>
1c017200:	1400000c 	lu12i.w	$r12,0
1c017204:	0280018c 	addi.w	$r12,$r12,0
1c017208:	149d538d 	lu12i.w	$r13,322204(0x4ea9c)
1c01720c:	02a3c1ad 	addi.w	$r13,$r13,-1808(0x8f0)
1c017210:	5bffe18d 	beq	$r12,$r13,-32(0x3ffe0) # 1c0171f0 <n16_beq_test+0x6b90>
1c017214:	50000c00 	b	12(0xc) # 1c017220 <n16_beq_test+0x6bc0>
1c017218:	159ca4eb 	lu12i.w	$r11,-203481(0xce527)
1c01721c:	02af296b 	addi.w	$r11,$r11,-1078(0xbca)
1c017220:	1400001c 	lu12i.w	$r28,0
1c017224:	0280039c 	addi.w	$r28,$r28,0
1c017228:	1400001d 	lu12i.w	$r29,0
1c01722c:	028003bd 	addi.w	$r29,$r29,0
1c017230:	5c09d55c 	bne	$r10,$r28,2516(0x9d4) # 1c017c04 <inst_error>
1c017234:	5c09d17d 	bne	$r11,$r29,2512(0x9d0) # 1c017c04 <inst_error>
1c017238:	1512abb0 	lu12i.w	$r16,-486051(0x8955d)
1c01723c:	02980a10 	addi.w	$r16,$r16,1538(0x602)
1c017240:	14247d91 	lu12i.w	$r17,74732(0x123ec)
1c017244:	02be1a31 	addi.w	$r17,$r17,-122(0xf86)
1c017248:	1400000a 	lu12i.w	$r10,0
1c01724c:	1400000b 	lu12i.w	$r11,0
1c017250:	50001400 	b	20(0x14) # 1c017264 <n16_beq_test+0x6c04>
1c017254:	1512abaa 	lu12i.w	$r10,-486051(0x8955d)
1c017258:	0298094a 	addi.w	$r10,$r10,1538(0x602)
1c01725c:	580021ac 	beq	$r13,$r12,32(0x20) # 1c01727c <n16_beq_test+0x6c1c>
1c017260:	50002400 	b	36(0x24) # 1c017284 <n16_beq_test+0x6c24>
1c017264:	1400000c 	lu12i.w	$r12,0
1c017268:	0280018c 	addi.w	$r12,$r12,0
1c01726c:	15bf034d 	lu12i.w	$r13,-133094(0xdf81a)
1c017270:	028e81ad 	addi.w	$r13,$r13,928(0x3a0)
1c017274:	5bffe18d 	beq	$r12,$r13,-32(0x3ffe0) # 1c017254 <n16_beq_test+0x6bf4>
1c017278:	50000c00 	b	12(0xc) # 1c017284 <n16_beq_test+0x6c24>
1c01727c:	14247d8b 	lu12i.w	$r11,74732(0x123ec)
1c017280:	02be196b 	addi.w	$r11,$r11,-122(0xf86)
1c017284:	1400001c 	lu12i.w	$r28,0
1c017288:	0280039c 	addi.w	$r28,$r28,0
1c01728c:	1400001d 	lu12i.w	$r29,0
1c017290:	028003bd 	addi.w	$r29,$r29,0
1c017294:	5c09715c 	bne	$r10,$r28,2416(0x970) # 1c017c04 <inst_error>
1c017298:	5c096d7d 	bne	$r11,$r29,2412(0x96c) # 1c017c04 <inst_error>
1c01729c:	14df6fd0 	lu12i.w	$r16,457598(0x6fb7e)
1c0172a0:	02900210 	addi.w	$r16,$r16,1024(0x400)
1c0172a4:	14a9cbb1 	lu12i.w	$r17,347741(0x54e5d)
1c0172a8:	02924231 	addi.w	$r17,$r17,1168(0x490)
1c0172ac:	1400000a 	lu12i.w	$r10,0
1c0172b0:	1400000b 	lu12i.w	$r11,0
1c0172b4:	50001400 	b	20(0x14) # 1c0172c8 <n16_beq_test+0x6c68>
1c0172b8:	14df6fca 	lu12i.w	$r10,457598(0x6fb7e)
1c0172bc:	0290014a 	addi.w	$r10,$r10,1024(0x400)
1c0172c0:	580021ac 	beq	$r13,$r12,32(0x20) # 1c0172e0 <n16_beq_test+0x6c80>
1c0172c4:	50002400 	b	36(0x24) # 1c0172e8 <n16_beq_test+0x6c88>
1c0172c8:	1400000c 	lu12i.w	$r12,0
1c0172cc:	0280018c 	addi.w	$r12,$r12,0
1c0172d0:	14af232d 	lu12i.w	$r13,358681(0x57919)
1c0172d4:	028e41ad 	addi.w	$r13,$r13,912(0x390)
1c0172d8:	5bffe18d 	beq	$r12,$r13,-32(0x3ffe0) # 1c0172b8 <n16_beq_test+0x6c58>
1c0172dc:	50000c00 	b	12(0xc) # 1c0172e8 <n16_beq_test+0x6c88>
1c0172e0:	14a9cbab 	lu12i.w	$r11,347741(0x54e5d)
1c0172e4:	0292416b 	addi.w	$r11,$r11,1168(0x490)
1c0172e8:	1400001c 	lu12i.w	$r28,0
1c0172ec:	0280039c 	addi.w	$r28,$r28,0
1c0172f0:	1400001d 	lu12i.w	$r29,0
1c0172f4:	028003bd 	addi.w	$r29,$r29,0
1c0172f8:	5c090d5c 	bne	$r10,$r28,2316(0x90c) # 1c017c04 <inst_error>
1c0172fc:	5c09097d 	bne	$r11,$r29,2312(0x908) # 1c017c04 <inst_error>
1c017300:	14b055f0 	lu12i.w	$r16,361135(0x582af)
1c017304:	029d2e10 	addi.w	$r16,$r16,1867(0x74b)
1c017308:	14e9e551 	lu12i.w	$r17,479018(0x74f2a)
1c01730c:	02830231 	addi.w	$r17,$r17,192(0xc0)
1c017310:	1400000a 	lu12i.w	$r10,0
1c017314:	1400000b 	lu12i.w	$r11,0
1c017318:	50001400 	b	20(0x14) # 1c01732c <n16_beq_test+0x6ccc>
1c01731c:	14b055ea 	lu12i.w	$r10,361135(0x582af)
1c017320:	029d2d4a 	addi.w	$r10,$r10,1867(0x74b)
1c017324:	580021ac 	beq	$r13,$r12,32(0x20) # 1c017344 <n16_beq_test+0x6ce4>
1c017328:	50002400 	b	36(0x24) # 1c01734c <n16_beq_test+0x6cec>
1c01732c:	1400000c 	lu12i.w	$r12,0
1c017330:	0280018c 	addi.w	$r12,$r12,0
1c017334:	146060ad 	lu12i.w	$r13,197381(0x30305)
1c017338:	02b801ad 	addi.w	$r13,$r13,-512(0xe00)
1c01733c:	5bffe18d 	beq	$r12,$r13,-32(0x3ffe0) # 1c01731c <n16_beq_test+0x6cbc>
1c017340:	50000c00 	b	12(0xc) # 1c01734c <n16_beq_test+0x6cec>
1c017344:	14e9e54b 	lu12i.w	$r11,479018(0x74f2a)
1c017348:	0283016b 	addi.w	$r11,$r11,192(0xc0)
1c01734c:	1400001c 	lu12i.w	$r28,0
1c017350:	0280039c 	addi.w	$r28,$r28,0
1c017354:	1400001d 	lu12i.w	$r29,0
1c017358:	028003bd 	addi.w	$r29,$r29,0
1c01735c:	5c08a95c 	bne	$r10,$r28,2216(0x8a8) # 1c017c04 <inst_error>
1c017360:	5c08a57d 	bne	$r11,$r29,2212(0x8a4) # 1c017c04 <inst_error>
1c017364:	15508570 	lu12i.w	$r16,-359381(0xa842b)
1c017368:	02822210 	addi.w	$r16,$r16,136(0x88)
1c01736c:	153989b1 	lu12i.w	$r17,-406451(0x9cc4d)
1c017370:	02a6c231 	addi.w	$r17,$r17,-1616(0x9b0)
1c017374:	1400000a 	lu12i.w	$r10,0
1c017378:	1400000b 	lu12i.w	$r11,0
1c01737c:	50001400 	b	20(0x14) # 1c017390 <n16_beq_test+0x6d30>
1c017380:	1550856a 	lu12i.w	$r10,-359381(0xa842b)
1c017384:	0282214a 	addi.w	$r10,$r10,136(0x88)
1c017388:	580021ac 	beq	$r13,$r12,32(0x20) # 1c0173a8 <n16_beq_test+0x6d48>
1c01738c:	50002400 	b	36(0x24) # 1c0173b0 <n16_beq_test+0x6d50>
1c017390:	1400000c 	lu12i.w	$r12,0
1c017394:	0280018c 	addi.w	$r12,$r12,0
1c017398:	15d0806d 	lu12i.w	$r13,-97277(0xe8403)
1c01739c:	02a681ad 	addi.w	$r13,$r13,-1632(0x9a0)
1c0173a0:	5bffe18d 	beq	$r12,$r13,-32(0x3ffe0) # 1c017380 <n16_beq_test+0x6d20>
1c0173a4:	50000c00 	b	12(0xc) # 1c0173b0 <n16_beq_test+0x6d50>
1c0173a8:	153989ab 	lu12i.w	$r11,-406451(0x9cc4d)
1c0173ac:	02a6c16b 	addi.w	$r11,$r11,-1616(0x9b0)
1c0173b0:	1400001c 	lu12i.w	$r28,0
1c0173b4:	0280039c 	addi.w	$r28,$r28,0
1c0173b8:	1400001d 	lu12i.w	$r29,0
1c0173bc:	028003bd 	addi.w	$r29,$r29,0
1c0173c0:	5c08455c 	bne	$r10,$r28,2116(0x844) # 1c017c04 <inst_error>
1c0173c4:	5c08417d 	bne	$r11,$r29,2112(0x840) # 1c017c04 <inst_error>
1c0173c8:	14b3cb90 	lu12i.w	$r16,368220(0x59e5c)
1c0173cc:	02ad9210 	addi.w	$r16,$r16,-1180(0xb64)
1c0173d0:	1462c251 	lu12i.w	$r17,202258(0x31612)
1c0173d4:	02a6a231 	addi.w	$r17,$r17,-1624(0x9a8)
1c0173d8:	1400000a 	lu12i.w	$r10,0
1c0173dc:	1400000b 	lu12i.w	$r11,0
1c0173e0:	50001400 	b	20(0x14) # 1c0173f4 <n16_beq_test+0x6d94>
1c0173e4:	14b3cb8a 	lu12i.w	$r10,368220(0x59e5c)
1c0173e8:	02ad914a 	addi.w	$r10,$r10,-1180(0xb64)
1c0173ec:	580021ac 	beq	$r13,$r12,32(0x20) # 1c01740c <n16_beq_test+0x6dac>
1c0173f0:	50002400 	b	36(0x24) # 1c017414 <n16_beq_test+0x6db4>
1c0173f4:	1400000c 	lu12i.w	$r12,0
1c0173f8:	0280018c 	addi.w	$r12,$r12,0
1c0173fc:	15baae6d 	lu12i.w	$r13,-141965(0xdd573)
1c017400:	028801ad 	addi.w	$r13,$r13,512(0x200)
1c017404:	5bffe18d 	beq	$r12,$r13,-32(0x3ffe0) # 1c0173e4 <n16_beq_test+0x6d84>
1c017408:	50000c00 	b	12(0xc) # 1c017414 <n16_beq_test+0x6db4>
1c01740c:	1462c24b 	lu12i.w	$r11,202258(0x31612)
1c017410:	02a6a16b 	addi.w	$r11,$r11,-1624(0x9a8)
1c017414:	1400001c 	lu12i.w	$r28,0
1c017418:	0280039c 	addi.w	$r28,$r28,0
1c01741c:	1400001d 	lu12i.w	$r29,0
1c017420:	028003bd 	addi.w	$r29,$r29,0
1c017424:	5c07e15c 	bne	$r10,$r28,2016(0x7e0) # 1c017c04 <inst_error>
1c017428:	5c07dd7d 	bne	$r11,$r29,2012(0x7dc) # 1c017c04 <inst_error>
1c01742c:	1450b1d0 	lu12i.w	$r16,165262(0x2858e)
1c017430:	02b36210 	addi.w	$r16,$r16,-808(0xcd8)
1c017434:	1590de51 	lu12i.w	$r17,-227598(0xc86f2)
1c017438:	02ac6231 	addi.w	$r17,$r17,-1256(0xb18)
1c01743c:	1400000a 	lu12i.w	$r10,0
1c017440:	1400000b 	lu12i.w	$r11,0
1c017444:	50001400 	b	20(0x14) # 1c017458 <n16_beq_test+0x6df8>
1c017448:	1450b1ca 	lu12i.w	$r10,165262(0x2858e)
1c01744c:	02b3614a 	addi.w	$r10,$r10,-808(0xcd8)
1c017450:	580021ac 	beq	$r13,$r12,32(0x20) # 1c017470 <n16_beq_test+0x6e10>
1c017454:	50002400 	b	36(0x24) # 1c017478 <n16_beq_test+0x6e18>
1c017458:	1400000c 	lu12i.w	$r12,0
1c01745c:	0280018c 	addi.w	$r12,$r12,0
1c017460:	144c810d 	lu12i.w	$r13,156680(0x26408)
1c017464:	0295f1ad 	addi.w	$r13,$r13,1404(0x57c)
1c017468:	5bffe18d 	beq	$r12,$r13,-32(0x3ffe0) # 1c017448 <n16_beq_test+0x6de8>
1c01746c:	50000c00 	b	12(0xc) # 1c017478 <n16_beq_test+0x6e18>
1c017470:	1590de4b 	lu12i.w	$r11,-227598(0xc86f2)
1c017474:	02ac616b 	addi.w	$r11,$r11,-1256(0xb18)
1c017478:	1400001c 	lu12i.w	$r28,0
1c01747c:	0280039c 	addi.w	$r28,$r28,0
1c017480:	1400001d 	lu12i.w	$r29,0
1c017484:	028003bd 	addi.w	$r29,$r29,0
1c017488:	5c077d5c 	bne	$r10,$r28,1916(0x77c) # 1c017c04 <inst_error>
1c01748c:	5c07797d 	bne	$r11,$r29,1912(0x778) # 1c017c04 <inst_error>
1c017490:	151f6950 	lu12i.w	$r16,-459958(0x8fb4a)
1c017494:	02970210 	addi.w	$r16,$r16,1472(0x5c0)
1c017498:	155e5851 	lu12i.w	$r17,-331070(0xaf2c2)
1c01749c:	029b8a31 	addi.w	$r17,$r17,1762(0x6e2)
1c0174a0:	1400000a 	lu12i.w	$r10,0
1c0174a4:	1400000b 	lu12i.w	$r11,0
1c0174a8:	50001400 	b	20(0x14) # 1c0174bc <n16_beq_test+0x6e5c>
1c0174ac:	151f694a 	lu12i.w	$r10,-459958(0x8fb4a)
1c0174b0:	0297014a 	addi.w	$r10,$r10,1472(0x5c0)
1c0174b4:	580021ac 	beq	$r13,$r12,32(0x20) # 1c0174d4 <n16_beq_test+0x6e74>
1c0174b8:	50002400 	b	36(0x24) # 1c0174dc <n16_beq_test+0x6e7c>
1c0174bc:	1400000c 	lu12i.w	$r12,0
1c0174c0:	0280018c 	addi.w	$r12,$r12,0
1c0174c4:	15f8df6d 	lu12i.w	$r13,-14597(0xfc6fb)
1c0174c8:	02a209ad 	addi.w	$r13,$r13,-1918(0x882)
1c0174cc:	5bffe18d 	beq	$r12,$r13,-32(0x3ffe0) # 1c0174ac <n16_beq_test+0x6e4c>
1c0174d0:	50000c00 	b	12(0xc) # 1c0174dc <n16_beq_test+0x6e7c>
1c0174d4:	155e584b 	lu12i.w	$r11,-331070(0xaf2c2)
1c0174d8:	029b896b 	addi.w	$r11,$r11,1762(0x6e2)
1c0174dc:	1400001c 	lu12i.w	$r28,0
1c0174e0:	0280039c 	addi.w	$r28,$r28,0
1c0174e4:	1400001d 	lu12i.w	$r29,0
1c0174e8:	028003bd 	addi.w	$r29,$r29,0
1c0174ec:	5c07195c 	bne	$r10,$r28,1816(0x718) # 1c017c04 <inst_error>
1c0174f0:	5c07157d 	bne	$r11,$r29,1812(0x714) # 1c017c04 <inst_error>
1c0174f4:	14ac6e10 	lu12i.w	$r16,353136(0x56370)
1c0174f8:	02868210 	addi.w	$r16,$r16,416(0x1a0)
1c0174fc:	147bf7b1 	lu12i.w	$r17,253885(0x3dfbd)
1c017500:	0282a231 	addi.w	$r17,$r17,168(0xa8)
1c017504:	1400000a 	lu12i.w	$r10,0
1c017508:	1400000b 	lu12i.w	$r11,0
1c01750c:	50001400 	b	20(0x14) # 1c017520 <n16_beq_test+0x6ec0>
1c017510:	14ac6e0a 	lu12i.w	$r10,353136(0x56370)
1c017514:	0286814a 	addi.w	$r10,$r10,416(0x1a0)
1c017518:	580021ac 	beq	$r13,$r12,32(0x20) # 1c017538 <n16_beq_test+0x6ed8>
1c01751c:	50002400 	b	36(0x24) # 1c017540 <n16_beq_test+0x6ee0>
1c017520:	1400000c 	lu12i.w	$r12,0
1c017524:	0280018c 	addi.w	$r12,$r12,0
1c017528:	1500094d 	lu12i.w	$r13,-524214(0x8004a)
1c01752c:	028bc1ad 	addi.w	$r13,$r13,752(0x2f0)
1c017530:	5bffe18d 	beq	$r12,$r13,-32(0x3ffe0) # 1c017510 <n16_beq_test+0x6eb0>
1c017534:	50000c00 	b	12(0xc) # 1c017540 <n16_beq_test+0x6ee0>
1c017538:	147bf7ab 	lu12i.w	$r11,253885(0x3dfbd)
1c01753c:	0282a16b 	addi.w	$r11,$r11,168(0xa8)
1c017540:	1400001c 	lu12i.w	$r28,0
1c017544:	0280039c 	addi.w	$r28,$r28,0
1c017548:	1400001d 	lu12i.w	$r29,0
1c01754c:	028003bd 	addi.w	$r29,$r29,0
1c017550:	5c06b55c 	bne	$r10,$r28,1716(0x6b4) # 1c017c04 <inst_error>
1c017554:	5c06b17d 	bne	$r11,$r29,1712(0x6b0) # 1c017c04 <inst_error>
1c017558:	15d07d90 	lu12i.w	$r16,-97300(0xe83ec)
1c01755c:	02b0c210 	addi.w	$r16,$r16,-976(0xc30)
1c017560:	14c3a471 	lu12i.w	$r17,400675(0x61d23)
1c017564:	02921e31 	addi.w	$r17,$r17,1159(0x487)
1c017568:	1400000a 	lu12i.w	$r10,0
1c01756c:	1400000b 	lu12i.w	$r11,0
1c017570:	50001400 	b	20(0x14) # 1c017584 <n16_beq_test+0x6f24>
1c017574:	15d07d8a 	lu12i.w	$r10,-97300(0xe83ec)
1c017578:	02b0c14a 	addi.w	$r10,$r10,-976(0xc30)
1c01757c:	580021ac 	beq	$r13,$r12,32(0x20) # 1c01759c <n16_beq_test+0x6f3c>
1c017580:	50002400 	b	36(0x24) # 1c0175a4 <n16_beq_test+0x6f44>
1c017584:	1400000c 	lu12i.w	$r12,0
1c017588:	0280018c 	addi.w	$r12,$r12,0
1c01758c:	1458d90d 	lu12i.w	$r13,181960(0x2c6c8)
1c017590:	029aedad 	addi.w	$r13,$r13,1723(0x6bb)
1c017594:	5bffe18d 	beq	$r12,$r13,-32(0x3ffe0) # 1c017574 <n16_beq_test+0x6f14>
1c017598:	50000c00 	b	12(0xc) # 1c0175a4 <n16_beq_test+0x6f44>
1c01759c:	14c3a46b 	lu12i.w	$r11,400675(0x61d23)
1c0175a0:	02921d6b 	addi.w	$r11,$r11,1159(0x487)
1c0175a4:	1400001c 	lu12i.w	$r28,0
1c0175a8:	0280039c 	addi.w	$r28,$r28,0
1c0175ac:	1400001d 	lu12i.w	$r29,0
1c0175b0:	028003bd 	addi.w	$r29,$r29,0
1c0175b4:	5c06515c 	bne	$r10,$r28,1616(0x650) # 1c017c04 <inst_error>
1c0175b8:	5c064d7d 	bne	$r11,$r29,1612(0x64c) # 1c017c04 <inst_error>
1c0175bc:	151a8190 	lu12i.w	$r16,-470004(0x8d40c)
1c0175c0:	02bbc610 	addi.w	$r16,$r16,-271(0xef1)
1c0175c4:	158efa51 	lu12i.w	$r17,-231470(0xc77d2)
1c0175c8:	02a6b231 	addi.w	$r17,$r17,-1620(0x9ac)
1c0175cc:	1400000a 	lu12i.w	$r10,0
1c0175d0:	1400000b 	lu12i.w	$r11,0
1c0175d4:	50001400 	b	20(0x14) # 1c0175e8 <n16_beq_test+0x6f88>
1c0175d8:	151a818a 	lu12i.w	$r10,-470004(0x8d40c)
1c0175dc:	02bbc54a 	addi.w	$r10,$r10,-271(0xef1)
1c0175e0:	580021ac 	beq	$r13,$r12,32(0x20) # 1c017600 <n16_beq_test+0x6fa0>
1c0175e4:	50002400 	b	36(0x24) # 1c017608 <n16_beq_test+0x6fa8>
1c0175e8:	1400000c 	lu12i.w	$r12,0
1c0175ec:	0280018c 	addi.w	$r12,$r12,0
1c0175f0:	14dd786d 	lu12i.w	$r13,453571(0x6ebc3)
1c0175f4:	02b0fdad 	addi.w	$r13,$r13,-961(0xc3f)
1c0175f8:	5bffe18d 	beq	$r12,$r13,-32(0x3ffe0) # 1c0175d8 <n16_beq_test+0x6f78>
1c0175fc:	50000c00 	b	12(0xc) # 1c017608 <n16_beq_test+0x6fa8>
1c017600:	158efa4b 	lu12i.w	$r11,-231470(0xc77d2)
1c017604:	02a6b16b 	addi.w	$r11,$r11,-1620(0x9ac)
1c017608:	1400001c 	lu12i.w	$r28,0
1c01760c:	0280039c 	addi.w	$r28,$r28,0
1c017610:	1400001d 	lu12i.w	$r29,0
1c017614:	028003bd 	addi.w	$r29,$r29,0
1c017618:	5c05ed5c 	bne	$r10,$r28,1516(0x5ec) # 1c017c04 <inst_error>
1c01761c:	5c05e97d 	bne	$r11,$r29,1512(0x5e8) # 1c017c04 <inst_error>
1c017620:	141ffff0 	lu12i.w	$r16,65535(0xffff)
1c017624:	02902610 	addi.w	$r16,$r16,1033(0x409)
1c017628:	14092d51 	lu12i.w	$r17,18794(0x496a)
1c01762c:	02860231 	addi.w	$r17,$r17,384(0x180)
1c017630:	1400000a 	lu12i.w	$r10,0
1c017634:	1400000b 	lu12i.w	$r11,0
1c017638:	50001400 	b	20(0x14) # 1c01764c <n16_beq_test+0x6fec>
1c01763c:	141fffea 	lu12i.w	$r10,65535(0xffff)
1c017640:	0290254a 	addi.w	$r10,$r10,1033(0x409)
1c017644:	580021ac 	beq	$r13,$r12,32(0x20) # 1c017664 <n16_beq_test+0x7004>
1c017648:	50002400 	b	36(0x24) # 1c01766c <n16_beq_test+0x700c>
1c01764c:	1400000c 	lu12i.w	$r12,0
1c017650:	0280018c 	addi.w	$r12,$r12,0
1c017654:	14ba7d4d 	lu12i.w	$r13,381930(0x5d3ea)
1c017658:	028d31ad 	addi.w	$r13,$r13,844(0x34c)
1c01765c:	5bffe18d 	beq	$r12,$r13,-32(0x3ffe0) # 1c01763c <n16_beq_test+0x6fdc>
1c017660:	50000c00 	b	12(0xc) # 1c01766c <n16_beq_test+0x700c>
1c017664:	14092d4b 	lu12i.w	$r11,18794(0x496a)
1c017668:	0286016b 	addi.w	$r11,$r11,384(0x180)
1c01766c:	1400001c 	lu12i.w	$r28,0
1c017670:	0280039c 	addi.w	$r28,$r28,0
1c017674:	1400001d 	lu12i.w	$r29,0
1c017678:	028003bd 	addi.w	$r29,$r29,0
1c01767c:	5c05895c 	bne	$r10,$r28,1416(0x588) # 1c017c04 <inst_error>
1c017680:	5c05857d 	bne	$r11,$r29,1412(0x584) # 1c017c04 <inst_error>
1c017684:	14d5e070 	lu12i.w	$r16,438019(0x6af03)
1c017688:	02818210 	addi.w	$r16,$r16,96(0x60)
1c01768c:	15667491 	lu12i.w	$r17,-314460(0xb33a4)
1c017690:	02b7e231 	addi.w	$r17,$r17,-520(0xdf8)
1c017694:	1400000a 	lu12i.w	$r10,0
1c017698:	1400000b 	lu12i.w	$r11,0
1c01769c:	50001400 	b	20(0x14) # 1c0176b0 <n16_beq_test+0x7050>
1c0176a0:	14d5e06a 	lu12i.w	$r10,438019(0x6af03)
1c0176a4:	0281814a 	addi.w	$r10,$r10,96(0x60)
1c0176a8:	580021ac 	beq	$r13,$r12,32(0x20) # 1c0176c8 <n16_beq_test+0x7068>
1c0176ac:	50002400 	b	36(0x24) # 1c0176d0 <n16_beq_test+0x7070>
1c0176b0:	1400000c 	lu12i.w	$r12,0
1c0176b4:	0280018c 	addi.w	$r12,$r12,0
1c0176b8:	145e79cd 	lu12i.w	$r13,193486(0x2f3ce)
1c0176bc:	02b669ad 	addi.w	$r13,$r13,-614(0xd9a)
1c0176c0:	5bffe18d 	beq	$r12,$r13,-32(0x3ffe0) # 1c0176a0 <n16_beq_test+0x7040>
1c0176c4:	50000c00 	b	12(0xc) # 1c0176d0 <n16_beq_test+0x7070>
1c0176c8:	1566748b 	lu12i.w	$r11,-314460(0xb33a4)
1c0176cc:	02b7e16b 	addi.w	$r11,$r11,-520(0xdf8)
1c0176d0:	1400001c 	lu12i.w	$r28,0
1c0176d4:	0280039c 	addi.w	$r28,$r28,0
1c0176d8:	1400001d 	lu12i.w	$r29,0
1c0176dc:	028003bd 	addi.w	$r29,$r29,0
1c0176e0:	5c05255c 	bne	$r10,$r28,1316(0x524) # 1c017c04 <inst_error>
1c0176e4:	5c05217d 	bne	$r11,$r29,1312(0x520) # 1c017c04 <inst_error>
1c0176e8:	14bb4030 	lu12i.w	$r16,383489(0x5da01)
1c0176ec:	029ec210 	addi.w	$r16,$r16,1968(0x7b0)
1c0176f0:	15c2b9d1 	lu12i.w	$r17,-125490(0xe15ce)
1c0176f4:	02b11231 	addi.w	$r17,$r17,-956(0xc44)
1c0176f8:	1400000a 	lu12i.w	$r10,0
1c0176fc:	1400000b 	lu12i.w	$r11,0
1c017700:	50001400 	b	20(0x14) # 1c017714 <n16_beq_test+0x70b4>
1c017704:	14bb402a 	lu12i.w	$r10,383489(0x5da01)
1c017708:	029ec14a 	addi.w	$r10,$r10,1968(0x7b0)
1c01770c:	580021ac 	beq	$r13,$r12,32(0x20) # 1c01772c <n16_beq_test+0x70cc>
1c017710:	50002400 	b	36(0x24) # 1c017734 <n16_beq_test+0x70d4>
1c017714:	1400000c 	lu12i.w	$r12,0
1c017718:	0280018c 	addi.w	$r12,$r12,0
1c01771c:	151d218d 	lu12i.w	$r13,-464628(0x8e90c)
1c017720:	02b4e9ad 	addi.w	$r13,$r13,-710(0xd3a)
1c017724:	5bffe18d 	beq	$r12,$r13,-32(0x3ffe0) # 1c017704 <n16_beq_test+0x70a4>
1c017728:	50000c00 	b	12(0xc) # 1c017734 <n16_beq_test+0x70d4>
1c01772c:	15c2b9cb 	lu12i.w	$r11,-125490(0xe15ce)
1c017730:	02b1116b 	addi.w	$r11,$r11,-956(0xc44)
1c017734:	1400001c 	lu12i.w	$r28,0
1c017738:	0280039c 	addi.w	$r28,$r28,0
1c01773c:	1400001d 	lu12i.w	$r29,0
1c017740:	028003bd 	addi.w	$r29,$r29,0
1c017744:	5c04c15c 	bne	$r10,$r28,1216(0x4c0) # 1c017c04 <inst_error>
1c017748:	5c04bd7d 	bne	$r11,$r29,1212(0x4bc) # 1c017c04 <inst_error>
1c01774c:	14882f30 	lu12i.w	$r16,278905(0x44179)
1c017750:	02b16210 	addi.w	$r16,$r16,-936(0xc58)
1c017754:	147a65f1 	lu12i.w	$r17,250671(0x3d32f)
1c017758:	02959a31 	addi.w	$r17,$r17,1382(0x566)
1c01775c:	1400000a 	lu12i.w	$r10,0
1c017760:	1400000b 	lu12i.w	$r11,0
1c017764:	50001400 	b	20(0x14) # 1c017778 <n16_beq_test+0x7118>
1c017768:	14882f2a 	lu12i.w	$r10,278905(0x44179)
1c01776c:	02b1614a 	addi.w	$r10,$r10,-936(0xc58)
1c017770:	580021ac 	beq	$r13,$r12,32(0x20) # 1c017790 <n16_beq_test+0x7130>
1c017774:	50002400 	b	36(0x24) # 1c017798 <n16_beq_test+0x7138>
1c017778:	1400000c 	lu12i.w	$r12,0
1c01777c:	0280018c 	addi.w	$r12,$r12,0
1c017780:	15d67b2d 	lu12i.w	$r13,-85031(0xeb3d9)
1c017784:	0284f1ad 	addi.w	$r13,$r13,316(0x13c)
1c017788:	5bffe18d 	beq	$r12,$r13,-32(0x3ffe0) # 1c017768 <n16_beq_test+0x7108>
1c01778c:	50000c00 	b	12(0xc) # 1c017798 <n16_beq_test+0x7138>
1c017790:	147a65eb 	lu12i.w	$r11,250671(0x3d32f)
1c017794:	0295996b 	addi.w	$r11,$r11,1382(0x566)
1c017798:	1400001c 	lu12i.w	$r28,0
1c01779c:	0280039c 	addi.w	$r28,$r28,0
1c0177a0:	1400001d 	lu12i.w	$r29,0
1c0177a4:	028003bd 	addi.w	$r29,$r29,0
1c0177a8:	5c045d5c 	bne	$r10,$r28,1116(0x45c) # 1c017c04 <inst_error>
1c0177ac:	5c04597d 	bne	$r11,$r29,1112(0x458) # 1c017c04 <inst_error>
1c0177b0:	15a101b0 	lu12i.w	$r16,-194547(0xd080d)
1c0177b4:	02abb210 	addi.w	$r16,$r16,-1300(0xaec)
1c0177b8:	15c807b1 	lu12i.w	$r17,-114627(0xe403d)
1c0177bc:	02b60231 	addi.w	$r17,$r17,-640(0xd80)
1c0177c0:	1400000a 	lu12i.w	$r10,0
1c0177c4:	1400000b 	lu12i.w	$r11,0
1c0177c8:	50001400 	b	20(0x14) # 1c0177dc <n16_beq_test+0x717c>
1c0177cc:	15a101aa 	lu12i.w	$r10,-194547(0xd080d)
1c0177d0:	02abb14a 	addi.w	$r10,$r10,-1300(0xaec)
1c0177d4:	580021ac 	beq	$r13,$r12,32(0x20) # 1c0177f4 <n16_beq_test+0x7194>
1c0177d8:	50002400 	b	36(0x24) # 1c0177fc <n16_beq_test+0x719c>
1c0177dc:	1400000c 	lu12i.w	$r12,0
1c0177e0:	0280018c 	addi.w	$r12,$r12,0
1c0177e4:	148ebb0d 	lu12i.w	$r13,292312(0x475d8)
1c0177e8:	0285d1ad 	addi.w	$r13,$r13,372(0x174)
1c0177ec:	5bffe18d 	beq	$r12,$r13,-32(0x3ffe0) # 1c0177cc <n16_beq_test+0x716c>
1c0177f0:	50000c00 	b	12(0xc) # 1c0177fc <n16_beq_test+0x719c>
1c0177f4:	15c807ab 	lu12i.w	$r11,-114627(0xe403d)
1c0177f8:	02b6016b 	addi.w	$r11,$r11,-640(0xd80)
1c0177fc:	1400001c 	lu12i.w	$r28,0
1c017800:	0280039c 	addi.w	$r28,$r28,0
1c017804:	1400001d 	lu12i.w	$r29,0
1c017808:	028003bd 	addi.w	$r29,$r29,0
1c01780c:	5c03f95c 	bne	$r10,$r28,1016(0x3f8) # 1c017c04 <inst_error>
1c017810:	5c03f57d 	bne	$r11,$r29,1012(0x3f4) # 1c017c04 <inst_error>
1c017814:	155c0490 	lu12i.w	$r16,-335836(0xae024)
1c017818:	0299fa10 	addi.w	$r16,$r16,1662(0x67e)
1c01781c:	1459e091 	lu12i.w	$r17,184068(0x2cf04)
1c017820:	028eb631 	addi.w	$r17,$r17,941(0x3ad)
1c017824:	1400000a 	lu12i.w	$r10,0
1c017828:	1400000b 	lu12i.w	$r11,0
1c01782c:	50001400 	b	20(0x14) # 1c017840 <n16_beq_test+0x71e0>
1c017830:	155c048a 	lu12i.w	$r10,-335836(0xae024)
1c017834:	0299f94a 	addi.w	$r10,$r10,1662(0x67e)
1c017838:	580021ac 	beq	$r13,$r12,32(0x20) # 1c017858 <n16_beq_test+0x71f8>
1c01783c:	50002400 	b	36(0x24) # 1c017860 <n16_beq_test+0x7200>
1c017840:	1400000c 	lu12i.w	$r12,0
1c017844:	0280018c 	addi.w	$r12,$r12,0
1c017848:	15533ecd 	lu12i.w	$r13,-353802(0xa99f6)
1c01784c:	029721ad 	addi.w	$r13,$r13,1480(0x5c8)
1c017850:	5bffe18d 	beq	$r12,$r13,-32(0x3ffe0) # 1c017830 <n16_beq_test+0x71d0>
1c017854:	50000c00 	b	12(0xc) # 1c017860 <n16_beq_test+0x7200>
1c017858:	1459e08b 	lu12i.w	$r11,184068(0x2cf04)
1c01785c:	028eb56b 	addi.w	$r11,$r11,941(0x3ad)
1c017860:	1400001c 	lu12i.w	$r28,0
1c017864:	0280039c 	addi.w	$r28,$r28,0
1c017868:	1400001d 	lu12i.w	$r29,0
1c01786c:	028003bd 	addi.w	$r29,$r29,0
1c017870:	5c03955c 	bne	$r10,$r28,916(0x394) # 1c017c04 <inst_error>
1c017874:	5c03917d 	bne	$r11,$r29,912(0x390) # 1c017c04 <inst_error>
1c017878:	1420dff0 	lu12i.w	$r16,67327(0x106ff)
1c01787c:	02886210 	addi.w	$r16,$r16,536(0x218)
1c017880:	145e5691 	lu12i.w	$r17,193204(0x2f2b4)
1c017884:	02908231 	addi.w	$r17,$r17,1056(0x420)
1c017888:	1400000a 	lu12i.w	$r10,0
1c01788c:	1400000b 	lu12i.w	$r11,0
1c017890:	50001400 	b	20(0x14) # 1c0178a4 <n16_beq_test+0x7244>
1c017894:	1420dfea 	lu12i.w	$r10,67327(0x106ff)
1c017898:	0288614a 	addi.w	$r10,$r10,536(0x218)
1c01789c:	580021ac 	beq	$r13,$r12,32(0x20) # 1c0178bc <n16_beq_test+0x725c>
1c0178a0:	50002400 	b	36(0x24) # 1c0178c4 <n16_beq_test+0x7264>
1c0178a4:	1400000c 	lu12i.w	$r12,0
1c0178a8:	0280018c 	addi.w	$r12,$r12,0
1c0178ac:	149ca0ed 	lu12i.w	$r13,320775(0x4e507)
1c0178b0:	029781ad 	addi.w	$r13,$r13,1504(0x5e0)
1c0178b4:	5bffe18d 	beq	$r12,$r13,-32(0x3ffe0) # 1c017894 <n16_beq_test+0x7234>
1c0178b8:	50000c00 	b	12(0xc) # 1c0178c4 <n16_beq_test+0x7264>
1c0178bc:	145e568b 	lu12i.w	$r11,193204(0x2f2b4)
1c0178c0:	0290816b 	addi.w	$r11,$r11,1056(0x420)
1c0178c4:	1400001c 	lu12i.w	$r28,0
1c0178c8:	0280039c 	addi.w	$r28,$r28,0
1c0178cc:	1400001d 	lu12i.w	$r29,0
1c0178d0:	028003bd 	addi.w	$r29,$r29,0
1c0178d4:	5c03315c 	bne	$r10,$r28,816(0x330) # 1c017c04 <inst_error>
1c0178d8:	5c032d7d 	bne	$r11,$r29,812(0x32c) # 1c017c04 <inst_error>
1c0178dc:	144171b0 	lu12i.w	$r16,134029(0x20b8d)
1c0178e0:	02a64210 	addi.w	$r16,$r16,-1648(0x990)
1c0178e4:	157c5ab1 	lu12i.w	$r17,-269611(0xbe2d5)
1c0178e8:	02a13231 	addi.w	$r17,$r17,-1972(0x84c)
1c0178ec:	1400000a 	lu12i.w	$r10,0
1c0178f0:	1400000b 	lu12i.w	$r11,0
1c0178f4:	50001400 	b	20(0x14) # 1c017908 <n16_beq_test+0x72a8>
1c0178f8:	144171aa 	lu12i.w	$r10,134029(0x20b8d)
1c0178fc:	02a6414a 	addi.w	$r10,$r10,-1648(0x990)
1c017900:	580021ac 	beq	$r13,$r12,32(0x20) # 1c017920 <n16_beq_test+0x72c0>
1c017904:	50002400 	b	36(0x24) # 1c017928 <n16_beq_test+0x72c8>
1c017908:	1400000c 	lu12i.w	$r12,0
1c01790c:	0280018c 	addi.w	$r12,$r12,0
1c017910:	1573baed 	lu12i.w	$r13,-287273(0xb9dd7)
1c017914:	028d89ad 	addi.w	$r13,$r13,866(0x362)
1c017918:	5bffe18d 	beq	$r12,$r13,-32(0x3ffe0) # 1c0178f8 <n16_beq_test+0x7298>
1c01791c:	50000c00 	b	12(0xc) # 1c017928 <n16_beq_test+0x72c8>
1c017920:	157c5aab 	lu12i.w	$r11,-269611(0xbe2d5)
1c017924:	02a1316b 	addi.w	$r11,$r11,-1972(0x84c)
1c017928:	1400001c 	lu12i.w	$r28,0
1c01792c:	0280039c 	addi.w	$r28,$r28,0
1c017930:	1400001d 	lu12i.w	$r29,0
1c017934:	028003bd 	addi.w	$r29,$r29,0
1c017938:	5c02cd5c 	bne	$r10,$r28,716(0x2cc) # 1c017c04 <inst_error>
1c01793c:	5c02c97d 	bne	$r11,$r29,712(0x2c8) # 1c017c04 <inst_error>
1c017940:	147981f0 	lu12i.w	$r16,248847(0x3cc0f)
1c017944:	028d1a10 	addi.w	$r16,$r16,838(0x346)
1c017948:	1558d851 	lu12i.w	$r17,-342334(0xac6c2)
1c01794c:	02b70231 	addi.w	$r17,$r17,-576(0xdc0)
1c017950:	1400000a 	lu12i.w	$r10,0
1c017954:	1400000b 	lu12i.w	$r11,0
1c017958:	50001400 	b	20(0x14) # 1c01796c <n16_beq_test+0x730c>
1c01795c:	147981ea 	lu12i.w	$r10,248847(0x3cc0f)
1c017960:	028d194a 	addi.w	$r10,$r10,838(0x346)
1c017964:	580021ac 	beq	$r13,$r12,32(0x20) # 1c017984 <n16_beq_test+0x7324>
1c017968:	50002400 	b	36(0x24) # 1c01798c <n16_beq_test+0x732c>
1c01796c:	1400000c 	lu12i.w	$r12,0
1c017970:	0280018c 	addi.w	$r12,$r12,0
1c017974:	154291ad 	lu12i.w	$r13,-387955(0xa148d)
1c017978:	029cf9ad 	addi.w	$r13,$r13,1854(0x73e)
1c01797c:	5bffe18d 	beq	$r12,$r13,-32(0x3ffe0) # 1c01795c <n16_beq_test+0x72fc>
1c017980:	50000c00 	b	12(0xc) # 1c01798c <n16_beq_test+0x732c>
1c017984:	1558d84b 	lu12i.w	$r11,-342334(0xac6c2)
1c017988:	02b7016b 	addi.w	$r11,$r11,-576(0xdc0)
1c01798c:	1400001c 	lu12i.w	$r28,0
1c017990:	0280039c 	addi.w	$r28,$r28,0
1c017994:	1400001d 	lu12i.w	$r29,0
1c017998:	028003bd 	addi.w	$r29,$r29,0
1c01799c:	5c02695c 	bne	$r10,$r28,616(0x268) # 1c017c04 <inst_error>
1c0179a0:	5c02657d 	bne	$r11,$r29,612(0x264) # 1c017c04 <inst_error>
1c0179a4:	1528f190 	lu12i.w	$r16,-440436(0x9478c)
1c0179a8:	02890210 	addi.w	$r16,$r16,576(0x240)
1c0179ac:	158e5751 	lu12i.w	$r17,-232774(0xc72ba)
1c0179b0:	02b44231 	addi.w	$r17,$r17,-752(0xd10)
1c0179b4:	1400000a 	lu12i.w	$r10,0
1c0179b8:	1400000b 	lu12i.w	$r11,0
1c0179bc:	50001400 	b	20(0x14) # 1c0179d0 <n16_beq_test+0x7370>
1c0179c0:	1528f18a 	lu12i.w	$r10,-440436(0x9478c)
1c0179c4:	0289014a 	addi.w	$r10,$r10,576(0x240)
1c0179c8:	580021ac 	beq	$r13,$r12,32(0x20) # 1c0179e8 <n16_beq_test+0x7388>
1c0179cc:	50002400 	b	36(0x24) # 1c0179f0 <n16_beq_test+0x7390>
1c0179d0:	1400000c 	lu12i.w	$r12,0
1c0179d4:	0280018c 	addi.w	$r12,$r12,0
1c0179d8:	15230bad 	lu12i.w	$r13,-452515(0x9185d)
1c0179dc:	02b701ad 	addi.w	$r13,$r13,-576(0xdc0)
1c0179e0:	5bffe18d 	beq	$r12,$r13,-32(0x3ffe0) # 1c0179c0 <n16_beq_test+0x7360>
1c0179e4:	50000c00 	b	12(0xc) # 1c0179f0 <n16_beq_test+0x7390>
1c0179e8:	158e574b 	lu12i.w	$r11,-232774(0xc72ba)
1c0179ec:	02b4416b 	addi.w	$r11,$r11,-752(0xd10)
1c0179f0:	1400001c 	lu12i.w	$r28,0
1c0179f4:	0280039c 	addi.w	$r28,$r28,0
1c0179f8:	1400001d 	lu12i.w	$r29,0
1c0179fc:	028003bd 	addi.w	$r29,$r29,0
1c017a00:	5c02055c 	bne	$r10,$r28,516(0x204) # 1c017c04 <inst_error>
1c017a04:	5c02017d 	bne	$r11,$r29,512(0x200) # 1c017c04 <inst_error>
1c017a08:	1542e5f0 	lu12i.w	$r16,-387281(0xa172f)
1c017a0c:	0283c210 	addi.w	$r16,$r16,240(0xf0)
1c017a10:	149706b1 	lu12i.w	$r17,309301(0x4b835)
1c017a14:	02a6e231 	addi.w	$r17,$r17,-1608(0x9b8)
1c017a18:	1400000a 	lu12i.w	$r10,0
1c017a1c:	1400000b 	lu12i.w	$r11,0
1c017a20:	50001400 	b	20(0x14) # 1c017a34 <n16_beq_test+0x73d4>
1c017a24:	1542e5ea 	lu12i.w	$r10,-387281(0xa172f)
1c017a28:	0283c14a 	addi.w	$r10,$r10,240(0xf0)
1c017a2c:	580021ac 	beq	$r13,$r12,32(0x20) # 1c017a4c <n16_beq_test+0x73ec>
1c017a30:	50002400 	b	36(0x24) # 1c017a54 <n16_beq_test+0x73f4>
1c017a34:	1400000c 	lu12i.w	$r12,0
1c017a38:	0280018c 	addi.w	$r12,$r12,0
1c017a3c:	1420c82d 	lu12i.w	$r13,67137(0x10641)
1c017a40:	02ba69ad 	addi.w	$r13,$r13,-358(0xe9a)
1c017a44:	5bffe18d 	beq	$r12,$r13,-32(0x3ffe0) # 1c017a24 <n16_beq_test+0x73c4>
1c017a48:	50000c00 	b	12(0xc) # 1c017a54 <n16_beq_test+0x73f4>
1c017a4c:	149706ab 	lu12i.w	$r11,309301(0x4b835)
1c017a50:	02a6e16b 	addi.w	$r11,$r11,-1608(0x9b8)
1c017a54:	1400001c 	lu12i.w	$r28,0
1c017a58:	0280039c 	addi.w	$r28,$r28,0
1c017a5c:	1400001d 	lu12i.w	$r29,0
1c017a60:	028003bd 	addi.w	$r29,$r29,0
1c017a64:	5c01a15c 	bne	$r10,$r28,416(0x1a0) # 1c017c04 <inst_error>
1c017a68:	5c019d7d 	bne	$r11,$r29,412(0x19c) # 1c017c04 <inst_error>
1c017a6c:	15bef8f0 	lu12i.w	$r16,-133177(0xdf7c7)
1c017a70:	029fea10 	addi.w	$r16,$r16,2042(0x7fa)
1c017a74:	14c8a4f1 	lu12i.w	$r17,410919(0x64527)
1c017a78:	0288e231 	addi.w	$r17,$r17,568(0x238)
1c017a7c:	1400000a 	lu12i.w	$r10,0
1c017a80:	1400000b 	lu12i.w	$r11,0
1c017a84:	50001400 	b	20(0x14) # 1c017a98 <n16_beq_test+0x7438>
1c017a88:	15bef8ea 	lu12i.w	$r10,-133177(0xdf7c7)
1c017a8c:	029fe94a 	addi.w	$r10,$r10,2042(0x7fa)
1c017a90:	580021ac 	beq	$r13,$r12,32(0x20) # 1c017ab0 <n16_beq_test+0x7450>
1c017a94:	50002400 	b	36(0x24) # 1c017ab8 <n16_beq_test+0x7458>
1c017a98:	1400000c 	lu12i.w	$r12,0
1c017a9c:	0280018c 	addi.w	$r12,$r12,0
1c017aa0:	14ef8eed 	lu12i.w	$r13,490615(0x77c77)
1c017aa4:	029561ad 	addi.w	$r13,$r13,1368(0x558)
1c017aa8:	5bffe18d 	beq	$r12,$r13,-32(0x3ffe0) # 1c017a88 <n16_beq_test+0x7428>
1c017aac:	50000c00 	b	12(0xc) # 1c017ab8 <n16_beq_test+0x7458>
1c017ab0:	14c8a4eb 	lu12i.w	$r11,410919(0x64527)
1c017ab4:	0288e16b 	addi.w	$r11,$r11,568(0x238)
1c017ab8:	1400001c 	lu12i.w	$r28,0
1c017abc:	0280039c 	addi.w	$r28,$r28,0
1c017ac0:	1400001d 	lu12i.w	$r29,0
1c017ac4:	028003bd 	addi.w	$r29,$r29,0
1c017ac8:	5c013d5c 	bne	$r10,$r28,316(0x13c) # 1c017c04 <inst_error>
1c017acc:	5c01397d 	bne	$r11,$r29,312(0x138) # 1c017c04 <inst_error>
1c017ad0:	15a51290 	lu12i.w	$r16,-186220(0xd2894)
1c017ad4:	02959a10 	addi.w	$r16,$r16,1382(0x566)
1c017ad8:	140f0611 	lu12i.w	$r17,30768(0x7830)
1c017adc:	02845231 	addi.w	$r17,$r17,276(0x114)
1c017ae0:	1400000a 	lu12i.w	$r10,0
1c017ae4:	1400000b 	lu12i.w	$r11,0
1c017ae8:	50001400 	b	20(0x14) # 1c017afc <n16_beq_test+0x749c>
1c017aec:	15a5128a 	lu12i.w	$r10,-186220(0xd2894)
1c017af0:	0295994a 	addi.w	$r10,$r10,1382(0x566)
1c017af4:	580021ac 	beq	$r13,$r12,32(0x20) # 1c017b14 <n16_beq_test+0x74b4>
1c017af8:	50002400 	b	36(0x24) # 1c017b1c <n16_beq_test+0x74bc>
1c017afc:	1400000c 	lu12i.w	$r12,0
1c017b00:	0280018c 	addi.w	$r12,$r12,0
1c017b04:	1449246d 	lu12i.w	$r13,149795(0x24923)
1c017b08:	02b5f1ad 	addi.w	$r13,$r13,-644(0xd7c)
1c017b0c:	5bffe18d 	beq	$r12,$r13,-32(0x3ffe0) # 1c017aec <n16_beq_test+0x748c>
1c017b10:	50000c00 	b	12(0xc) # 1c017b1c <n16_beq_test+0x74bc>
1c017b14:	140f060b 	lu12i.w	$r11,30768(0x7830)
1c017b18:	0284516b 	addi.w	$r11,$r11,276(0x114)
1c017b1c:	1400001c 	lu12i.w	$r28,0
1c017b20:	0280039c 	addi.w	$r28,$r28,0
1c017b24:	1400001d 	lu12i.w	$r29,0
1c017b28:	028003bd 	addi.w	$r29,$r29,0
1c017b2c:	5c00d95c 	bne	$r10,$r28,216(0xd8) # 1c017c04 <inst_error>
1c017b30:	5c00d57d 	bne	$r11,$r29,212(0xd4) # 1c017c04 <inst_error>
1c017b34:	15b787f0 	lu12i.w	$r16,-148417(0xdbc3f)
1c017b38:	0289a210 	addi.w	$r16,$r16,616(0x268)
1c017b3c:	141489b1 	lu12i.w	$r17,42061(0xa44d)
1c017b40:	02abe231 	addi.w	$r17,$r17,-1288(0xaf8)
1c017b44:	1400000a 	lu12i.w	$r10,0
1c017b48:	1400000b 	lu12i.w	$r11,0
1c017b4c:	50001400 	b	20(0x14) # 1c017b60 <n16_beq_test+0x7500>
1c017b50:	15b787ea 	lu12i.w	$r10,-148417(0xdbc3f)
1c017b54:	0289a14a 	addi.w	$r10,$r10,616(0x268)
1c017b58:	580021ac 	beq	$r13,$r12,32(0x20) # 1c017b78 <n16_beq_test+0x7518>
1c017b5c:	50002400 	b	36(0x24) # 1c017b80 <n16_beq_test+0x7520>
1c017b60:	1400000c 	lu12i.w	$r12,0
1c017b64:	0280018c 	addi.w	$r12,$r12,0
1c017b68:	14d724cd 	lu12i.w	$r13,440614(0x6b926)
1c017b6c:	029e0dad 	addi.w	$r13,$r13,1923(0x783)
1c017b70:	5bffe18d 	beq	$r12,$r13,-32(0x3ffe0) # 1c017b50 <n16_beq_test+0x74f0>
1c017b74:	50000c00 	b	12(0xc) # 1c017b80 <n16_beq_test+0x7520>
1c017b78:	141489ab 	lu12i.w	$r11,42061(0xa44d)
1c017b7c:	02abe16b 	addi.w	$r11,$r11,-1288(0xaf8)
1c017b80:	1400001c 	lu12i.w	$r28,0
1c017b84:	0280039c 	addi.w	$r28,$r28,0
1c017b88:	1400001d 	lu12i.w	$r29,0
1c017b8c:	028003bd 	addi.w	$r29,$r29,0
1c017b90:	5c00755c 	bne	$r10,$r28,116(0x74) # 1c017c04 <inst_error>
1c017b94:	5c00717d 	bne	$r11,$r29,112(0x70) # 1c017c04 <inst_error>
1c017b98:	15f931b0 	lu12i.w	$r16,-13939(0xfc98d)
1c017b9c:	02954a10 	addi.w	$r16,$r16,1362(0x552)
1c017ba0:	15952111 	lu12i.w	$r17,-218872(0xca908)
1c017ba4:	029fb231 	addi.w	$r17,$r17,2028(0x7ec)
1c017ba8:	1400000a 	lu12i.w	$r10,0
1c017bac:	1400000b 	lu12i.w	$r11,0
1c017bb0:	50001400 	b	20(0x14) # 1c017bc4 <n16_beq_test+0x7564>
1c017bb4:	15f931aa 	lu12i.w	$r10,-13939(0xfc98d)
1c017bb8:	0295494a 	addi.w	$r10,$r10,1362(0x552)
1c017bbc:	580021ac 	beq	$r13,$r12,32(0x20) # 1c017bdc <n16_beq_test+0x757c>
1c017bc0:	50002400 	b	36(0x24) # 1c017be4 <n16_beq_test+0x7584>
1c017bc4:	1400000c 	lu12i.w	$r12,0
1c017bc8:	0280018c 	addi.w	$r12,$r12,0
1c017bcc:	1400000d 	lu12i.w	$r13,0
1c017bd0:	028001ad 	addi.w	$r13,$r13,0
1c017bd4:	5bffe18d 	beq	$r12,$r13,-32(0x3ffe0) # 1c017bb4 <n16_beq_test+0x7554>
1c017bd8:	50000c00 	b	12(0xc) # 1c017be4 <n16_beq_test+0x7584>
1c017bdc:	1595210b 	lu12i.w	$r11,-218872(0xca908)
1c017be0:	029fb16b 	addi.w	$r11,$r11,2028(0x7ec)
1c017be4:	15f931bc 	lu12i.w	$r28,-13939(0xfc98d)
1c017be8:	02954b9c 	addi.w	$r28,$r28,1362(0x552)
1c017bec:	1595211d 	lu12i.w	$r29,-218872(0xca908)
1c017bf0:	029fb3bd 	addi.w	$r29,$r29,2028(0x7ec)
1c017bf4:	5c00115c 	bne	$r10,$r28,16(0x10) # 1c017c04 <inst_error>
1c017bf8:	5c000d7d 	bne	$r11,$r29,12(0xc) # 1c017c04 <inst_error>
1c017bfc:	5c000b20 	bne	$r25,$r0,8(0x8) # 1c017c04 <inst_error>
1c017c00:	0280075a 	addi.w	$r26,$r26,1(0x1)

1c017c04 <inst_error>:
1c017c04:	0040e2ed 	slli.w	$r13,$r23,0x18
1c017c08:	001569ac 	or	$r12,$r13,$r26
1c017c0c:	2980030c 	st.w	$r12,$r24,0
1c017c10:	4c000020 	jirl	$r0,$r1,0
inst_error():
1c017c14:	03400000 	andi	$r0,$r0,0x0

1c017c18 <n7_and_test>:
n7_and_test():
1c017c18:	028006f7 	addi.w	$r23,$r23,1(0x1)
1c017c1c:	00150019 	move	$r25,$r0
1c017c20:	14b92b2c 	lu12i.w	$r12,379225(0x5c959)
1c017c24:	0294698c 	addi.w	$r12,$r12,1306(0x51a)
1c017c28:	1594018d 	lu12i.w	$r13,-221172(0xca00c)
1c017c2c:	029051ad 	addi.w	$r13,$r13,1044(0x414)
1c017c30:	1490010b 	lu12i.w	$r11,294920(0x48008)
1c017c34:	0290416b 	addi.w	$r11,$r11,1040(0x410)
1c017c38:	0014b58a 	and	$r10,$r12,$r13
1c017c3c:	5c064d4b 	bne	$r10,$r11,1612(0x64c) # 1c018288 <inst_error>
1c017c40:	1537518c 	lu12i.w	$r12,-410996(0x9ba8c)
1c017c44:	02a9c18c 	addi.w	$r12,$r12,-1424(0xa70)
1c017c48:	15d33fad 	lu12i.w	$r13,-91651(0xe99fd)
1c017c4c:	02b8e1ad 	addi.w	$r13,$r13,-456(0xe38)
1c017c50:	1513112b 	lu12i.w	$r11,-485239(0x89889)
1c017c54:	02a8c16b 	addi.w	$r11,$r11,-1488(0xa30)
1c017c58:	0014b58a 	and	$r10,$r12,$r13
1c017c5c:	5c062d4b 	bne	$r10,$r11,1580(0x62c) # 1c018288 <inst_error>
1c017c60:	15a6064c 	lu12i.w	$r12,-184270(0xd3032)
1c017c64:	02a7818c 	addi.w	$r12,$r12,-1568(0x9e0)
1c017c68:	141749ad 	lu12i.w	$r13,47693(0xba4d)
1c017c6c:	02bfd9ad 	addi.w	$r13,$r13,-10(0xff6)
1c017c70:	1406002b 	lu12i.w	$r11,12289(0x3001)
1c017c74:	02a7816b 	addi.w	$r11,$r11,-1568(0x9e0)
1c017c78:	0014b58a 	and	$r10,$r12,$r13
1c017c7c:	5c060d4b 	bne	$r10,$r11,1548(0x60c) # 1c018288 <inst_error>
1c017c80:	159cd22c 	lu12i.w	$r12,-203119(0xce691)
1c017c84:	028ba18c 	addi.w	$r12,$r12,744(0x2e8)
1c017c88:	14cced6d 	lu12i.w	$r13,419691(0x6676b)
1c017c8c:	028839ad 	addi.w	$r13,$r13,526(0x20e)
1c017c90:	148cc02b 	lu12i.w	$r11,288257(0x46601)
1c017c94:	0288216b 	addi.w	$r11,$r11,520(0x208)
1c017c98:	0014b58a 	and	$r10,$r12,$r13
1c017c9c:	5c05ed4b 	bne	$r10,$r11,1516(0x5ec) # 1c018288 <inst_error>
1c017ca0:	143a670c 	lu12i.w	$r12,119608(0x1d338)
1c017ca4:	02a5818c 	addi.w	$r12,$r12,-1696(0x960)
1c017ca8:	14e89bad 	lu12i.w	$r13,476381(0x744dd)
1c017cac:	028a01ad 	addi.w	$r13,$r13,640(0x280)
1c017cb0:	142802ab 	lu12i.w	$r11,81941(0x14015)
1c017cb4:	0280016b 	addi.w	$r11,$r11,0
1c017cb8:	0014b58a 	and	$r10,$r12,$r13
1c017cbc:	5c05cd4b 	bne	$r10,$r11,1484(0x5cc) # 1c018288 <inst_error>
1c017cc0:	14f2accc 	lu12i.w	$r12,496998(0x79566)
1c017cc4:	02a0898c 	addi.w	$r12,$r12,-2014(0x822)
1c017cc8:	15ab14ed 	lu12i.w	$r13,-173913(0xd58a7)
1c017ccc:	028f1dad 	addi.w	$r13,$r13,967(0x3c7)
1c017cd0:	14a204ab 	lu12i.w	$r11,331813(0x51025)
1c017cd4:	0280096b 	addi.w	$r11,$r11,2(0x2)
1c017cd8:	0014b58a 	and	$r10,$r12,$r13
1c017cdc:	5c05ad4b 	bne	$r10,$r11,1452(0x5ac) # 1c018288 <inst_error>
1c017ce0:	14a927ac 	lu12i.w	$r12,346429(0x5493d)
1c017ce4:	02b9658c 	addi.w	$r12,$r12,-423(0xe59)
1c017ce8:	154fd2ad 	lu12i.w	$r13,-360811(0xa7e95)
1c017cec:	0298c1ad 	addi.w	$r13,$r13,1584(0x630)
1c017cf0:	1409028b 	lu12i.w	$r11,18452(0x4814)
1c017cf4:	0298416b 	addi.w	$r11,$r11,1552(0x610)
1c017cf8:	0014b58a 	and	$r10,$r12,$r13
1c017cfc:	5c058d4b 	bne	$r10,$r11,1420(0x58c) # 1c018288 <inst_error>
1c017d00:	149521ec 	lu12i.w	$r12,305423(0x4a90f)
1c017d04:	0291e18c 	addi.w	$r12,$r12,1144(0x478)
1c017d08:	15bd42cd 	lu12i.w	$r13,-136682(0xdea16)
1c017d0c:	029991ad 	addi.w	$r13,$r13,1636(0x664)
1c017d10:	149500cb 	lu12i.w	$r11,305158(0x4a806)
1c017d14:	0291816b 	addi.w	$r11,$r11,1120(0x460)
1c017d18:	0014b58a 	and	$r10,$r12,$r13
1c017d1c:	5c056d4b 	bne	$r10,$r11,1388(0x56c) # 1c018288 <inst_error>
1c017d20:	15225dcc 	lu12i.w	$r12,-453906(0x912ee)
1c017d24:	02ae4d8c 	addi.w	$r12,$r12,-1133(0xb93)
1c017d28:	151e974d 	lu12i.w	$r13,-461638(0x8f4ba)
1c017d2c:	02a1c1ad 	addi.w	$r13,$r13,-1936(0x870)
1c017d30:	1502154b 	lu12i.w	$r11,-520022(0x810aa)
1c017d34:	02a0416b 	addi.w	$r11,$r11,-2032(0x810)
1c017d38:	0014b58a 	and	$r10,$r12,$r13
1c017d3c:	5c054d4b 	bne	$r10,$r11,1356(0x54c) # 1c018288 <inst_error>
1c017d40:	1410082c 	lu12i.w	$r12,32833(0x8041)
1c017d44:	02ae118c 	addi.w	$r12,$r12,-1148(0xb84)
1c017d48:	15f52fed 	lu12i.w	$r13,-22145(0xfa97f)
1c017d4c:	02a421ad 	addi.w	$r13,$r13,-1784(0x908)
1c017d50:	1410082b 	lu12i.w	$r11,32833(0x8041)
1c017d54:	02a4016b 	addi.w	$r11,$r11,-1792(0x900)
1c017d58:	0014b58a 	and	$r10,$r12,$r13
1c017d5c:	5c052d4b 	bne	$r10,$r11,1324(0x52c) # 1c018288 <inst_error>
1c017d60:	1430f42c 	lu12i.w	$r12,100257(0x187a1)
1c017d64:	029c218c 	addi.w	$r12,$r12,1800(0x708)
1c017d68:	15ff08ed 	lu12i.w	$r13,-1977(0xff847)
1c017d6c:	028529ad 	addi.w	$r13,$r13,330(0x14a)
1c017d70:	1430002b 	lu12i.w	$r11,98305(0x18001)
1c017d74:	0284216b 	addi.w	$r11,$r11,264(0x108)
1c017d78:	0014b58a 	and	$r10,$r12,$r13
1c017d7c:	5c050d4b 	bne	$r10,$r11,1292(0x50c) # 1c018288 <inst_error>
1c017d80:	156273ec 	lu12i.w	$r12,-322657(0xb139f)
1c017d84:	02bcf58c 	addi.w	$r12,$r12,-195(0xf3d)
1c017d88:	140011cd 	lu12i.w	$r13,142(0x8e)
1c017d8c:	02a5c1ad 	addi.w	$r13,$r13,-1680(0x970)
1c017d90:	140011ab 	lu12i.w	$r11,141(0x8d)
1c017d94:	02a4c16b 	addi.w	$r11,$r11,-1744(0x930)
1c017d98:	0014b58a 	and	$r10,$r12,$r13
1c017d9c:	5c04ed4b 	bne	$r10,$r11,1260(0x4ec) # 1c018288 <inst_error>
1c017da0:	154ae4ec 	lu12i.w	$r12,-370905(0xa5727)
1c017da4:	0287018c 	addi.w	$r12,$r12,448(0x1c0)
1c017da8:	1545dd4d 	lu12i.w	$r13,-381206(0xa2eea)
1c017dac:	02ae11ad 	addi.w	$r13,$r13,-1148(0xb84)
1c017db0:	1540c42b 	lu12i.w	$r11,-391647(0xa0621)
1c017db4:	0286016b 	addi.w	$r11,$r11,384(0x180)
1c017db8:	0014b58a 	and	$r10,$r12,$r13
1c017dbc:	5c04cd4b 	bne	$r10,$r11,1228(0x4cc) # 1c018288 <inst_error>
1c017dc0:	1508080c 	lu12i.w	$r12,-507840(0x84040)
1c017dc4:	02ad018c 	addi.w	$r12,$r12,-1216(0xb40)
1c017dc8:	1400000d 	lu12i.w	$r13,0
1c017dcc:	028001ad 	addi.w	$r13,$r13,0
1c017dd0:	1400000b 	lu12i.w	$r11,0
1c017dd4:	0280016b 	addi.w	$r11,$r11,0
1c017dd8:	0014b58a 	and	$r10,$r12,$r13
1c017ddc:	5c04ad4b 	bne	$r10,$r11,1196(0x4ac) # 1c018288 <inst_error>
1c017de0:	1580d34c 	lu12i.w	$r12,-260454(0xc069a)
1c017de4:	02a0898c 	addi.w	$r12,$r12,-2014(0x822)
1c017de8:	1400000d 	lu12i.w	$r13,0
1c017dec:	028001ad 	addi.w	$r13,$r13,0
1c017df0:	1400000b 	lu12i.w	$r11,0
1c017df4:	0280016b 	addi.w	$r11,$r11,0
1c017df8:	0014b58a 	and	$r10,$r12,$r13
1c017dfc:	5c048d4b 	bne	$r10,$r11,1164(0x48c) # 1c018288 <inst_error>
1c017e00:	1481390c 	lu12i.w	$r12,264648(0x409c8)
1c017e04:	02a5b98c 	addi.w	$r12,$r12,-1682(0x96e)
1c017e08:	1400000d 	lu12i.w	$r13,0
1c017e0c:	028001ad 	addi.w	$r13,$r13,0
1c017e10:	1400000b 	lu12i.w	$r11,0
1c017e14:	0280016b 	addi.w	$r11,$r11,0
1c017e18:	0014b58a 	and	$r10,$r12,$r13
1c017e1c:	5c046d4b 	bne	$r10,$r11,1132(0x46c) # 1c018288 <inst_error>
1c017e20:	154f478c 	lu12i.w	$r12,-361924(0xa7a3c)
1c017e24:	02a5718c 	addi.w	$r12,$r12,-1700(0x95c)
1c017e28:	1400000d 	lu12i.w	$r13,0
1c017e2c:	028001ad 	addi.w	$r13,$r13,0
1c017e30:	1400000b 	lu12i.w	$r11,0
1c017e34:	0280016b 	addi.w	$r11,$r11,0
1c017e38:	0014b58a 	and	$r10,$r12,$r13
1c017e3c:	5c044d4b 	bne	$r10,$r11,1100(0x44c) # 1c018288 <inst_error>
1c017e40:	15b3f26c 	lu12i.w	$r12,-155757(0xd9f93)
1c017e44:	02bfb98c 	addi.w	$r12,$r12,-18(0xfee)
1c017e48:	1400000d 	lu12i.w	$r13,0
1c017e4c:	028001ad 	addi.w	$r13,$r13,0
1c017e50:	1400000b 	lu12i.w	$r11,0
1c017e54:	0280016b 	addi.w	$r11,$r11,0
1c017e58:	0014b58a 	and	$r10,$r12,$r13
1c017e5c:	5c042d4b 	bne	$r10,$r11,1068(0x42c) # 1c018288 <inst_error>
1c017e60:	1411eccc 	lu12i.w	$r12,36710(0x8f66)
1c017e64:	028ef98c 	addi.w	$r12,$r12,958(0x3be)
1c017e68:	1400000d 	lu12i.w	$r13,0
1c017e6c:	028001ad 	addi.w	$r13,$r13,0
1c017e70:	1400000b 	lu12i.w	$r11,0
1c017e74:	0280016b 	addi.w	$r11,$r11,0
1c017e78:	0014b58a 	and	$r10,$r12,$r13
1c017e7c:	5c040d4b 	bne	$r10,$r11,1036(0x40c) # 1c018288 <inst_error>
1c017e80:	1438e9ec 	lu12i.w	$r12,116559(0x1c74f)
1c017e84:	028e618c 	addi.w	$r12,$r12,920(0x398)
1c017e88:	1400000d 	lu12i.w	$r13,0
1c017e8c:	028001ad 	addi.w	$r13,$r13,0
1c017e90:	1400000b 	lu12i.w	$r11,0
1c017e94:	0280016b 	addi.w	$r11,$r11,0
1c017e98:	0014b58a 	and	$r10,$r12,$r13
1c017e9c:	5c03ed4b 	bne	$r10,$r11,1004(0x3ec) # 1c018288 <inst_error>
1c017ea0:	146d3bcc 	lu12i.w	$r12,223710(0x369de)
1c017ea4:	02b2a18c 	addi.w	$r12,$r12,-856(0xca8)
1c017ea8:	1400000d 	lu12i.w	$r13,0
1c017eac:	028001ad 	addi.w	$r13,$r13,0
1c017eb0:	1400000b 	lu12i.w	$r11,0
1c017eb4:	0280016b 	addi.w	$r11,$r11,0
1c017eb8:	0014b58a 	and	$r10,$r12,$r13
1c017ebc:	5c03cd4b 	bne	$r10,$r11,972(0x3cc) # 1c018288 <inst_error>
1c017ec0:	15c98f6c 	lu12i.w	$r12,-111493(0xe4c7b)
1c017ec4:	02a9f18c 	addi.w	$r12,$r12,-1412(0xa7c)
1c017ec8:	1400000d 	lu12i.w	$r13,0
1c017ecc:	028001ad 	addi.w	$r13,$r13,0
1c017ed0:	1400000b 	lu12i.w	$r11,0
1c017ed4:	0280016b 	addi.w	$r11,$r11,0
1c017ed8:	0014b58a 	and	$r10,$r12,$r13
1c017edc:	5c03ad4b 	bne	$r10,$r11,940(0x3ac) # 1c018288 <inst_error>
1c017ee0:	1448062c 	lu12i.w	$r12,147505(0x24031)
1c017ee4:	02a1098c 	addi.w	$r12,$r12,-1982(0x842)
1c017ee8:	1400000d 	lu12i.w	$r13,0
1c017eec:	028001ad 	addi.w	$r13,$r13,0
1c017ef0:	1400000b 	lu12i.w	$r11,0
1c017ef4:	0280016b 	addi.w	$r11,$r11,0
1c017ef8:	0014b58a 	and	$r10,$r12,$r13
1c017efc:	5c038d4b 	bne	$r10,$r11,908(0x38c) # 1c018288 <inst_error>
1c017f00:	150c444c 	lu12i.w	$r12,-499166(0x86222)
1c017f04:	02bc018c 	addi.w	$r12,$r12,-256(0xf00)
1c017f08:	1400000d 	lu12i.w	$r13,0
1c017f0c:	028001ad 	addi.w	$r13,$r13,0
1c017f10:	1400000b 	lu12i.w	$r11,0
1c017f14:	0280016b 	addi.w	$r11,$r11,0
1c017f18:	0014b58a 	and	$r10,$r12,$r13
1c017f1c:	5c036d4b 	bne	$r10,$r11,876(0x36c) # 1c018288 <inst_error>
1c017f20:	140327cc 	lu12i.w	$r12,6462(0x193e)
1c017f24:	02ae998c 	addi.w	$r12,$r12,-1114(0xba6)
1c017f28:	1400000d 	lu12i.w	$r13,0
1c017f2c:	028001ad 	addi.w	$r13,$r13,0
1c017f30:	1400000b 	lu12i.w	$r11,0
1c017f34:	0280016b 	addi.w	$r11,$r11,0
1c017f38:	0014b58a 	and	$r10,$r12,$r13
1c017f3c:	5c034d4b 	bne	$r10,$r11,844(0x34c) # 1c018288 <inst_error>
1c017f40:	15b345cc 	lu12i.w	$r12,-157138(0xd9a2e)
1c017f44:	0292818c 	addi.w	$r12,$r12,1184(0x4a0)
1c017f48:	1400000d 	lu12i.w	$r13,0
1c017f4c:	028001ad 	addi.w	$r13,$r13,0
1c017f50:	1400000b 	lu12i.w	$r11,0
1c017f54:	0280016b 	addi.w	$r11,$r11,0
1c017f58:	0014b58a 	and	$r10,$r12,$r13
1c017f5c:	5c032d4b 	bne	$r10,$r11,812(0x32c) # 1c018288 <inst_error>
1c017f60:	15ee76ec 	lu12i.w	$r12,-35913(0xf73b7)
1c017f64:	02aa218c 	addi.w	$r12,$r12,-1400(0xa88)
1c017f68:	1400000d 	lu12i.w	$r13,0
1c017f6c:	028001ad 	addi.w	$r13,$r13,0
1c017f70:	1400000b 	lu12i.w	$r11,0
1c017f74:	0280016b 	addi.w	$r11,$r11,0
1c017f78:	0014b58a 	and	$r10,$r12,$r13
1c017f7c:	5c030d4b 	bne	$r10,$r11,780(0x30c) # 1c018288 <inst_error>
1c017f80:	154c536c 	lu12i.w	$r12,-367973(0xa629b)
1c017f84:	02a1418c 	addi.w	$r12,$r12,-1968(0x850)
1c017f88:	1400000d 	lu12i.w	$r13,0
1c017f8c:	028001ad 	addi.w	$r13,$r13,0
1c017f90:	1400000b 	lu12i.w	$r11,0
1c017f94:	0280016b 	addi.w	$r11,$r11,0
1c017f98:	0014b58a 	and	$r10,$r12,$r13
1c017f9c:	5c02ed4b 	bne	$r10,$r11,748(0x2ec) # 1c018288 <inst_error>
1c017fa0:	15b2ea0c 	lu12i.w	$r12,-157872(0xd9750)
1c017fa4:	0293b98c 	addi.w	$r12,$r12,1262(0x4ee)
1c017fa8:	1400000d 	lu12i.w	$r13,0
1c017fac:	028001ad 	addi.w	$r13,$r13,0
1c017fb0:	1400000b 	lu12i.w	$r11,0
1c017fb4:	0280016b 	addi.w	$r11,$r11,0
1c017fb8:	0014b58a 	and	$r10,$r12,$r13
1c017fbc:	5c02cd4b 	bne	$r10,$r11,716(0x2cc) # 1c018288 <inst_error>
1c017fc0:	15ad6aac 	lu12i.w	$r12,-169131(0xd6b55)
1c017fc4:	028bd58c 	addi.w	$r12,$r12,757(0x2f5)
1c017fc8:	1400000d 	lu12i.w	$r13,0
1c017fcc:	028001ad 	addi.w	$r13,$r13,0
1c017fd0:	1400000b 	lu12i.w	$r11,0
1c017fd4:	0280016b 	addi.w	$r11,$r11,0
1c017fd8:	0014b58a 	and	$r10,$r12,$r13
1c017fdc:	5c02ad4b 	bne	$r10,$r11,684(0x2ac) # 1c018288 <inst_error>
1c017fe0:	14fc18ec 	lu12i.w	$r12,516295(0x7e0c7)
1c017fe4:	02b4118c 	addi.w	$r12,$r12,-764(0xd04)
1c017fe8:	1400000d 	lu12i.w	$r13,0
1c017fec:	028001ad 	addi.w	$r13,$r13,0
1c017ff0:	1400000b 	lu12i.w	$r11,0
1c017ff4:	0280016b 	addi.w	$r11,$r11,0
1c017ff8:	0014b58a 	and	$r10,$r12,$r13
1c017ffc:	5c028d4b 	bne	$r10,$r11,652(0x28c) # 1c018288 <inst_error>
1c018000:	14aecbac 	lu12i.w	$r12,357981(0x5765d)
1c018004:	0288bd8c 	addi.w	$r12,$r12,559(0x22f)
1c018008:	1400000d 	lu12i.w	$r13,0
1c01800c:	028001ad 	addi.w	$r13,$r13,0
1c018010:	1400000b 	lu12i.w	$r11,0
1c018014:	0280016b 	addi.w	$r11,$r11,0
1c018018:	0014b58a 	and	$r10,$r12,$r13
1c01801c:	5c026d4b 	bne	$r10,$r11,620(0x26c) # 1c018288 <inst_error>
1c018020:	14c6664c 	lu12i.w	$r12,406322(0x63332)
1c018024:	0291298c 	addi.w	$r12,$r12,1098(0x44a)
1c018028:	1400000d 	lu12i.w	$r13,0
1c01802c:	028001ad 	addi.w	$r13,$r13,0
1c018030:	1400000b 	lu12i.w	$r11,0
1c018034:	0280016b 	addi.w	$r11,$r11,0
1c018038:	0014b58a 	and	$r10,$r12,$r13
1c01803c:	5c024d4b 	bne	$r10,$r11,588(0x24c) # 1c018288 <inst_error>
1c018040:	15d9084c 	lu12i.w	$r12,-79806(0xec842)
1c018044:	0291698c 	addi.w	$r12,$r12,1114(0x45a)
1c018048:	1400000d 	lu12i.w	$r13,0
1c01804c:	028001ad 	addi.w	$r13,$r13,0
1c018050:	1400000b 	lu12i.w	$r11,0
1c018054:	0280016b 	addi.w	$r11,$r11,0
1c018058:	0014b58a 	and	$r10,$r12,$r13
1c01805c:	5c022d4b 	bne	$r10,$r11,556(0x22c) # 1c018288 <inst_error>
1c018060:	1545b64c 	lu12i.w	$r12,-381518(0xa2db2)
1c018064:	02bb618c 	addi.w	$r12,$r12,-296(0xed8)
1c018068:	1400000d 	lu12i.w	$r13,0
1c01806c:	028001ad 	addi.w	$r13,$r13,0
1c018070:	1400000b 	lu12i.w	$r11,0
1c018074:	0280016b 	addi.w	$r11,$r11,0
1c018078:	0014b58a 	and	$r10,$r12,$r13
1c01807c:	5c020d4b 	bne	$r10,$r11,524(0x20c) # 1c018288 <inst_error>
1c018080:	147453ac 	lu12i.w	$r12,238237(0x3a29d)
1c018084:	0280018c 	addi.w	$r12,$r12,0
1c018088:	1400000d 	lu12i.w	$r13,0
1c01808c:	028001ad 	addi.w	$r13,$r13,0
1c018090:	1400000b 	lu12i.w	$r11,0
1c018094:	0280016b 	addi.w	$r11,$r11,0
1c018098:	0014b58a 	and	$r10,$r12,$r13
1c01809c:	5c01ed4b 	bne	$r10,$r11,492(0x1ec) # 1c018288 <inst_error>
1c0180a0:	14d6c76c 	lu12i.w	$r12,439867(0x6b63b)
1c0180a4:	02a0018c 	addi.w	$r12,$r12,-2048(0x800)
1c0180a8:	1400000d 	lu12i.w	$r13,0
1c0180ac:	028001ad 	addi.w	$r13,$r13,0
1c0180b0:	1400000b 	lu12i.w	$r11,0
1c0180b4:	0280016b 	addi.w	$r11,$r11,0
1c0180b8:	0014b58a 	and	$r10,$r12,$r13
1c0180bc:	5c01cd4b 	bne	$r10,$r11,460(0x1cc) # 1c018288 <inst_error>
1c0180c0:	15ed4fac 	lu12i.w	$r12,-38275(0xf6a7d)
1c0180c4:	0284c18c 	addi.w	$r12,$r12,304(0x130)
1c0180c8:	1400000d 	lu12i.w	$r13,0
1c0180cc:	028001ad 	addi.w	$r13,$r13,0
1c0180d0:	1400000b 	lu12i.w	$r11,0
1c0180d4:	0280016b 	addi.w	$r11,$r11,0
1c0180d8:	0014b58a 	and	$r10,$r12,$r13
1c0180dc:	5c01ad4b 	bne	$r10,$r11,428(0x1ac) # 1c018288 <inst_error>
1c0180e0:	14006bac 	lu12i.w	$r12,861(0x35d)
1c0180e4:	02bdfd8c 	addi.w	$r12,$r12,-129(0xf7f)
1c0180e8:	1400000d 	lu12i.w	$r13,0
1c0180ec:	028001ad 	addi.w	$r13,$r13,0
1c0180f0:	1400000b 	lu12i.w	$r11,0
1c0180f4:	0280016b 	addi.w	$r11,$r11,0
1c0180f8:	0014b58a 	and	$r10,$r12,$r13
1c0180fc:	5c018d4b 	bne	$r10,$r11,396(0x18c) # 1c018288 <inst_error>
1c018100:	1403f0ec 	lu12i.w	$r12,8071(0x1f87)
1c018104:	02a5818c 	addi.w	$r12,$r12,-1696(0x960)
1c018108:	1400000d 	lu12i.w	$r13,0
1c01810c:	028001ad 	addi.w	$r13,$r13,0
1c018110:	1400000b 	lu12i.w	$r11,0
1c018114:	0280016b 	addi.w	$r11,$r11,0
1c018118:	0014b58a 	and	$r10,$r12,$r13
1c01811c:	5c016d4b 	bne	$r10,$r11,364(0x16c) # 1c018288 <inst_error>
1c018120:	140551ac 	lu12i.w	$r12,10893(0x2a8d)
1c018124:	02a1418c 	addi.w	$r12,$r12,-1968(0x850)
1c018128:	1400000d 	lu12i.w	$r13,0
1c01812c:	028001ad 	addi.w	$r13,$r13,0
1c018130:	1400000b 	lu12i.w	$r11,0
1c018134:	0280016b 	addi.w	$r11,$r11,0
1c018138:	0014b58a 	and	$r10,$r12,$r13
1c01813c:	5c014d4b 	bne	$r10,$r11,332(0x14c) # 1c018288 <inst_error>
1c018140:	15ff602c 	lu12i.w	$r12,-1279(0xffb01)
1c018144:	02afc18c 	addi.w	$r12,$r12,-1040(0xbf0)
1c018148:	1400000d 	lu12i.w	$r13,0
1c01814c:	028001ad 	addi.w	$r13,$r13,0
1c018150:	1400000b 	lu12i.w	$r11,0
1c018154:	0280016b 	addi.w	$r11,$r11,0
1c018158:	0014b58a 	and	$r10,$r12,$r13
1c01815c:	5c012d4b 	bne	$r10,$r11,300(0x12c) # 1c018288 <inst_error>
1c018160:	146d122c 	lu12i.w	$r12,223377(0x36891)
1c018164:	02b5a98c 	addi.w	$r12,$r12,-662(0xd6a)
1c018168:	1400000d 	lu12i.w	$r13,0
1c01816c:	028001ad 	addi.w	$r13,$r13,0
1c018170:	1400000b 	lu12i.w	$r11,0
1c018174:	0280016b 	addi.w	$r11,$r11,0
1c018178:	0014b58a 	and	$r10,$r12,$r13
1c01817c:	5c010d4b 	bne	$r10,$r11,268(0x10c) # 1c018288 <inst_error>
1c018180:	141a3e6c 	lu12i.w	$r12,53747(0xd1f3)
1c018184:	02b2f98c 	addi.w	$r12,$r12,-834(0xcbe)
1c018188:	1400000d 	lu12i.w	$r13,0
1c01818c:	028001ad 	addi.w	$r13,$r13,0
1c018190:	1400000b 	lu12i.w	$r11,0
1c018194:	0280016b 	addi.w	$r11,$r11,0
1c018198:	0014b58a 	and	$r10,$r12,$r13
1c01819c:	5c00ed4b 	bne	$r10,$r11,236(0xec) # 1c018288 <inst_error>
1c0181a0:	149c406c 	lu12i.w	$r12,320003(0x4e203)
1c0181a4:	02b1e18c 	addi.w	$r12,$r12,-904(0xc78)
1c0181a8:	1400000d 	lu12i.w	$r13,0
1c0181ac:	028001ad 	addi.w	$r13,$r13,0
1c0181b0:	1400000b 	lu12i.w	$r11,0
1c0181b4:	0280016b 	addi.w	$r11,$r11,0
1c0181b8:	0014b58a 	and	$r10,$r12,$r13
1c0181bc:	5c00cd4b 	bne	$r10,$r11,204(0xcc) # 1c018288 <inst_error>
1c0181c0:	15dfd6ac 	lu12i.w	$r12,-65867(0xefeb5)
1c0181c4:	0288a98c 	addi.w	$r12,$r12,554(0x22a)
1c0181c8:	1400000d 	lu12i.w	$r13,0
1c0181cc:	028001ad 	addi.w	$r13,$r13,0
1c0181d0:	1400000b 	lu12i.w	$r11,0
1c0181d4:	0280016b 	addi.w	$r11,$r11,0
1c0181d8:	0014b58a 	and	$r10,$r12,$r13
1c0181dc:	5c00ad4b 	bne	$r10,$r11,172(0xac) # 1c018288 <inst_error>
1c0181e0:	151fbc2c 	lu12i.w	$r12,-459295(0x8fde1)
1c0181e4:	0285b98c 	addi.w	$r12,$r12,366(0x16e)
1c0181e8:	1400000d 	lu12i.w	$r13,0
1c0181ec:	028001ad 	addi.w	$r13,$r13,0
1c0181f0:	1400000b 	lu12i.w	$r11,0
1c0181f4:	0280016b 	addi.w	$r11,$r11,0
1c0181f8:	0014b58a 	and	$r10,$r12,$r13
1c0181fc:	5c008d4b 	bne	$r10,$r11,140(0x8c) # 1c018288 <inst_error>
1c018200:	145d69ec 	lu12i.w	$r12,191311(0x2eb4f)
1c018204:	029d618c 	addi.w	$r12,$r12,1880(0x758)
1c018208:	1400000d 	lu12i.w	$r13,0
1c01820c:	028001ad 	addi.w	$r13,$r13,0
1c018210:	1400000b 	lu12i.w	$r11,0
1c018214:	0280016b 	addi.w	$r11,$r11,0
1c018218:	0014b58a 	and	$r10,$r12,$r13
1c01821c:	5c006d4b 	bne	$r10,$r11,108(0x6c) # 1c018288 <inst_error>
1c018220:	1400000c 	lu12i.w	$r12,0
1c018224:	0280018c 	addi.w	$r12,$r12,0
1c018228:	144768cd 	lu12i.w	$r13,146246(0x23b46)
1c01822c:	02b8b1ad 	addi.w	$r13,$r13,-468(0xe2c)
1c018230:	1400000b 	lu12i.w	$r11,0
1c018234:	0280016b 	addi.w	$r11,$r11,0
1c018238:	0014b58a 	and	$r10,$r12,$r13
1c01823c:	5c004d4b 	bne	$r10,$r11,76(0x4c) # 1c018288 <inst_error>
1c018240:	1400000c 	lu12i.w	$r12,0
1c018244:	0280018c 	addi.w	$r12,$r12,0
1c018248:	1429726d 	lu12i.w	$r13,84883(0x14b93)
1c01824c:	02adb1ad 	addi.w	$r13,$r13,-1172(0xb6c)
1c018250:	1400000b 	lu12i.w	$r11,0
1c018254:	0280016b 	addi.w	$r11,$r11,0
1c018258:	0014b58a 	and	$r10,$r12,$r13
1c01825c:	5c002d4b 	bne	$r10,$r11,44(0x2c) # 1c018288 <inst_error>
1c018260:	1400000c 	lu12i.w	$r12,0
1c018264:	0280018c 	addi.w	$r12,$r12,0
1c018268:	1400000d 	lu12i.w	$r13,0
1c01826c:	028001ad 	addi.w	$r13,$r13,0
1c018270:	1400000b 	lu12i.w	$r11,0
1c018274:	0280016b 	addi.w	$r11,$r11,0
1c018278:	0014b58a 	and	$r10,$r12,$r13
1c01827c:	5c000d4b 	bne	$r10,$r11,12(0xc) # 1c018288 <inst_error>
1c018280:	5c000b20 	bne	$r25,$r0,8(0x8) # 1c018288 <inst_error>
1c018284:	0280075a 	addi.w	$r26,$r26,1(0x1)

1c018288 <inst_error>:
1c018288:	0040e2ed 	slli.w	$r13,$r23,0x18
1c01828c:	001569ac 	or	$r12,$r13,$r26
1c018290:	2980030c 	st.w	$r12,$r24,0
1c018294:	4c000020 	jirl	$r0,$r1,0

1c018298 <n4_sub_w_test>:
n4_sub_w_test():
1c018298:	028006f7 	addi.w	$r23,$r23,1(0x1)
1c01829c:	00150019 	move	$r25,$r0
1c0182a0:	15adf80c 	lu12i.w	$r12,-168000(0xd6fc0)
1c0182a4:	0296118c 	addi.w	$r12,$r12,1412(0x584)
1c0182a8:	14bf2ecd 	lu12i.w	$r13,391542(0x5f976)
1c0182ac:	0296a1ad 	addi.w	$r13,$r13,1448(0x5a8)
1c0182b0:	14eec94b 	lu12i.w	$r11,489034(0x7764a)
1c0182b4:	02bf716b 	addi.w	$r11,$r11,-36(0xfdc)
1c0182b8:	0011358a 	sub.w	$r10,$r12,$r13
1c0182bc:	5c0acd4b 	bne	$r10,$r11,2764(0xacc) # 1c018d88 <inst_error>
1c0182c0:	157f392c 	lu12i.w	$r12,-263735(0xbf9c9)
1c0182c4:	0297098c 	addi.w	$r12,$r12,1474(0x5c2)
1c0182c8:	1466d12d 	lu12i.w	$r13,210569(0x33689)
1c0182cc:	02a439ad 	addi.w	$r13,$r13,-1778(0x90e)
1c0182d0:	1518682b 	lu12i.w	$r11,-474303(0x8c341)
1c0182d4:	02b2d16b 	addi.w	$r11,$r11,-844(0xcb4)
1c0182d8:	0011358a 	sub.w	$r10,$r12,$r13
1c0182dc:	5c0aad4b 	bne	$r10,$r11,2732(0xaac) # 1c018d88 <inst_error>
1c0182e0:	15b4cf6c 	lu12i.w	$r12,-153989(0xda67b)
1c0182e4:	02a2218c 	addi.w	$r12,$r12,-1912(0x888)
1c0182e8:	154e4f8d 	lu12i.w	$r13,-363908(0xa727c)
1c0182ec:	02a0c1ad 	addi.w	$r13,$r13,-2000(0x830)
1c0182f0:	14667feb 	lu12i.w	$r11,209919(0x333ff)
1c0182f4:	0281616b 	addi.w	$r11,$r11,88(0x58)
1c0182f8:	0011358a 	sub.w	$r10,$r12,$r13
1c0182fc:	5c0a8d4b 	bne	$r10,$r11,2700(0xa8c) # 1c018d88 <inst_error>
1c018300:	14470b2c 	lu12i.w	$r12,145497(0x23859)
1c018304:	02a0218c 	addi.w	$r12,$r12,-2040(0x808)
1c018308:	14caf54d 	lu12i.w	$r13,415658(0x657aa)
1c01830c:	02a2f1ad 	addi.w	$r13,$r13,-1860(0x8bc)
1c018310:	157c15eb 	lu12i.w	$r11,-270161(0xbe0af)
1c018314:	02bd316b 	addi.w	$r11,$r11,-180(0xf4c)
1c018318:	0011358a 	sub.w	$r10,$r12,$r13
1c01831c:	5c0a6d4b 	bne	$r10,$r11,2668(0xa6c) # 1c018d88 <inst_error>
1c018320:	140815cc 	lu12i.w	$r12,16558(0x40ae)
1c018324:	0287c18c 	addi.w	$r12,$r12,496(0x1f0)
1c018328:	149dfe2d 	lu12i.w	$r13,323569(0x4eff1)
1c01832c:	02bfa1ad 	addi.w	$r13,$r13,-24(0xfe8)
1c018330:	156a17ab 	lu12i.w	$r11,-307011(0xb50bd)
1c018334:	0288216b 	addi.w	$r11,$r11,520(0x208)
1c018338:	0011358a 	sub.w	$r10,$r12,$r13
1c01833c:	5c0a4d4b 	bne	$r10,$r11,2636(0xa4c) # 1c018d88 <inst_error>
1c018340:	148b93ec 	lu12i.w	$r12,285855(0x45c9f)
1c018344:	02a5a18c 	addi.w	$r12,$r12,-1688(0x968)
1c018348:	1575d9ad 	lu12i.w	$r13,-282931(0xbaecd)
1c01834c:	02a861ad 	addi.w	$r13,$r13,-1512(0xa18)
1c018350:	1515ba4b 	lu12i.w	$r11,-479790(0x8add2)
1c018354:	02bd416b 	addi.w	$r11,$r11,-176(0xf50)
1c018358:	0011358a 	sub.w	$r10,$r12,$r13
1c01835c:	5c0a2d4b 	bne	$r10,$r11,2604(0xa2c) # 1c018d88 <inst_error>
1c018360:	14a837ac 	lu12i.w	$r12,344509(0x541bd)
1c018364:	02b9b18c 	addi.w	$r12,$r12,-404(0xe6c)
1c018368:	15c7dd6d 	lu12i.w	$r13,-114965(0xe3eeb)
1c01836c:	028061ad 	addi.w	$r13,$r13,24(0x18)
1c018370:	14e05a4b 	lu12i.w	$r11,459474(0x702d2)
1c018374:	02b9516b 	addi.w	$r11,$r11,-428(0xe54)
1c018378:	0011358a 	sub.w	$r10,$r12,$r13
1c01837c:	5c0a0d4b 	bne	$r10,$r11,2572(0xa0c) # 1c018d88 <inst_error>
1c018380:	140504ac 	lu12i.w	$r12,10277(0x2825)
1c018384:	0281a18c 	addi.w	$r12,$r12,104(0x68)
1c018388:	1543bd2d 	lu12i.w	$r13,-385559(0xa1de9)
1c01838c:	029ce9ad 	addi.w	$r13,$r13,1850(0x73a)
1c018390:	14c1478b 	lu12i.w	$r11,395836(0x60a3c)
1c018394:	02a4b96b 	addi.w	$r11,$r11,-1746(0x92e)
1c018398:	0011358a 	sub.w	$r10,$r12,$r13
1c01839c:	5c09ed4b 	bne	$r10,$r11,2540(0x9ec) # 1c018d88 <inst_error>
1c0183a0:	15f1822c 	lu12i.w	$r12,-29679(0xf8c11)
1c0183a4:	028f018c 	addi.w	$r12,$r12,960(0x3c0)
1c0183a8:	140a59cd 	lu12i.w	$r13,21198(0x52ce)
1c0183ac:	029141ad 	addi.w	$r13,$r13,1104(0x450)
1c0183b0:	15e7286b 	lu12i.w	$r11,-50877(0xf3943)
1c0183b4:	02bdc16b 	addi.w	$r11,$r11,-144(0xf70)
1c0183b8:	0011358a 	sub.w	$r10,$r12,$r13
1c0183bc:	5c09cd4b 	bne	$r10,$r11,2508(0x9cc) # 1c018d88 <inst_error>
1c0183c0:	152d0d0c 	lu12i.w	$r12,-432024(0x96868)
1c0183c4:	029e498c 	addi.w	$r12,$r12,1938(0x792)
1c0183c8:	15a2120d 	lu12i.w	$r13,-192368(0xd1090)
1c0183cc:	029471ad 	addi.w	$r13,$r13,1308(0x51c)
1c0183d0:	158afb0b 	lu12i.w	$r11,-239656(0xc57d8)
1c0183d4:	0289d96b 	addi.w	$r11,$r11,630(0x276)
1c0183d8:	0011358a 	sub.w	$r10,$r12,$r13
1c0183dc:	5c09ad4b 	bne	$r10,$r11,2476(0x9ac) # 1c018d88 <inst_error>
1c0183e0:	15ea78ec 	lu12i.w	$r12,-44089(0xf53c7)
1c0183e4:	02b5a18c 	addi.w	$r12,$r12,-664(0xd68)
1c0183e8:	158388cd 	lu12i.w	$r13,-254906(0xc1c46)
1c0183ec:	029621ad 	addi.w	$r13,$r13,1416(0x588)
1c0183f0:	1466f00b 	lu12i.w	$r11,210816(0x33780)
1c0183f4:	029f816b 	addi.w	$r11,$r11,2016(0x7e0)
1c0183f8:	0011358a 	sub.w	$r10,$r12,$r13
1c0183fc:	5c098d4b 	bne	$r10,$r11,2444(0x98c) # 1c018d88 <inst_error>
1c018400:	142bf36c 	lu12i.w	$r12,90011(0x15f9b)
1c018404:	029e418c 	addi.w	$r12,$r12,1936(0x790)
1c018408:	15a5c42d 	lu12i.w	$r13,-184799(0xd2e21)
1c01840c:	02b49dad 	addi.w	$r13,$r13,-729(0xd27)
1c018410:	14862f6b 	lu12i.w	$r11,274811(0x4317b)
1c018414:	02a9a56b 	addi.w	$r11,$r11,-1431(0xa69)
1c018418:	0011358a 	sub.w	$r10,$r12,$r13
1c01841c:	5c096d4b 	bne	$r10,$r11,2412(0x96c) # 1c018d88 <inst_error>
1c018420:	15bb148c 	lu12i.w	$r12,-141148(0xdd8a4)
1c018424:	02888d8c 	addi.w	$r12,$r12,547(0x223)
1c018428:	146a1a2d 	lu12i.w	$r13,217297(0x350d1)
1c01842c:	029701ad 	addi.w	$r13,$r13,1472(0x5c0)
1c018430:	1550fa6b 	lu12i.w	$r11,-358445(0xa87d3)
1c018434:	02b18d6b 	addi.w	$r11,$r11,-925(0xc63)
1c018438:	0011358a 	sub.w	$r10,$r12,$r13
1c01843c:	5c094d4b 	bne	$r10,$r11,2380(0x94c) # 1c018d88 <inst_error>
1c018440:	151e638c 	lu12i.w	$r12,-462052(0x8f31c)
1c018444:	028a198c 	addi.w	$r12,$r12,646(0x286)
1c018448:	1459d5cd 	lu12i.w	$r13,183982(0x2ceae)
1c01844c:	028941ad 	addi.w	$r13,$r13,592(0x250)
1c018450:	14c48dcb 	lu12i.w	$r11,402542(0x6246e)
1c018454:	0280d96b 	addi.w	$r11,$r11,54(0x36)
1c018458:	0011358a 	sub.w	$r10,$r12,$r13
1c01845c:	5c092d4b 	bne	$r10,$r11,2348(0x92c) # 1c018d88 <inst_error>
1c018460:	14eb906c 	lu12i.w	$r12,482435(0x75c83)
1c018464:	0298018c 	addi.w	$r12,$r12,1536(0x600)
1c018468:	1465f28d 	lu12i.w	$r13,208788(0x32f94)
1c01846c:	028951ad 	addi.w	$r13,$r13,596(0x254)
1c018470:	14859deb 	lu12i.w	$r11,273647(0x42cef)
1c018474:	028eb16b 	addi.w	$r11,$r11,940(0x3ac)
1c018478:	0011358a 	sub.w	$r10,$r12,$r13
1c01847c:	5c090d4b 	bne	$r10,$r11,2316(0x90c) # 1c018d88 <inst_error>
1c018480:	14846e4c 	lu12i.w	$r12,271218(0x42372)
1c018484:	028f118c 	addi.w	$r12,$r12,964(0x3c4)
1c018488:	14f542cd 	lu12i.w	$r13,502294(0x7aa16)
1c01848c:	029741ad 	addi.w	$r13,$r13,1488(0x5d0)
1c018490:	158f2b8b 	lu12i.w	$r11,-231076(0xc795c)
1c018494:	02b7d16b 	addi.w	$r11,$r11,-524(0xdf4)
1c018498:	0011358a 	sub.w	$r10,$r12,$r13
1c01849c:	5c08ed4b 	bne	$r10,$r11,2284(0x8ec) # 1c018d88 <inst_error>
1c0184a0:	1465caec 	lu12i.w	$r12,208471(0x32e57)
1c0184a4:	0287c18c 	addi.w	$r12,$r12,496(0x1f0)
1c0184a8:	1575d98d 	lu12i.w	$r13,-282932(0xbaecc)
1c0184ac:	0286b1ad 	addi.w	$r13,$r13,428(0x1ac)
1c0184b0:	14eff16b 	lu12i.w	$r11,491403(0x77f8b)
1c0184b4:	0281116b 	addi.w	$r11,$r11,68(0x44)
1c0184b8:	0011358a 	sub.w	$r10,$r12,$r13
1c0184bc:	5c08cd4b 	bne	$r10,$r11,2252(0x8cc) # 1c018d88 <inst_error>
1c0184c0:	158ba0cc 	lu12i.w	$r12,-238330(0xc5d06)
1c0184c4:	0298018c 	addi.w	$r12,$r12,1536(0x600)
1c0184c8:	1522c24d 	lu12i.w	$r13,-453102(0x91612)
1c0184cc:	02baa1ad 	addi.w	$r13,$r13,-344(0xea8)
1c0184d0:	1468de8b 	lu12i.w	$r11,214772(0x346f4)
1c0184d4:	029d616b 	addi.w	$r11,$r11,1880(0x758)
1c0184d8:	0011358a 	sub.w	$r10,$r12,$r13
1c0184dc:	5c08ad4b 	bne	$r10,$r11,2220(0x8ac) # 1c018d88 <inst_error>
1c0184e0:	14018c0c 	lu12i.w	$r12,3168(0xc60)
1c0184e4:	0290c98c 	addi.w	$r12,$r12,1074(0x432)
1c0184e8:	153164ad 	lu12i.w	$r13,-423131(0x98b25)
1c0184ec:	028d59ad 	addi.w	$r13,$r13,854(0x356)
1c0184f0:	14d0276b 	lu12i.w	$r11,426299(0x6813b)
1c0184f4:	0283716b 	addi.w	$r11,$r11,220(0xdc)
1c0184f8:	0011358a 	sub.w	$r10,$r12,$r13
1c0184fc:	5c088d4b 	bne	$r10,$r11,2188(0x88c) # 1c018d88 <inst_error>
1c018500:	1431424c 	lu12i.w	$r12,100882(0x18a12)
1c018504:	02be858c 	addi.w	$r12,$r12,-95(0xfa1)
1c018508:	15bbd22d 	lu12i.w	$r13,-139631(0xdde91)
1c01850c:	029f91ad 	addi.w	$r13,$r13,2020(0x7e4)
1c018510:	1475700b 	lu12i.w	$r11,240512(0x3ab80)
1c018514:	029ef56b 	addi.w	$r11,$r11,1981(0x7bd)
1c018518:	0011358a 	sub.w	$r10,$r12,$r13
1c01851c:	5c086d4b 	bne	$r10,$r11,2156(0x86c) # 1c018d88 <inst_error>
1c018520:	158a00cc 	lu12i.w	$r12,-241658(0xc5006)
1c018524:	02bf218c 	addi.w	$r12,$r12,-56(0xfc8)
1c018528:	15c2658d 	lu12i.w	$r13,-126164(0xe132c)
1c01852c:	029555ad 	addi.w	$r13,$r13,1365(0x555)
1c018530:	15c79b4b 	lu12i.w	$r11,-115494(0xe3cda)
1c018534:	02a9cd6b 	addi.w	$r11,$r11,-1421(0xa73)
1c018538:	0011358a 	sub.w	$r10,$r12,$r13
1c01853c:	5c084d4b 	bne	$r10,$r11,2124(0x84c) # 1c018d88 <inst_error>
1c018540:	1566e32c 	lu12i.w	$r12,-313575(0xb3719)
1c018544:	0280018c 	addi.w	$r12,$r12,0
1c018548:	146d332d 	lu12i.w	$r13,223641(0x36999)
1c01854c:	02968dad 	addi.w	$r13,$r13,1443(0x5a3)
1c018550:	14f9b00b 	lu12i.w	$r11,511360(0x7cd80)
1c018554:	02a9756b 	addi.w	$r11,$r11,-1443(0xa5d)
1c018558:	0011358a 	sub.w	$r10,$r12,$r13
1c01855c:	5c082d4b 	bne	$r10,$r11,2092(0x82c) # 1c018d88 <inst_error>
1c018560:	1586698c 	lu12i.w	$r12,-249012(0xc334c)
1c018564:	0281b18c 	addi.w	$r12,$r12,108(0x6c)
1c018568:	152bd0ad 	lu12i.w	$r13,-434555(0x95e85)
1c01856c:	02a5e1ad 	addi.w	$r13,$r13,-1672(0x978)
1c018570:	145a98eb 	lu12i.w	$r11,185543(0x2d4c7)
1c018574:	029bd16b 	addi.w	$r11,$r11,1780(0x6f4)
1c018578:	0011358a 	sub.w	$r10,$r12,$r13
1c01857c:	5c080d4b 	bne	$r10,$r11,2060(0x80c) # 1c018d88 <inst_error>
1c018580:	15d7be0c 	lu12i.w	$r12,-82448(0xebdf0)
1c018584:	0299418c 	addi.w	$r12,$r12,1616(0x650)
1c018588:	15ec4a2d 	lu12i.w	$r13,-40367(0xf6251)
1c01858c:	029c01ad 	addi.w	$r13,$r13,1792(0x700)
1c018590:	15eb73eb 	lu12i.w	$r11,-42081(0xf5b9f)
1c018594:	02bd416b 	addi.w	$r11,$r11,-176(0xf50)
1c018598:	0011358a 	sub.w	$r10,$r12,$r13
1c01859c:	5c07ed4b 	bne	$r10,$r11,2028(0x7ec) # 1c018d88 <inst_error>
1c0185a0:	1506874c 	lu12i.w	$r12,-510918(0x8343a)
1c0185a4:	0297418c 	addi.w	$r12,$r12,1488(0x5d0)
1c0185a8:	14b50fad 	lu12i.w	$r13,370813(0x5a87d)
1c0185ac:	02a111ad 	addi.w	$r13,$r13,-1980(0x844)
1c0185b0:	145177cb 	lu12i.w	$r11,166846(0x28bbe)
1c0185b4:	02b6316b 	addi.w	$r11,$r11,-628(0xd8c)
1c0185b8:	0011358a 	sub.w	$r10,$r12,$r13
1c0185bc:	5c07cd4b 	bne	$r10,$r11,1996(0x7cc) # 1c018d88 <inst_error>
1c0185c0:	14d6a7ec 	lu12i.w	$r12,439615(0x6b53f)
1c0185c4:	02b0018c 	addi.w	$r12,$r12,-1024(0xc00)
1c0185c8:	141f1a6d 	lu12i.w	$r13,63699(0xf8d3)
1c0185cc:	029e4dad 	addi.w	$r13,$r13,1939(0x793)
1c0185d0:	14b78d6b 	lu12i.w	$r11,375915(0x5bc6b)
1c0185d4:	0291b56b 	addi.w	$r11,$r11,1133(0x46d)
1c0185d8:	0011358a 	sub.w	$r10,$r12,$r13
1c0185dc:	5c07ad4b 	bne	$r10,$r11,1964(0x7ac) # 1c018d88 <inst_error>
1c0185e0:	155fd68c 	lu12i.w	$r12,-328012(0xafeb4)
1c0185e4:	02a3098c 	addi.w	$r12,$r12,-1854(0x8c2)
1c0185e8:	1495b32d 	lu12i.w	$r13,306585(0x4ad99)
1c0185ec:	0281b1ad 	addi.w	$r13,$r13,108(0x6c)
1c0185f0:	14ca236b 	lu12i.w	$r11,413979(0x6511b)
1c0185f4:	02a1596b 	addi.w	$r11,$r11,-1962(0x856)
1c0185f8:	0011358a 	sub.w	$r10,$r12,$r13
1c0185fc:	5c078d4b 	bne	$r10,$r11,1932(0x78c) # 1c018d88 <inst_error>
1c018600:	15acee6c 	lu12i.w	$r12,-170125(0xd6773)
1c018604:	02b1b18c 	addi.w	$r12,$r12,-916(0xc6c)
1c018608:	15439e4d 	lu12i.w	$r13,-385806(0xa1cf2)
1c01860c:	029101ad 	addi.w	$r13,$r13,1088(0x440)
1c018610:	1469502b 	lu12i.w	$r11,215681(0x34a81)
1c018614:	02a0b16b 	addi.w	$r11,$r11,-2004(0x82c)
1c018618:	0011358a 	sub.w	$r10,$r12,$r13
1c01861c:	5c076d4b 	bne	$r10,$r11,1900(0x76c) # 1c018d88 <inst_error>
1c018620:	15ab276c 	lu12i.w	$r12,-173765(0xd593b)
1c018624:	02ba518c 	addi.w	$r12,$r12,-364(0xe94)
1c018628:	151c178d 	lu12i.w	$r13,-466756(0x8e0bc)
1c01862c:	029c11ad 	addi.w	$r13,$r13,1796(0x704)
1c018630:	148f0fcb 	lu12i.w	$r11,292990(0x4787e)
1c018634:	029e416b 	addi.w	$r11,$r11,1936(0x790)
1c018638:	0011358a 	sub.w	$r10,$r12,$r13
1c01863c:	5c074d4b 	bne	$r10,$r11,1868(0x74c) # 1c018d88 <inst_error>
1c018640:	14fc854c 	lu12i.w	$r12,517162(0x7e42a)
1c018644:	02b4218c 	addi.w	$r12,$r12,-760(0xd08)
1c018648:	14663bad 	lu12i.w	$r13,209373(0x331dd)
1c01864c:	028001ad 	addi.w	$r13,$r13,0
1c018650:	149649ab 	lu12i.w	$r11,307789(0x4b24d)
1c018654:	02b4216b 	addi.w	$r11,$r11,-760(0xd08)
1c018658:	0011358a 	sub.w	$r10,$r12,$r13
1c01865c:	5c072d4b 	bne	$r10,$r11,1836(0x72c) # 1c018d88 <inst_error>
1c018660:	141f020c 	lu12i.w	$r12,63504(0xf810)
1c018664:	02ae498c 	addi.w	$r12,$r12,-1134(0xb92)
1c018668:	15d268ad 	lu12i.w	$r13,-93371(0xe9345)
1c01866c:	02b981ad 	addi.w	$r13,$r13,-416(0xe60)
1c018670:	144c996b 	lu12i.w	$r11,156875(0x264cb)
1c018674:	02b4c96b 	addi.w	$r11,$r11,-718(0xd32)
1c018678:	0011358a 	sub.w	$r10,$r12,$r13
1c01867c:	5c070d4b 	bne	$r10,$r11,1804(0x70c) # 1c018d88 <inst_error>
1c018680:	15d0ebcc 	lu12i.w	$r12,-96418(0xe875e)
1c018684:	0288d18c 	addi.w	$r12,$r12,564(0x234)
1c018688:	141a3d2d 	lu12i.w	$r13,53737(0xd1e9)
1c01868c:	02a171ad 	addi.w	$r13,$r13,-1956(0x85c)
1c018690:	15b6aecb 	lu12i.w	$r11,-150154(0xdb576)
1c018694:	02a7616b 	addi.w	$r11,$r11,-1576(0x9d8)
1c018698:	0011358a 	sub.w	$r10,$r12,$r13
1c01869c:	5c06ed4b 	bne	$r10,$r11,1772(0x6ec) # 1c018d88 <inst_error>
1c0186a0:	14debf2c 	lu12i.w	$r12,456185(0x6f5f9)
1c0186a4:	02b75d8c 	addi.w	$r12,$r12,-553(0xdd7)
1c0186a8:	14cb262d 	lu12i.w	$r13,416049(0x65931)
1c0186ac:	0295e1ad 	addi.w	$r13,$r13,1400(0x578)
1c0186b0:	1413990b 	lu12i.w	$r11,40136(0x9cc8)
1c0186b4:	02a17d6b 	addi.w	$r11,$r11,-1953(0x85f)
1c0186b8:	0011358a 	sub.w	$r10,$r12,$r13
1c0186bc:	5c06cd4b 	bne	$r10,$r11,1740(0x6cc) # 1c018d88 <inst_error>
1c0186c0:	14eceb8c 	lu12i.w	$r12,485212(0x7675c)
1c0186c4:	0290a18c 	addi.w	$r12,$r12,1064(0x428)
1c0186c8:	15217c0d 	lu12i.w	$r13,-455712(0x90be0)
1c0186cc:	02aec1ad 	addi.w	$r13,$r13,-1104(0xbb0)
1c0186d0:	15cb6fab 	lu12i.w	$r11,-107651(0xe5b7d)
1c0186d4:	02a1e16b 	addi.w	$r11,$r11,-1928(0x878)
1c0186d8:	0011358a 	sub.w	$r10,$r12,$r13
1c0186dc:	5c06ad4b 	bne	$r10,$r11,1708(0x6ac) # 1c018d88 <inst_error>
1c0186e0:	15522b8c 	lu12i.w	$r12,-356004(0xa915c)
1c0186e4:	02a8bd8c 	addi.w	$r12,$r12,-1489(0xa2f)
1c0186e8:	14122f8d 	lu12i.w	$r13,37244(0x917c)
1c0186ec:	028021ad 	addi.w	$r13,$r13,8(0x8)
1c0186f0:	153ffc0b 	lu12i.w	$r11,-393248(0x9ffe0)
1c0186f4:	02a89d6b 	addi.w	$r11,$r11,-1497(0xa27)
1c0186f8:	0011358a 	sub.w	$r10,$r12,$r13
1c0186fc:	5c068d4b 	bne	$r10,$r11,1676(0x68c) # 1c018d88 <inst_error>
1c018700:	152329cc 	lu12i.w	$r12,-452274(0x9194e)
1c018704:	02bb618c 	addi.w	$r12,$r12,-296(0xed8)
1c018708:	14f994cd 	lu12i.w	$r13,511142(0x7cca6)
1c01870c:	0280f1ad 	addi.w	$r13,$r13,60(0x3c)
1c018710:	1429950b 	lu12i.w	$r11,85160(0x14ca8)
1c018714:	02ba716b 	addi.w	$r11,$r11,-356(0xe9c)
1c018718:	0011358a 	sub.w	$r10,$r12,$r13
1c01871c:	5c066d4b 	bne	$r10,$r11,1644(0x66c) # 1c018d88 <inst_error>
1c018720:	1432688c 	lu12i.w	$r12,103236(0x19344)
1c018724:	028a018c 	addi.w	$r12,$r12,640(0x280)
1c018728:	15243b6d 	lu12i.w	$r13,-450085(0x921db)
1c01872c:	029349ad 	addi.w	$r13,$r13,1234(0x4d2)
1c018730:	150e2d2b 	lu12i.w	$r11,-495255(0x87169)
1c018734:	02b6b96b 	addi.w	$r11,$r11,-594(0xdae)
1c018738:	0011358a 	sub.w	$r10,$r12,$r13
1c01873c:	5c064d4b 	bne	$r10,$r11,1612(0x64c) # 1c018d88 <inst_error>
1c018740:	1562f86c 	lu12i.w	$r12,-321597(0xb17c3)
1c018744:	028fb18c 	addi.w	$r12,$r12,1004(0x3ec)
1c018748:	1531cfed 	lu12i.w	$r13,-422273(0x98e7f)
1c01874c:	028721ad 	addi.w	$r13,$r13,456(0x1c8)
1c018750:	1431288b 	lu12i.w	$r11,100676(0x18944)
1c018754:	0288916b 	addi.w	$r11,$r11,548(0x224)
1c018758:	0011358a 	sub.w	$r10,$r12,$r13
1c01875c:	5c062d4b 	bne	$r10,$r11,1580(0x62c) # 1c018d88 <inst_error>
1c018760:	15e0bbec 	lu12i.w	$r12,-64033(0xf05df)
1c018764:	02b1818c 	addi.w	$r12,$r12,-928(0xc60)
1c018768:	15a7a0cd 	lu12i.w	$r13,-180986(0xd3d06)
1c01876c:	02ac01ad 	addi.w	$r13,$r13,-1280(0xb00)
1c018770:	14391b2b 	lu12i.w	$r11,116953(0x1c8d9)
1c018774:	0285816b 	addi.w	$r11,$r11,352(0x160)
1c018778:	0011358a 	sub.w	$r10,$r12,$r13
1c01877c:	5c060d4b 	bne	$r10,$r11,1548(0x60c) # 1c018d88 <inst_error>
1c018780:	1517c5ec 	lu12i.w	$r12,-475601(0x8be2f)
1c018784:	02b1398c 	addi.w	$r12,$r12,-946(0xc4e)
1c018788:	145e3d2d 	lu12i.w	$r13,193001(0x2f1e9)
1c01878c:	02bfd9ad 	addi.w	$r13,$r13,-10(0xff6)
1c018790:	14b988cb 	lu12i.w	$r11,379974(0x5cc46)
1c018794:	02b1616b 	addi.w	$r11,$r11,-936(0xc58)
1c018798:	0011358a 	sub.w	$r10,$r12,$r13
1c01879c:	5c05ed4b 	bne	$r10,$r11,1516(0x5ec) # 1c018d88 <inst_error>
1c0187a0:	14bcd3cc 	lu12i.w	$r12,386718(0x5e69e)
1c0187a4:	028a018c 	addi.w	$r12,$r12,640(0x280)
1c0187a8:	14d6396d 	lu12i.w	$r13,438731(0x6b1cb)
1c0187ac:	028d61ad 	addi.w	$r13,$r13,856(0x358)
1c0187b0:	15e69a6b 	lu12i.w	$r11,-52013(0xf34d3)
1c0187b4:	02bca16b 	addi.w	$r11,$r11,-216(0xf28)
1c0187b8:	0011358a 	sub.w	$r10,$r12,$r13
1c0187bc:	5c05cd4b 	bne	$r10,$r11,1484(0x5cc) # 1c018d88 <inst_error>
1c0187c0:	144769cc 	lu12i.w	$r12,146254(0x23b4e)
1c0187c4:	0298f98c 	addi.w	$r12,$r12,1598(0x63e)
1c0187c8:	1403964d 	lu12i.w	$r13,7346(0x1cb2)
1c0187cc:	029ea1ad 	addi.w	$r13,$r13,1960(0x7a8)
1c0187d0:	1443d38b 	lu12i.w	$r11,138908(0x21e9c)
1c0187d4:	02ba596b 	addi.w	$r11,$r11,-362(0xe96)
1c0187d8:	0011358a 	sub.w	$r10,$r12,$r13
1c0187dc:	5c05ad4b 	bne	$r10,$r11,1452(0x5ac) # 1c018d88 <inst_error>
1c0187e0:	14e745ec 	lu12i.w	$r12,473647(0x73a2f)
1c0187e4:	0294918c 	addi.w	$r12,$r12,1316(0x524)
1c0187e8:	142684ad 	lu12i.w	$r13,78885(0x13425)
1c0187ec:	02b3f5ad 	addi.w	$r13,$r13,-771(0xcfd)
1c0187f0:	14c0c16b 	lu12i.w	$r11,394763(0x6060b)
1c0187f4:	02a09d6b 	addi.w	$r11,$r11,-2009(0x827)
1c0187f8:	0011358a 	sub.w	$r10,$r12,$r13
1c0187fc:	5c058d4b 	bne	$r10,$r11,1420(0x58c) # 1c018d88 <inst_error>
1c018800:	155e5bcc 	lu12i.w	$r12,-331042(0xaf2de)
1c018804:	02af418c 	addi.w	$r12,$r12,-1072(0xbd0)
1c018808:	154f914d 	lu12i.w	$r13,-361334(0xa7c8a)
1c01880c:	029621ad 	addi.w	$r13,$r13,1416(0x588)
1c018810:	140eca6b 	lu12i.w	$r11,30291(0x7653)
1c018814:	0299216b 	addi.w	$r11,$r11,1608(0x648)
1c018818:	0011358a 	sub.w	$r10,$r12,$r13
1c01881c:	5c056d4b 	bne	$r10,$r11,1388(0x56c) # 1c018d88 <inst_error>
1c018820:	148179ac 	lu12i.w	$r12,265165(0x40bcd)
1c018824:	02ac918c 	addi.w	$r12,$r12,-1244(0xb24)
1c018828:	15aa3d4d 	lu12i.w	$r13,-175638(0xd51ea)
1c01882c:	0283a1ad 	addi.w	$r13,$r13,232(0xe8)
1c018830:	14d73c6b 	lu12i.w	$r11,440803(0x6b9e3)
1c018834:	02a8f16b 	addi.w	$r11,$r11,-1476(0xa3c)
1c018838:	0011358a 	sub.w	$r10,$r12,$r13
1c01883c:	5c054d4b 	bne	$r10,$r11,1356(0x54c) # 1c018d88 <inst_error>
1c018840:	15aabe4c 	lu12i.w	$r12,-174606(0xd55f2)
1c018844:	02b5618c 	addi.w	$r12,$r12,-680(0xd58)
1c018848:	15d797ed 	lu12i.w	$r13,-82753(0xebcbf)
1c01884c:	028361ad 	addi.w	$r13,$r13,216(0xd8)
1c018850:	15d3266b 	lu12i.w	$r11,-91853(0xe9933)
1c018854:	02b2016b 	addi.w	$r11,$r11,-896(0xc80)
1c018858:	0011358a 	sub.w	$r10,$r12,$r13
1c01885c:	5c052d4b 	bne	$r10,$r11,1324(0x52c) # 1c018d88 <inst_error>
1c018860:	1480010c 	lu12i.w	$r12,262152(0x40008)
1c018864:	02b4518c 	addi.w	$r12,$r12,-748(0xd14)
1c018868:	14e7680d 	lu12i.w	$r13,473920(0x73b40)
1c01886c:	028889ad 	addi.w	$r13,$r13,546(0x222)
1c018870:	1598990b 	lu12i.w	$r11,-211768(0xcc4c8)
1c018874:	02abc96b 	addi.w	$r11,$r11,-1294(0xaf2)
1c018878:	0011358a 	sub.w	$r10,$r12,$r13
1c01887c:	5c050d4b 	bne	$r10,$r11,1292(0x50c) # 1c018d88 <inst_error>
1c018880:	14991a6c 	lu12i.w	$r12,313555(0x4c8d3)
1c018884:	028a818c 	addi.w	$r12,$r12,672(0x2a0)
1c018888:	15853e2d 	lu12i.w	$r13,-251407(0xc29f1)
1c01888c:	0284b1ad 	addi.w	$r13,$r13,300(0x12c)
1c018890:	1513dc4b 	lu12i.w	$r11,-483614(0x89ee2)
1c018894:	0285d16b 	addi.w	$r11,$r11,372(0x174)
1c018898:	0011358a 	sub.w	$r10,$r12,$r13
1c01889c:	5c04ed4b 	bne	$r10,$r11,1260(0x4ec) # 1c018d88 <inst_error>
1c0188a0:	14a321cc 	lu12i.w	$r12,334094(0x5190e)
1c0188a4:	029a298c 	addi.w	$r12,$r12,1674(0x68a)
1c0188a8:	14f92d6d 	lu12i.w	$r13,510315(0x7c96b)
1c0188ac:	0284f1ad 	addi.w	$r13,$r13,316(0x13c)
1c0188b0:	15a9f46b 	lu12i.w	$r11,-176221(0xd4fa3)
1c0188b4:	0295396b 	addi.w	$r11,$r11,1358(0x54e)
1c0188b8:	0011358a 	sub.w	$r10,$r12,$r13
1c0188bc:	5c04cd4b 	bne	$r10,$r11,1228(0x4cc) # 1c018d88 <inst_error>
1c0188c0:	14d8cb2c 	lu12i.w	$r12,443993(0x6c659)
1c0188c4:	0280d18c 	addi.w	$r12,$r12,52(0x34)
1c0188c8:	155dc16d 	lu12i.w	$r13,-332277(0xaee0b)
1c0188cc:	029f31ad 	addi.w	$r13,$r13,1996(0x7cc)
1c0188d0:	157b09cb 	lu12i.w	$r11,-272306(0xbd84e)
1c0188d4:	02a1a16b 	addi.w	$r11,$r11,-1944(0x868)
1c0188d8:	0011358a 	sub.w	$r10,$r12,$r13
1c0188dc:	5c04ad4b 	bne	$r10,$r11,1196(0x4ac) # 1c018d88 <inst_error>
1c0188e0:	157c720c 	lu12i.w	$r12,-269424(0xbe390)
1c0188e4:	028f418c 	addi.w	$r12,$r12,976(0x3d0)
1c0188e8:	1406ebed 	lu12i.w	$r13,14175(0x375f)
1c0188ec:	02b549ad 	addi.w	$r13,$r13,-686(0xd52)
1c0188f0:	1575862b 	lu12i.w	$r11,-283599(0xbac31)
1c0188f4:	0299f96b 	addi.w	$r11,$r11,1662(0x67e)
1c0188f8:	0011358a 	sub.w	$r10,$r12,$r13
1c0188fc:	5c048d4b 	bne	$r10,$r11,1164(0x48c) # 1c018d88 <inst_error>
1c018900:	15f1d9ec 	lu12i.w	$r12,-28977(0xf8ecf)
1c018904:	02b2358c 	addi.w	$r12,$r12,-883(0xc8d)
1c018908:	14dd958d 	lu12i.w	$r13,453804(0x6ecac)
1c01890c:	02b92dad 	addi.w	$r13,$r13,-437(0xe4b)
1c018910:	1514446b 	lu12i.w	$r11,-482781(0x8a223)
1c018914:	02b9096b 	addi.w	$r11,$r11,-446(0xe42)
1c018918:	0011358a 	sub.w	$r10,$r12,$r13
1c01891c:	5c046d4b 	bne	$r10,$r11,1132(0x46c) # 1c018d88 <inst_error>
1c018920:	14306d6c 	lu12i.w	$r12,99179(0x1836b)
1c018924:	02b8c18c 	addi.w	$r12,$r12,-464(0xe30)
1c018928:	1523c7ad 	lu12i.w	$r13,-451011(0x91e3d)
1c01892c:	0280e1ad 	addi.w	$r13,$r13,56(0x38)
1c018930:	150ca5cb 	lu12i.w	$r11,-498386(0x8652e)
1c018934:	02b7e16b 	addi.w	$r11,$r11,-520(0xdf8)
1c018938:	0011358a 	sub.w	$r10,$r12,$r13
1c01893c:	5c044d4b 	bne	$r10,$r11,1100(0x44c) # 1c018d88 <inst_error>
1c018940:	155aa56c 	lu12i.w	$r12,-338645(0xad52b)
1c018944:	02bd518c 	addi.w	$r12,$r12,-172(0xf54)
1c018948:	151b708d 	lu12i.w	$r13,-468092(0x8db84)
1c01894c:	028d81ad 	addi.w	$r13,$r13,864(0x360)
1c018950:	143f34eb 	lu12i.w	$r11,129447(0x1f9a7)
1c018954:	02afd16b 	addi.w	$r11,$r11,-1036(0xbf4)
1c018958:	0011358a 	sub.w	$r10,$r12,$r13
1c01895c:	5c042d4b 	bne	$r10,$r11,1068(0x42c) # 1c018d88 <inst_error>
1c018960:	14822fec 	lu12i.w	$r12,266623(0x4117f)
1c018964:	02a9418c 	addi.w	$r12,$r12,-1456(0xa50)
1c018968:	15ab6d8d 	lu12i.w	$r13,-173204(0xd5b6c)
1c01896c:	02be41ad 	addi.w	$r13,$r13,-112(0xf90)
1c018970:	14d6c26b 	lu12i.w	$r11,439827(0x6b613)
1c018974:	02ab016b 	addi.w	$r11,$r11,-1344(0xac0)
1c018978:	0011358a 	sub.w	$r10,$r12,$r13
1c01897c:	5c040d4b 	bne	$r10,$r11,1036(0x40c) # 1c018d88 <inst_error>
1c018980:	14d6282c 	lu12i.w	$r12,438593(0x6b141)
1c018984:	02ae798c 	addi.w	$r12,$r12,-1122(0xb9e)
1c018988:	1413aa6d 	lu12i.w	$r13,40275(0x9d53)
1c01898c:	029d01ad 	addi.w	$r13,$r13,1856(0x740)
1c018990:	14c27dab 	lu12i.w	$r11,398317(0x613ed)
1c018994:	0291796b 	addi.w	$r11,$r11,1118(0x45e)
1c018998:	0011358a 	sub.w	$r10,$r12,$r13
1c01899c:	5c03ed4b 	bne	$r10,$r11,1004(0x3ec) # 1c018d88 <inst_error>
1c0189a0:	148ba76c 	lu12i.w	$r12,286011(0x45d3b)
1c0189a4:	0295558c 	addi.w	$r12,$r12,1365(0x555)
1c0189a8:	15dd3e4d 	lu12i.w	$r13,-71182(0xee9f2)
1c0189ac:	02ad01ad 	addi.w	$r13,$r13,-1216(0xb40)
1c0189b0:	14ae694b 	lu12i.w	$r11,357194(0x5734a)
1c0189b4:	02a8556b 	addi.w	$r11,$r11,-1515(0xa15)
1c0189b8:	0011358a 	sub.w	$r10,$r12,$r13
1c0189bc:	5c03cd4b 	bne	$r10,$r11,972(0x3cc) # 1c018d88 <inst_error>
1c0189c0:	14d1f1ec 	lu12i.w	$r12,429967(0x68f8f)
1c0189c4:	02b96d8c 	addi.w	$r12,$r12,-421(0xe5b)
1c0189c8:	145641ad 	lu12i.w	$r13,176653(0x2b20d)
1c0189cc:	02a459ad 	addi.w	$r13,$r13,-1770(0x916)
1c0189d0:	147bb04b 	lu12i.w	$r11,253314(0x3dd82)
1c0189d4:	0295156b 	addi.w	$r11,$r11,1349(0x545)
1c0189d8:	0011358a 	sub.w	$r10,$r12,$r13
1c0189dc:	5c03ad4b 	bne	$r10,$r11,940(0x3ac) # 1c018d88 <inst_error>
1c0189e0:	15594e0c 	lu12i.w	$r12,-341392(0xaca70)
1c0189e4:	028b998c 	addi.w	$r12,$r12,742(0x2e6)
1c0189e8:	141d1e0d 	lu12i.w	$r13,59632(0xe8f0)
1c0189ec:	0285c1ad 	addi.w	$r13,$r13,368(0x170)
1c0189f0:	153c300b 	lu12i.w	$r11,-401024(0x9e180)
1c0189f4:	0285d96b 	addi.w	$r11,$r11,374(0x176)
1c0189f8:	0011358a 	sub.w	$r10,$r12,$r13
1c0189fc:	5c038d4b 	bne	$r10,$r11,908(0x38c) # 1c018d88 <inst_error>
1c018a00:	14b641ec 	lu12i.w	$r12,373263(0x5b20f)
1c018a04:	02be518c 	addi.w	$r12,$r12,-108(0xf94)
1c018a08:	1429ec6d 	lu12i.w	$r13,85859(0x14f63)
1c018a0c:	02b1a5ad 	addi.w	$r13,$r13,-919(0xc69)
1c018a10:	148c558b 	lu12i.w	$r11,287404(0x462ac)
1c018a14:	028cad6b 	addi.w	$r11,$r11,811(0x32b)
1c018a18:	0011358a 	sub.w	$r10,$r12,$r13
1c018a1c:	5c036d4b 	bne	$r10,$r11,876(0x36c) # 1c018d88 <inst_error>
1c018a20:	1492272c 	lu12i.w	$r12,299321(0x49139)
1c018a24:	0284018c 	addi.w	$r12,$r12,256(0x100)
1c018a28:	147e796d 	lu12i.w	$r13,259019(0x3f3cb)
1c018a2c:	0298c1ad 	addi.w	$r13,$r13,1584(0x630)
1c018a30:	1413adcb 	lu12i.w	$r11,40302(0x9d6e)
1c018a34:	02ab416b 	addi.w	$r11,$r11,-1328(0xad0)
1c018a38:	0011358a 	sub.w	$r10,$r12,$r13
1c018a3c:	5c034d4b 	bne	$r10,$r11,844(0x34c) # 1c018d88 <inst_error>
1c018a40:	15dc882c 	lu12i.w	$r12,-72639(0xee441)
1c018a44:	02bcf18c 	addi.w	$r12,$r12,-196(0xf3c)
1c018a48:	15bb0bcd 	lu12i.w	$r13,-141218(0xdd85e)
1c018a4c:	028cd1ad 	addi.w	$r13,$r13,820(0x334)
1c018a50:	14217c6b 	lu12i.w	$r11,68579(0x10be3)
1c018a54:	02b0216b 	addi.w	$r11,$r11,-1016(0xc08)
1c018a58:	0011358a 	sub.w	$r10,$r12,$r13
1c018a5c:	5c032d4b 	bne	$r10,$r11,812(0x32c) # 1c018d88 <inst_error>
1c018a60:	15e89f2c 	lu12i.w	$r12,-47879(0xf44f9)
1c018a64:	02ab818c 	addi.w	$r12,$r12,-1312(0xae0)
1c018a68:	153ecd6d 	lu12i.w	$r13,-395669(0x9f66b)
1c018a6c:	02b001ad 	addi.w	$r13,$r13,-1024(0xc00)
1c018a70:	14a9d1cb 	lu12i.w	$r11,347790(0x54e8e)
1c018a74:	02bb816b 	addi.w	$r11,$r11,-288(0xee0)
1c018a78:	0011358a 	sub.w	$r10,$r12,$r13
1c018a7c:	5c030d4b 	bne	$r10,$r11,780(0x30c) # 1c018d88 <inst_error>
1c018a80:	14b1fe2c 	lu12i.w	$r12,364529(0x58ff1)
1c018a84:	02af418c 	addi.w	$r12,$r12,-1072(0xbd0)
1c018a88:	158cf14d 	lu12i.w	$r13,-235638(0xc678a)
1c018a8c:	02a961ad 	addi.w	$r13,$r13,-1448(0xa58)
1c018a90:	15250ceb 	lu12i.w	$r11,-448409(0x92867)
1c018a94:	0285e16b 	addi.w	$r11,$r11,376(0x178)
1c018a98:	0011358a 	sub.w	$r10,$r12,$r13
1c018a9c:	5c02ed4b 	bne	$r10,$r11,748(0x2ec) # 1c018d88 <inst_error>
1c018aa0:	1474d4cc 	lu12i.w	$r12,239270(0x3a6a6)
1c018aa4:	02a7758c 	addi.w	$r12,$r12,-1571(0x9dd)
1c018aa8:	1550aecd 	lu12i.w	$r13,-359050(0xa8576)
1c018aac:	02a7d1ad 	addi.w	$r13,$r13,-1548(0x9f4)
1c018ab0:	1524260b 	lu12i.w	$r11,-450256(0x92130)
1c018ab4:	02bfa56b 	addi.w	$r11,$r11,-23(0xfe9)
1c018ab8:	0011358a 	sub.w	$r10,$r12,$r13
1c018abc:	5c02cd4b 	bne	$r10,$r11,716(0x2cc) # 1c018d88 <inst_error>
1c018ac0:	14e414cc 	lu12i.w	$r12,467110(0x720a6)
1c018ac4:	0299118c 	addi.w	$r12,$r12,1604(0x644)
1c018ac8:	15b4b68d 	lu12i.w	$r13,-154188(0xda5b4)
1c018acc:	02a929ad 	addi.w	$r13,$r13,-1462(0xa4a)
1c018ad0:	152f5e6b 	lu12i.w	$r11,-427277(0x97af3)
1c018ad4:	02afe96b 	addi.w	$r11,$r11,-1030(0xbfa)
1c018ad8:	0011358a 	sub.w	$r10,$r12,$r13
1c018adc:	5c02ad4b 	bne	$r10,$r11,684(0x2ac) # 1c018d88 <inst_error>
1c018ae0:	14964d8c 	lu12i.w	$r12,307820(0x4b26c)
1c018ae4:	02b6818c 	addi.w	$r12,$r12,-608(0xda0)
1c018ae8:	15cf448d 	lu12i.w	$r13,-99804(0xe7a24)
1c018aec:	02b0e1ad 	addi.w	$r13,$r13,-968(0xc38)
1c018af0:	14c7090b 	lu12i.w	$r11,407624(0x63848)
1c018af4:	0285a16b 	addi.w	$r11,$r11,360(0x168)
1c018af8:	0011358a 	sub.w	$r10,$r12,$r13
1c018afc:	5c028d4b 	bne	$r10,$r11,652(0x28c) # 1c018d88 <inst_error>
1c018b00:	14a9920c 	lu12i.w	$r12,347280(0x54c90)
1c018b04:	028c018c 	addi.w	$r12,$r12,768(0x300)
1c018b08:	14b379cd 	lu12i.w	$r13,367566(0x59bce)
1c018b0c:	02b14dad 	addi.w	$r13,$r13,-941(0xc53)
1c018b10:	15f6184b 	lu12i.w	$r11,-20286(0xfb0c2)
1c018b14:	029ab56b 	addi.w	$r11,$r11,1709(0x6ad)
1c018b18:	0011358a 	sub.w	$r10,$r12,$r13
1c018b1c:	5c026d4b 	bne	$r10,$r11,620(0x26c) # 1c018d88 <inst_error>
1c018b20:	14b0e22c 	lu12i.w	$r12,362257(0x58711)
1c018b24:	028be18c 	addi.w	$r12,$r12,760(0x2f8)
1c018b28:	1442d50d 	lu12i.w	$r13,136872(0x216a8)
1c018b2c:	02be29ad 	addi.w	$r13,$r13,-118(0xf8a)
1c018b30:	146e0d2b 	lu12i.w	$r11,225385(0x37069)
1c018b34:	028db96b 	addi.w	$r11,$r11,878(0x36e)
1c018b38:	0011358a 	sub.w	$r10,$r12,$r13
1c018b3c:	5c024d4b 	bne	$r10,$r11,588(0x24c) # 1c018d88 <inst_error>
1c018b40:	14556aac 	lu12i.w	$r12,174933(0x2ab55)
1c018b44:	02b4398c 	addi.w	$r12,$r12,-754(0xd0e)
1c018b48:	1521ef8d 	lu12i.w	$r13,-454788(0x90f7c)
1c018b4c:	029951ad 	addi.w	$r13,$r13,1620(0x654)
1c018b50:	15337b0b 	lu12i.w	$r11,-418856(0x99bd8)
1c018b54:	029ae96b 	addi.w	$r11,$r11,1722(0x6ba)
1c018b58:	0011358a 	sub.w	$r10,$r12,$r13
1c018b5c:	5c022d4b 	bne	$r10,$r11,556(0x22c) # 1c018d88 <inst_error>
1c018b60:	1527ecac 	lu12i.w	$r12,-442523(0x93f65)
1c018b64:	02a1818c 	addi.w	$r12,$r12,-1952(0x860)
1c018b68:	15dd556d 	lu12i.w	$r13,-70997(0xeeaab)
1c018b6c:	02a001ad 	addi.w	$r13,$r13,-2048(0x800)
1c018b70:	154a974b 	lu12i.w	$r11,-371526(0xa54ba)
1c018b74:	0281816b 	addi.w	$r11,$r11,96(0x60)
1c018b78:	0011358a 	sub.w	$r10,$r12,$r13
1c018b7c:	5c020d4b 	bne	$r10,$r11,524(0x20c) # 1c018d88 <inst_error>
1c018b80:	1528fc8c 	lu12i.w	$r12,-440348(0x947e4)
1c018b84:	02af018c 	addi.w	$r12,$r12,-1088(0xbc0)
1c018b88:	15a202ed 	lu12i.w	$r13,-192489(0xd1017)
1c018b8c:	028871ad 	addi.w	$r13,$r13,540(0x21c)
1c018b90:	1586f9ab 	lu12i.w	$r11,-247859(0xc37cd)
1c018b94:	02a6916b 	addi.w	$r11,$r11,-1628(0x9a4)
1c018b98:	0011358a 	sub.w	$r10,$r12,$r13
1c018b9c:	5c01ed4b 	bne	$r10,$r11,492(0x1ec) # 1c018d88 <inst_error>
1c018ba0:	141160ac 	lu12i.w	$r12,35589(0x8b05)
1c018ba4:	0288618c 	addi.w	$r12,$r12,536(0x218)
1c018ba8:	15efbe2d 	lu12i.w	$r13,-33295(0xf7df1)
1c018bac:	029301ad 	addi.w	$r13,$r13,1216(0x4c0)
1c018bb0:	1421a28b 	lu12i.w	$r11,68884(0x10d14)
1c018bb4:	02b5616b 	addi.w	$r11,$r11,-680(0xd58)
1c018bb8:	0011358a 	sub.w	$r10,$r12,$r13
1c018bbc:	5c01cd4b 	bne	$r10,$r11,460(0x1cc) # 1c018d88 <inst_error>
1c018bc0:	1517320c 	lu12i.w	$r12,-476784(0x8b990)
1c018bc4:	0296098c 	addi.w	$r12,$r12,1410(0x582)
1c018bc8:	1568bdad 	lu12i.w	$r13,-309779(0xb45ed)
1c018bcc:	02aa21ad 	addi.w	$r13,$r13,-1400(0xa88)
1c018bd0:	15ae748b 	lu12i.w	$r11,-167004(0xd73a4)
1c018bd4:	02abe96b 	addi.w	$r11,$r11,-1286(0xafa)
1c018bd8:	0011358a 	sub.w	$r10,$r12,$r13
1c018bdc:	5c01ad4b 	bne	$r10,$r11,428(0x1ac) # 1c018d88 <inst_error>
1c018be0:	14a9414c 	lu12i.w	$r12,346634(0x54a0a)
1c018be4:	02b1818c 	addi.w	$r12,$r12,-928(0xc60)
1c018be8:	15e0cc0d 	lu12i.w	$r13,-63904(0xf0660)
1c018bec:	02bd65ad 	addi.w	$r13,$r13,-167(0xf59)
1c018bf0:	14c8754b 	lu12i.w	$r11,410538(0x643aa)
1c018bf4:	02b41d6b 	addi.w	$r11,$r11,-761(0xd07)
1c018bf8:	0011358a 	sub.w	$r10,$r12,$r13
1c018bfc:	5c018d4b 	bne	$r10,$r11,396(0x18c) # 1c018d88 <inst_error>
1c018c00:	140549cc 	lu12i.w	$r12,10830(0x2a4e)
1c018c04:	028f498c 	addi.w	$r12,$r12,978(0x3d2)
1c018c08:	14b94ecd 	lu12i.w	$r13,379510(0x5ca76)
1c018c0c:	02a001ad 	addi.w	$r13,$r13,-2048(0x800)
1c018c10:	154bfb2b 	lu12i.w	$r11,-368679(0xa5fd9)
1c018c14:	02af496b 	addi.w	$r11,$r11,-1070(0xbd2)
1c018c18:	0011358a 	sub.w	$r10,$r12,$r13
1c018c1c:	5c016d4b 	bne	$r10,$r11,364(0x16c) # 1c018d88 <inst_error>
1c018c20:	14e2058c 	lu12i.w	$r12,462892(0x7102c)
1c018c24:	02940d8c 	addi.w	$r12,$r12,1283(0x503)
1c018c28:	148b1ded 	lu12i.w	$r13,284911(0x458ef)
1c018c2c:	02aafdad 	addi.w	$r13,$r13,-1345(0xabf)
1c018c30:	1456e7cb 	lu12i.w	$r11,177982(0x2b73e)
1c018c34:	02a9116b 	addi.w	$r11,$r11,-1468(0xa44)
1c018c38:	0011358a 	sub.w	$r10,$r12,$r13
1c018c3c:	5c014d4b 	bne	$r10,$r11,332(0x14c) # 1c018d88 <inst_error>
1c018c40:	1509262c 	lu12i.w	$r12,-505551(0x84931)
1c018c44:	02b0018c 	addi.w	$r12,$r12,-1024(0xc00)
1c018c48:	15eb808d 	lu12i.w	$r13,-41980(0xf5c04)
1c018c4c:	028891ad 	addi.w	$r13,$r13,548(0x224)
1c018c50:	151da5ab 	lu12i.w	$r11,-463571(0x8ed2d)
1c018c54:	02a7716b 	addi.w	$r11,$r11,-1572(0x9dc)
1c018c58:	0011358a 	sub.w	$r10,$r12,$r13
1c018c5c:	5c012d4b 	bne	$r10,$r11,300(0x12c) # 1c018d88 <inst_error>
1c018c60:	15c3eaac 	lu12i.w	$r12,-123051(0xe1f55)
1c018c64:	029c098c 	addi.w	$r12,$r12,1794(0x702)
1c018c68:	1483f86d 	lu12i.w	$r13,270275(0x41fc3)
1c018c6c:	02a9a1ad 	addi.w	$r13,$r13,-1432(0xa68)
1c018c70:	153ff26b 	lu12i.w	$r11,-393325(0x9ff93)
1c018c74:	02b2696b 	addi.w	$r11,$r11,-870(0xc9a)
1c018c78:	0011358a 	sub.w	$r10,$r12,$r13
1c018c7c:	5c010d4b 	bne	$r10,$r11,268(0x10c) # 1c018d88 <inst_error>
1c018c80:	15fc36ac 	lu12i.w	$r12,-7755(0xfe1b5)
1c018c84:	0297898c 	addi.w	$r12,$r12,1506(0x5e2)
1c018c88:	1489a96d 	lu12i.w	$r13,281931(0x44d4b)
1c018c8c:	029e11ad 	addi.w	$r13,$r13,1924(0x784)
1c018c90:	15728d4b 	lu12i.w	$r11,-289686(0xb946a)
1c018c94:	02b9796b 	addi.w	$r11,$r11,-418(0xe5e)
1c018c98:	0011358a 	sub.w	$r10,$r12,$r13
1c018c9c:	5c00ed4b 	bne	$r10,$r11,236(0xec) # 1c018d88 <inst_error>
1c018ca0:	15518d4c 	lu12i.w	$r12,-357270(0xa8c6a)
1c018ca4:	02a7e18c 	addi.w	$r12,$r12,-1544(0x9f8)
1c018ca8:	1480ad8d 	lu12i.w	$r13,263532(0x4056c)
1c018cac:	028ea1ad 	addi.w	$r13,$r13,936(0x3a8)
1c018cb0:	14d0dfab 	lu12i.w	$r11,427773(0x686fd)
1c018cb4:	0299416b 	addi.w	$r11,$r11,1616(0x650)
1c018cb8:	0011358a 	sub.w	$r10,$r12,$r13
1c018cbc:	5c00cd4b 	bne	$r10,$r11,204(0xcc) # 1c018d88 <inst_error>
1c018cc0:	15cdcd6c 	lu12i.w	$r12,-102805(0xe6e6b)
1c018cc4:	02b4098c 	addi.w	$r12,$r12,-766(0xd02)
1c018cc8:	140d880d 	lu12i.w	$r13,27712(0x6c40)
1c018ccc:	02a2f1ad 	addi.w	$r13,$r13,-1860(0x8bc)
1c018cd0:	15c0456b 	lu12i.w	$r11,-130517(0xe022b)
1c018cd4:	0291196b 	addi.w	$r11,$r11,1094(0x446)
1c018cd8:	0011358a 	sub.w	$r10,$r12,$r13
1c018cdc:	5c00ad4b 	bne	$r10,$r11,172(0xac) # 1c018d88 <inst_error>
1c018ce0:	15e60aec 	lu12i.w	$r12,-53161(0xf3057)
1c018ce4:	0283018c 	addi.w	$r12,$r12,192(0xc0)
1c018ce8:	145fb0ed 	lu12i.w	$r13,195975(0x2fd87)
1c018cec:	02b001ad 	addi.w	$r13,$r13,-1024(0xc00)
1c018cf0:	15865a0b 	lu12i.w	$r11,-249136(0xc32d0)
1c018cf4:	0293016b 	addi.w	$r11,$r11,1216(0x4c0)
1c018cf8:	0011358a 	sub.w	$r10,$r12,$r13
1c018cfc:	5c008d4b 	bne	$r10,$r11,140(0x8c) # 1c018d88 <inst_error>
1c018d00:	14d5bb6c 	lu12i.w	$r12,437723(0x6addb)
1c018d04:	0280018c 	addi.w	$r12,$r12,0
1c018d08:	14e5bbed 	lu12i.w	$r13,470495(0x72ddf)
1c018d0c:	028459ad 	addi.w	$r13,$r13,278(0x116)
1c018d10:	15efff8b 	lu12i.w	$r11,-32772(0xf7ffc)
1c018d14:	02bba96b 	addi.w	$r11,$r11,-278(0xeea)
1c018d18:	0011358a 	sub.w	$r10,$r12,$r13
1c018d1c:	5c006d4b 	bne	$r10,$r11,108(0x6c) # 1c018d88 <inst_error>
1c018d20:	1400b48c 	lu12i.w	$r12,1444(0x5a4)
1c018d24:	0299998c 	addi.w	$r12,$r12,1638(0x666)
1c018d28:	150f542d 	lu12i.w	$r13,-492895(0x87aa1)
1c018d2c:	02a399ad 	addi.w	$r13,$r13,-1818(0x8e6)
1c018d30:	14f1608b 	lu12i.w	$r11,494340(0x78b04)
1c018d34:	02b6016b 	addi.w	$r11,$r11,-640(0xd80)
1c018d38:	0011358a 	sub.w	$r10,$r12,$r13
1c018d3c:	5c004d4b 	bne	$r10,$r11,76(0x4c) # 1c018d88 <inst_error>
1c018d40:	152586ac 	lu12i.w	$r12,-447435(0x92c35)
1c018d44:	02bf718c 	addi.w	$r12,$r12,-36(0xfdc)
1c018d48:	15dda2ad 	lu12i.w	$r13,-70379(0xeed15)
1c018d4c:	028561ad 	addi.w	$r13,$r13,344(0x158)
1c018d50:	1547e40b 	lu12i.w	$r11,-377056(0xa3f20)
1c018d54:	02ba116b 	addi.w	$r11,$r11,-380(0xe84)
1c018d58:	0011358a 	sub.w	$r10,$r12,$r13
1c018d5c:	5c002d4b 	bne	$r10,$r11,44(0x2c) # 1c018d88 <inst_error>
1c018d60:	1400000c 	lu12i.w	$r12,0
1c018d64:	0280018c 	addi.w	$r12,$r12,0
1c018d68:	1400000d 	lu12i.w	$r13,0
1c018d6c:	028001ad 	addi.w	$r13,$r13,0
1c018d70:	1400000b 	lu12i.w	$r11,0
1c018d74:	0280016b 	addi.w	$r11,$r11,0
1c018d78:	0011358a 	sub.w	$r10,$r12,$r13
1c018d7c:	5c000d4b 	bne	$r10,$r11,12(0xc) # 1c018d88 <inst_error>
1c018d80:	5c000b20 	bne	$r25,$r0,8(0x8) # 1c018d88 <inst_error>
1c018d84:	0280075a 	addi.w	$r26,$r26,1(0x1)

1c018d88 <inst_error>:
1c018d88:	0040e2ed 	slli.w	$r13,$r23,0x18
1c018d8c:	001569ac 	or	$r12,$r13,$r26
1c018d90:	2980030c 	st.w	$r12,$r24,0
1c018d94:	4c000020 	jirl	$r0,$r1,0

1c018d98 <n17_bne_test>:
n17_bne_test():
1c018d98:	028006f7 	addi.w	$r23,$r23,1(0x1)
1c018d9c:	00150019 	move	$r25,$r0
1c018da0:	1446bfd0 	lu12i.w	$r16,144894(0x235fe)
1c018da4:	02b80210 	addi.w	$r16,$r16,-512(0xe00)
1c018da8:	15bab311 	lu12i.w	$r17,-141928(0xdd598)
1c018dac:	02b77a31 	addi.w	$r17,$r17,-546(0xdde)
1c018db0:	1400000a 	lu12i.w	$r10,0
1c018db4:	1400000b 	lu12i.w	$r11,0
1c018db8:	50001400 	b	20(0x14) # 1c018dcc <n17_bne_test+0x34>
1c018dbc:	1446bfca 	lu12i.w	$r10,144894(0x235fe)
1c018dc0:	02b8014a 	addi.w	$r10,$r10,-512(0xe00)
1c018dc4:	5c0021ac 	bne	$r13,$r12,32(0x20) # 1c018de4 <n17_bne_test+0x4c>
1c018dc8:	50002400 	b	36(0x24) # 1c018dec <n17_bne_test+0x54>
1c018dcc:	1579558c 	lu12i.w	$r12,-275796(0xbcaac)
1c018dd0:	02b49d8c 	addi.w	$r12,$r12,-729(0xd27)
1c018dd4:	15054f0d 	lu12i.w	$r13,-513416(0x82a78)
1c018dd8:	02aa75ad 	addi.w	$r13,$r13,-1379(0xa9d)
1c018ddc:	5fffe18d 	bne	$r12,$r13,-32(0x3ffe0) # 1c018dbc <n17_bne_test+0x24>
1c018de0:	50000c00 	b	12(0xc) # 1c018dec <n17_bne_test+0x54>
1c018de4:	15bab30b 	lu12i.w	$r11,-141928(0xdd598)
1c018de8:	02b7796b 	addi.w	$r11,$r11,-546(0xdde)
1c018dec:	1446bfdc 	lu12i.w	$r28,144894(0x235fe)
1c018df0:	02b8039c 	addi.w	$r28,$r28,-512(0xe00)
1c018df4:	15bab31d 	lu12i.w	$r29,-141928(0xdd598)
1c018df8:	02b77bbd 	addi.w	$r29,$r29,-546(0xdde)
1c018dfc:	5c0e215c 	bne	$r10,$r28,3616(0xe20) # 1c019c1c <inst_error>
1c018e00:	5c0e1d7d 	bne	$r11,$r29,3612(0xe1c) # 1c019c1c <inst_error>
1c018e04:	1528cd10 	lu12i.w	$r16,-440728(0x94668)
1c018e08:	02800210 	addi.w	$r16,$r16,0
1c018e0c:	15c72731 	lu12i.w	$r17,-116423(0xe3939)
1c018e10:	0295a231 	addi.w	$r17,$r17,1384(0x568)
1c018e14:	1400000a 	lu12i.w	$r10,0
1c018e18:	1400000b 	lu12i.w	$r11,0
1c018e1c:	50001400 	b	20(0x14) # 1c018e30 <n17_bne_test+0x98>
1c018e20:	1528cd0a 	lu12i.w	$r10,-440728(0x94668)
1c018e24:	0280014a 	addi.w	$r10,$r10,0
1c018e28:	5c0021ac 	bne	$r13,$r12,32(0x20) # 1c018e48 <n17_bne_test+0xb0>
1c018e2c:	50002400 	b	36(0x24) # 1c018e50 <n17_bne_test+0xb8>
1c018e30:	15b670cc 	lu12i.w	$r12,-150650(0xdb386)
1c018e34:	0281098c 	addi.w	$r12,$r12,66(0x42)
1c018e38:	149eda0d 	lu12i.w	$r13,325328(0x4f6d0)
1c018e3c:	028d7dad 	addi.w	$r13,$r13,863(0x35f)
1c018e40:	5fffe18d 	bne	$r12,$r13,-32(0x3ffe0) # 1c018e20 <n17_bne_test+0x88>
1c018e44:	50000c00 	b	12(0xc) # 1c018e50 <n17_bne_test+0xb8>
1c018e48:	15c7272b 	lu12i.w	$r11,-116423(0xe3939)
1c018e4c:	0295a16b 	addi.w	$r11,$r11,1384(0x568)
1c018e50:	1528cd1c 	lu12i.w	$r28,-440728(0x94668)
1c018e54:	0280039c 	addi.w	$r28,$r28,0
1c018e58:	15c7273d 	lu12i.w	$r29,-116423(0xe3939)
1c018e5c:	0295a3bd 	addi.w	$r29,$r29,1384(0x568)
1c018e60:	5c0dbd5c 	bne	$r10,$r28,3516(0xdbc) # 1c019c1c <inst_error>
1c018e64:	5c0db97d 	bne	$r11,$r29,3512(0xdb8) # 1c019c1c <inst_error>
1c018e68:	153afcb0 	lu12i.w	$r16,-403483(0x9d7e5)
1c018e6c:	028a6210 	addi.w	$r16,$r16,664(0x298)
1c018e70:	15bb5651 	lu12i.w	$r17,-140622(0xddab2)
1c018e74:	028ce231 	addi.w	$r17,$r17,824(0x338)
1c018e78:	1400000a 	lu12i.w	$r10,0
1c018e7c:	1400000b 	lu12i.w	$r11,0
1c018e80:	50001400 	b	20(0x14) # 1c018e94 <n17_bne_test+0xfc>
1c018e84:	153afcaa 	lu12i.w	$r10,-403483(0x9d7e5)
1c018e88:	028a614a 	addi.w	$r10,$r10,664(0x298)
1c018e8c:	5c0021ac 	bne	$r13,$r12,32(0x20) # 1c018eac <n17_bne_test+0x114>
1c018e90:	50002400 	b	36(0x24) # 1c018eb4 <n17_bne_test+0x11c>
1c018e94:	149b0c0c 	lu12i.w	$r12,317536(0x4d860)
1c018e98:	0288318c 	addi.w	$r12,$r12,524(0x20c)
1c018e9c:	154e3f0d 	lu12i.w	$r13,-364040(0xa71f8)
1c018ea0:	02b601ad 	addi.w	$r13,$r13,-640(0xd80)
1c018ea4:	5fffe18d 	bne	$r12,$r13,-32(0x3ffe0) # 1c018e84 <n17_bne_test+0xec>
1c018ea8:	50000c00 	b	12(0xc) # 1c018eb4 <n17_bne_test+0x11c>
1c018eac:	15bb564b 	lu12i.w	$r11,-140622(0xddab2)
1c018eb0:	028ce16b 	addi.w	$r11,$r11,824(0x338)
1c018eb4:	153afcbc 	lu12i.w	$r28,-403483(0x9d7e5)
1c018eb8:	028a639c 	addi.w	$r28,$r28,664(0x298)
1c018ebc:	15bb565d 	lu12i.w	$r29,-140622(0xddab2)
1c018ec0:	028ce3bd 	addi.w	$r29,$r29,824(0x338)
1c018ec4:	5c0d595c 	bne	$r10,$r28,3416(0xd58) # 1c019c1c <inst_error>
1c018ec8:	5c0d557d 	bne	$r11,$r29,3412(0xd54) # 1c019c1c <inst_error>
1c018ecc:	15142c70 	lu12i.w	$r16,-482973(0x8a163)
1c018ed0:	02bf0210 	addi.w	$r16,$r16,-64(0xfc0)
1c018ed4:	15bdcd91 	lu12i.w	$r17,-135572(0xdee6c)
1c018ed8:	028d2231 	addi.w	$r17,$r17,840(0x348)
1c018edc:	1400000a 	lu12i.w	$r10,0
1c018ee0:	1400000b 	lu12i.w	$r11,0
1c018ee4:	50001400 	b	20(0x14) # 1c018ef8 <n17_bne_test+0x160>
1c018ee8:	15142c6a 	lu12i.w	$r10,-482973(0x8a163)
1c018eec:	02bf014a 	addi.w	$r10,$r10,-64(0xfc0)
1c018ef0:	5c0021ac 	bne	$r13,$r12,32(0x20) # 1c018f10 <n17_bne_test+0x178>
1c018ef4:	50002400 	b	36(0x24) # 1c018f18 <n17_bne_test+0x180>
1c018ef8:	15aa440c 	lu12i.w	$r12,-175584(0xd5220)
1c018efc:	0297218c 	addi.w	$r12,$r12,1480(0x5c8)
1c018f00:	14c1d66d 	lu12i.w	$r13,396979(0x60eb3)
1c018f04:	02bc0dad 	addi.w	$r13,$r13,-253(0xf03)
1c018f08:	5fffe18d 	bne	$r12,$r13,-32(0x3ffe0) # 1c018ee8 <n17_bne_test+0x150>
1c018f0c:	50000c00 	b	12(0xc) # 1c018f18 <n17_bne_test+0x180>
1c018f10:	15bdcd8b 	lu12i.w	$r11,-135572(0xdee6c)
1c018f14:	028d216b 	addi.w	$r11,$r11,840(0x348)
1c018f18:	15142c7c 	lu12i.w	$r28,-482973(0x8a163)
1c018f1c:	02bf039c 	addi.w	$r28,$r28,-64(0xfc0)
1c018f20:	15bdcd9d 	lu12i.w	$r29,-135572(0xdee6c)
1c018f24:	028d23bd 	addi.w	$r29,$r29,840(0x348)
1c018f28:	5c0cf55c 	bne	$r10,$r28,3316(0xcf4) # 1c019c1c <inst_error>
1c018f2c:	5c0cf17d 	bne	$r11,$r29,3312(0xcf0) # 1c019c1c <inst_error>
1c018f30:	14c03350 	lu12i.w	$r16,393626(0x6019a)
1c018f34:	02ab9210 	addi.w	$r16,$r16,-1308(0xae4)
1c018f38:	14660ef1 	lu12i.w	$r17,209015(0x33077)
1c018f3c:	02855231 	addi.w	$r17,$r17,340(0x154)
1c018f40:	1400000a 	lu12i.w	$r10,0
1c018f44:	1400000b 	lu12i.w	$r11,0
1c018f48:	50001400 	b	20(0x14) # 1c018f5c <n17_bne_test+0x1c4>
1c018f4c:	14c0334a 	lu12i.w	$r10,393626(0x6019a)
1c018f50:	02ab914a 	addi.w	$r10,$r10,-1308(0xae4)
1c018f54:	5c0021ac 	bne	$r13,$r12,32(0x20) # 1c018f74 <n17_bne_test+0x1dc>
1c018f58:	50002400 	b	36(0x24) # 1c018f7c <n17_bne_test+0x1e4>
1c018f5c:	15d2b42c 	lu12i.w	$r12,-92767(0xe95a1)
1c018f60:	02a6958c 	addi.w	$r12,$r12,-1627(0x9a5)
1c018f64:	142f73cd 	lu12i.w	$r13,97182(0x17b9e)
1c018f68:	028201ad 	addi.w	$r13,$r13,128(0x80)
1c018f6c:	5fffe18d 	bne	$r12,$r13,-32(0x3ffe0) # 1c018f4c <n17_bne_test+0x1b4>
1c018f70:	50000c00 	b	12(0xc) # 1c018f7c <n17_bne_test+0x1e4>
1c018f74:	14660eeb 	lu12i.w	$r11,209015(0x33077)
1c018f78:	0285516b 	addi.w	$r11,$r11,340(0x154)
1c018f7c:	14c0335c 	lu12i.w	$r28,393626(0x6019a)
1c018f80:	02ab939c 	addi.w	$r28,$r28,-1308(0xae4)
1c018f84:	14660efd 	lu12i.w	$r29,209015(0x33077)
1c018f88:	028553bd 	addi.w	$r29,$r29,340(0x154)
1c018f8c:	5c0c915c 	bne	$r10,$r28,3216(0xc90) # 1c019c1c <inst_error>
1c018f90:	5c0c8d7d 	bne	$r11,$r29,3212(0xc8c) # 1c019c1c <inst_error>
1c018f94:	14108110 	lu12i.w	$r16,33800(0x8408)
1c018f98:	0283e210 	addi.w	$r16,$r16,248(0xf8)
1c018f9c:	14c89a91 	lu12i.w	$r17,410836(0x644d4)
1c018fa0:	02b8a231 	addi.w	$r17,$r17,-472(0xe28)
1c018fa4:	1400000a 	lu12i.w	$r10,0
1c018fa8:	1400000b 	lu12i.w	$r11,0
1c018fac:	50001400 	b	20(0x14) # 1c018fc0 <n17_bne_test+0x228>
1c018fb0:	1410810a 	lu12i.w	$r10,33800(0x8408)
1c018fb4:	0283e14a 	addi.w	$r10,$r10,248(0xf8)
1c018fb8:	5c0021ac 	bne	$r13,$r12,32(0x20) # 1c018fd8 <n17_bne_test+0x240>
1c018fbc:	50002400 	b	36(0x24) # 1c018fe0 <n17_bne_test+0x248>
1c018fc0:	15a1aaec 	lu12i.w	$r12,-193193(0xd0d57)
1c018fc4:	02a0498c 	addi.w	$r12,$r12,-2030(0x812)
1c018fc8:	151ea50d 	lu12i.w	$r13,-461528(0x8f528)
1c018fcc:	02b381ad 	addi.w	$r13,$r13,-800(0xce0)
1c018fd0:	5fffe18d 	bne	$r12,$r13,-32(0x3ffe0) # 1c018fb0 <n17_bne_test+0x218>
1c018fd4:	50000c00 	b	12(0xc) # 1c018fe0 <n17_bne_test+0x248>
1c018fd8:	14c89a8b 	lu12i.w	$r11,410836(0x644d4)
1c018fdc:	02b8a16b 	addi.w	$r11,$r11,-472(0xe28)
1c018fe0:	1410811c 	lu12i.w	$r28,33800(0x8408)
1c018fe4:	0283e39c 	addi.w	$r28,$r28,248(0xf8)
1c018fe8:	14c89a9d 	lu12i.w	$r29,410836(0x644d4)
1c018fec:	02b8a3bd 	addi.w	$r29,$r29,-472(0xe28)
1c018ff0:	5c0c2d5c 	bne	$r10,$r28,3116(0xc2c) # 1c019c1c <inst_error>
1c018ff4:	5c0c297d 	bne	$r11,$r29,3112(0xc28) # 1c019c1c <inst_error>
1c018ff8:	15ff9290 	lu12i.w	$r16,-876(0xffc94)
1c018ffc:	02af9210 	addi.w	$r16,$r16,-1052(0xbe4)
1c019000:	15b6f8f1 	lu12i.w	$r17,-149561(0xdb7c7)
1c019004:	02af9231 	addi.w	$r17,$r17,-1052(0xbe4)
1c019008:	1400000a 	lu12i.w	$r10,0
1c01900c:	1400000b 	lu12i.w	$r11,0
1c019010:	50001400 	b	20(0x14) # 1c019024 <n17_bne_test+0x28c>
1c019014:	15ff928a 	lu12i.w	$r10,-876(0xffc94)
1c019018:	02af914a 	addi.w	$r10,$r10,-1052(0xbe4)
1c01901c:	5c0021ac 	bne	$r13,$r12,32(0x20) # 1c01903c <n17_bne_test+0x2a4>
1c019020:	50002400 	b	36(0x24) # 1c019044 <n17_bne_test+0x2ac>
1c019024:	1475646c 	lu12i.w	$r12,240419(0x3ab23)
1c019028:	02a4c18c 	addi.w	$r12,$r12,-1744(0x930)
1c01902c:	1540104d 	lu12i.w	$r13,-393086(0xa0082)
1c019030:	02a401ad 	addi.w	$r13,$r13,-1792(0x900)
1c019034:	5fffe18d 	bne	$r12,$r13,-32(0x3ffe0) # 1c019014 <n17_bne_test+0x27c>
1c019038:	50000c00 	b	12(0xc) # 1c019044 <n17_bne_test+0x2ac>
1c01903c:	15b6f8eb 	lu12i.w	$r11,-149561(0xdb7c7)
1c019040:	02af916b 	addi.w	$r11,$r11,-1052(0xbe4)
1c019044:	15ff929c 	lu12i.w	$r28,-876(0xffc94)
1c019048:	02af939c 	addi.w	$r28,$r28,-1052(0xbe4)
1c01904c:	15b6f8fd 	lu12i.w	$r29,-149561(0xdb7c7)
1c019050:	02af93bd 	addi.w	$r29,$r29,-1052(0xbe4)
1c019054:	5c0bc95c 	bne	$r10,$r28,3016(0xbc8) # 1c019c1c <inst_error>
1c019058:	5c0bc57d 	bne	$r11,$r29,3012(0xbc4) # 1c019c1c <inst_error>
1c01905c:	14a68610 	lu12i.w	$r16,341040(0x53430)
1c019060:	029d0210 	addi.w	$r16,$r16,1856(0x740)
1c019064:	147ae491 	lu12i.w	$r17,251684(0x3d724)
1c019068:	029cce31 	addi.w	$r17,$r17,1843(0x733)
1c01906c:	1400000a 	lu12i.w	$r10,0
1c019070:	1400000b 	lu12i.w	$r11,0
1c019074:	50001400 	b	20(0x14) # 1c019088 <n17_bne_test+0x2f0>
1c019078:	14a6860a 	lu12i.w	$r10,341040(0x53430)
1c01907c:	029d014a 	addi.w	$r10,$r10,1856(0x740)
1c019080:	5c0021ac 	bne	$r13,$r12,32(0x20) # 1c0190a0 <n17_bne_test+0x308>
1c019084:	50002400 	b	36(0x24) # 1c0190a8 <n17_bne_test+0x310>
1c019088:	1451348c 	lu12i.w	$r12,166308(0x289a4)
1c01908c:	0298e18c 	addi.w	$r12,$r12,1592(0x638)
1c019090:	146037ed 	lu12i.w	$r13,197055(0x301bf)
1c019094:	02908dad 	addi.w	$r13,$r13,1059(0x423)
1c019098:	5fffe18d 	bne	$r12,$r13,-32(0x3ffe0) # 1c019078 <n17_bne_test+0x2e0>
1c01909c:	50000c00 	b	12(0xc) # 1c0190a8 <n17_bne_test+0x310>
1c0190a0:	147ae48b 	lu12i.w	$r11,251684(0x3d724)
1c0190a4:	029ccd6b 	addi.w	$r11,$r11,1843(0x733)
1c0190a8:	14a6861c 	lu12i.w	$r28,341040(0x53430)
1c0190ac:	029d039c 	addi.w	$r28,$r28,1856(0x740)
1c0190b0:	147ae49d 	lu12i.w	$r29,251684(0x3d724)
1c0190b4:	029ccfbd 	addi.w	$r29,$r29,1843(0x733)
1c0190b8:	5c0b655c 	bne	$r10,$r28,2916(0xb64) # 1c019c1c <inst_error>
1c0190bc:	5c0b617d 	bne	$r11,$r29,2912(0xb60) # 1c019c1c <inst_error>
1c0190c0:	1590eeb0 	lu12i.w	$r16,-227467(0xc8775)
1c0190c4:	029b6e10 	addi.w	$r16,$r16,1755(0x6db)
1c0190c8:	14e09f91 	lu12i.w	$r17,460028(0x704fc)
1c0190cc:	0284e231 	addi.w	$r17,$r17,312(0x138)
1c0190d0:	1400000a 	lu12i.w	$r10,0
1c0190d4:	1400000b 	lu12i.w	$r11,0
1c0190d8:	50001400 	b	20(0x14) # 1c0190ec <n17_bne_test+0x354>
1c0190dc:	1590eeaa 	lu12i.w	$r10,-227467(0xc8775)
1c0190e0:	029b6d4a 	addi.w	$r10,$r10,1755(0x6db)
1c0190e4:	5c0021ac 	bne	$r13,$r12,32(0x20) # 1c019104 <n17_bne_test+0x36c>
1c0190e8:	50002400 	b	36(0x24) # 1c01910c <n17_bne_test+0x374>
1c0190ec:	156f930c 	lu12i.w	$r12,-295784(0xb7c98)
1c0190f0:	02bc258c 	addi.w	$r12,$r12,-247(0xf09)
1c0190f4:	1594422d 	lu12i.w	$r13,-220655(0xca211)
1c0190f8:	02adc1ad 	addi.w	$r13,$r13,-1168(0xb70)
1c0190fc:	5fffe18d 	bne	$r12,$r13,-32(0x3ffe0) # 1c0190dc <n17_bne_test+0x344>
1c019100:	50000c00 	b	12(0xc) # 1c01910c <n17_bne_test+0x374>
1c019104:	14e09f8b 	lu12i.w	$r11,460028(0x704fc)
1c019108:	0284e16b 	addi.w	$r11,$r11,312(0x138)
1c01910c:	1590eebc 	lu12i.w	$r28,-227467(0xc8775)
1c019110:	029b6f9c 	addi.w	$r28,$r28,1755(0x6db)
1c019114:	14e09f9d 	lu12i.w	$r29,460028(0x704fc)
1c019118:	0284e3bd 	addi.w	$r29,$r29,312(0x138)
1c01911c:	5c0b015c 	bne	$r10,$r28,2816(0xb00) # 1c019c1c <inst_error>
1c019120:	5c0afd7d 	bne	$r11,$r29,2812(0xafc) # 1c019c1c <inst_error>
1c019124:	147eabb0 	lu12i.w	$r16,259421(0x3f55d)
1c019128:	028dc210 	addi.w	$r16,$r16,880(0x370)
1c01912c:	15bed571 	lu12i.w	$r17,-133461(0xdf6ab)
1c019130:	02906231 	addi.w	$r17,$r17,1048(0x418)
1c019134:	1400000a 	lu12i.w	$r10,0
1c019138:	1400000b 	lu12i.w	$r11,0
1c01913c:	50001400 	b	20(0x14) # 1c019150 <n17_bne_test+0x3b8>
1c019140:	147eabaa 	lu12i.w	$r10,259421(0x3f55d)
1c019144:	028dc14a 	addi.w	$r10,$r10,880(0x370)
1c019148:	5c0021ac 	bne	$r13,$r12,32(0x20) # 1c019168 <n17_bne_test+0x3d0>
1c01914c:	50002400 	b	36(0x24) # 1c019170 <n17_bne_test+0x3d8>
1c019150:	14a68c4c 	lu12i.w	$r12,341090(0x53462)
1c019154:	02a17d8c 	addi.w	$r12,$r12,-1953(0x85f)
1c019158:	15bad10d 	lu12i.w	$r13,-141688(0xdd688)
1c01915c:	0281b1ad 	addi.w	$r13,$r13,108(0x6c)
1c019160:	5fffe18d 	bne	$r12,$r13,-32(0x3ffe0) # 1c019140 <n17_bne_test+0x3a8>
1c019164:	50000c00 	b	12(0xc) # 1c019170 <n17_bne_test+0x3d8>
1c019168:	15bed56b 	lu12i.w	$r11,-133461(0xdf6ab)
1c01916c:	0290616b 	addi.w	$r11,$r11,1048(0x418)
1c019170:	147eabbc 	lu12i.w	$r28,259421(0x3f55d)
1c019174:	028dc39c 	addi.w	$r28,$r28,880(0x370)
1c019178:	15bed57d 	lu12i.w	$r29,-133461(0xdf6ab)
1c01917c:	029063bd 	addi.w	$r29,$r29,1048(0x418)
1c019180:	5c0a9d5c 	bne	$r10,$r28,2716(0xa9c) # 1c019c1c <inst_error>
1c019184:	5c0a997d 	bne	$r11,$r29,2712(0xa98) # 1c019c1c <inst_error>
1c019188:	14d4d1f0 	lu12i.w	$r16,435855(0x6a68f)
1c01918c:	02945210 	addi.w	$r16,$r16,1300(0x514)
1c019190:	15efd5b1 	lu12i.w	$r17,-33107(0xf7ead)
1c019194:	028b8231 	addi.w	$r17,$r17,736(0x2e0)
1c019198:	1400000a 	lu12i.w	$r10,0
1c01919c:	1400000b 	lu12i.w	$r11,0
1c0191a0:	50001400 	b	20(0x14) # 1c0191b4 <n17_bne_test+0x41c>
1c0191a4:	14d4d1ea 	lu12i.w	$r10,435855(0x6a68f)
1c0191a8:	0294514a 	addi.w	$r10,$r10,1300(0x514)
1c0191ac:	5c0021ac 	bne	$r13,$r12,32(0x20) # 1c0191cc <n17_bne_test+0x434>
1c0191b0:	50002400 	b	36(0x24) # 1c0191d4 <n17_bne_test+0x43c>
1c0191b4:	15eae74c 	lu12i.w	$r12,-43206(0xf573a)
1c0191b8:	028e2d8c 	addi.w	$r12,$r12,907(0x38b)
1c0191bc:	1472eacd 	lu12i.w	$r13,235350(0x39756)
1c0191c0:	02bcb1ad 	addi.w	$r13,$r13,-212(0xf2c)
1c0191c4:	5fffe18d 	bne	$r12,$r13,-32(0x3ffe0) # 1c0191a4 <n17_bne_test+0x40c>
1c0191c8:	50000c00 	b	12(0xc) # 1c0191d4 <n17_bne_test+0x43c>
1c0191cc:	15efd5ab 	lu12i.w	$r11,-33107(0xf7ead)
1c0191d0:	028b816b 	addi.w	$r11,$r11,736(0x2e0)
1c0191d4:	14d4d1fc 	lu12i.w	$r28,435855(0x6a68f)
1c0191d8:	0294539c 	addi.w	$r28,$r28,1300(0x514)
1c0191dc:	15efd5bd 	lu12i.w	$r29,-33107(0xf7ead)
1c0191e0:	028b83bd 	addi.w	$r29,$r29,736(0x2e0)
1c0191e4:	5c0a395c 	bne	$r10,$r28,2616(0xa38) # 1c019c1c <inst_error>
1c0191e8:	5c0a357d 	bne	$r11,$r29,2612(0xa34) # 1c019c1c <inst_error>
1c0191ec:	147ba8f0 	lu12i.w	$r16,253255(0x3dd47)
1c0191f0:	02891210 	addi.w	$r16,$r16,580(0x244)
1c0191f4:	14a9f771 	lu12i.w	$r17,348091(0x54fbb)
1c0191f8:	02b32a31 	addi.w	$r17,$r17,-822(0xcca)
1c0191fc:	1400000a 	lu12i.w	$r10,0
1c019200:	1400000b 	lu12i.w	$r11,0
1c019204:	50001400 	b	20(0x14) # 1c019218 <n17_bne_test+0x480>
1c019208:	147ba8ea 	lu12i.w	$r10,253255(0x3dd47)
1c01920c:	0289114a 	addi.w	$r10,$r10,580(0x244)
1c019210:	5c0021ac 	bne	$r13,$r12,32(0x20) # 1c019230 <n17_bne_test+0x498>
1c019214:	50002400 	b	36(0x24) # 1c019238 <n17_bne_test+0x4a0>
1c019218:	1495d3ac 	lu12i.w	$r12,306845(0x4ae9d)
1c01921c:	02940d8c 	addi.w	$r12,$r12,1283(0x503)
1c019220:	152c3bed 	lu12i.w	$r13,-433697(0x961df)
1c019224:	028091ad 	addi.w	$r13,$r13,36(0x24)
1c019228:	5fffe18d 	bne	$r12,$r13,-32(0x3ffe0) # 1c019208 <n17_bne_test+0x470>
1c01922c:	50000c00 	b	12(0xc) # 1c019238 <n17_bne_test+0x4a0>
1c019230:	14a9f76b 	lu12i.w	$r11,348091(0x54fbb)
1c019234:	02b3296b 	addi.w	$r11,$r11,-822(0xcca)
1c019238:	147ba8fc 	lu12i.w	$r28,253255(0x3dd47)
1c01923c:	0289139c 	addi.w	$r28,$r28,580(0x244)
1c019240:	14a9f77d 	lu12i.w	$r29,348091(0x54fbb)
1c019244:	02b32bbd 	addi.w	$r29,$r29,-822(0xcca)
1c019248:	5c09d55c 	bne	$r10,$r28,2516(0x9d4) # 1c019c1c <inst_error>
1c01924c:	5c09d17d 	bne	$r11,$r29,2512(0x9d0) # 1c019c1c <inst_error>
1c019250:	15a22190 	lu12i.w	$r16,-192244(0xd110c)
1c019254:	02b30210 	addi.w	$r16,$r16,-832(0xcc0)
1c019258:	15281b91 	lu12i.w	$r17,-442148(0x940dc)
1c01925c:	02a92231 	addi.w	$r17,$r17,-1464(0xa48)
1c019260:	1400000a 	lu12i.w	$r10,0
1c019264:	1400000b 	lu12i.w	$r11,0
1c019268:	50001400 	b	20(0x14) # 1c01927c <n17_bne_test+0x4e4>
1c01926c:	15a2218a 	lu12i.w	$r10,-192244(0xd110c)
1c019270:	02b3014a 	addi.w	$r10,$r10,-832(0xcc0)
1c019274:	5c0021ac 	bne	$r13,$r12,32(0x20) # 1c019294 <n17_bne_test+0x4fc>
1c019278:	50002400 	b	36(0x24) # 1c01929c <n17_bne_test+0x504>
1c01927c:	146eddac 	lu12i.w	$r12,227053(0x376ed)
1c019280:	0285e18c 	addi.w	$r12,$r12,376(0x178)
1c019284:	14711eed 	lu12i.w	$r13,231671(0x388f7)
1c019288:	02a401ad 	addi.w	$r13,$r13,-1792(0x900)
1c01928c:	5fffe18d 	bne	$r12,$r13,-32(0x3ffe0) # 1c01926c <n17_bne_test+0x4d4>
1c019290:	50000c00 	b	12(0xc) # 1c01929c <n17_bne_test+0x504>
1c019294:	15281b8b 	lu12i.w	$r11,-442148(0x940dc)
1c019298:	02a9216b 	addi.w	$r11,$r11,-1464(0xa48)
1c01929c:	15a2219c 	lu12i.w	$r28,-192244(0xd110c)
1c0192a0:	02b3039c 	addi.w	$r28,$r28,-832(0xcc0)
1c0192a4:	15281b9d 	lu12i.w	$r29,-442148(0x940dc)
1c0192a8:	02a923bd 	addi.w	$r29,$r29,-1464(0xa48)
1c0192ac:	5c09715c 	bne	$r10,$r28,2416(0x970) # 1c019c1c <inst_error>
1c0192b0:	5c096d7d 	bne	$r11,$r29,2412(0x96c) # 1c019c1c <inst_error>
1c0192b4:	1469ad90 	lu12i.w	$r16,216428(0x34d6c)
1c0192b8:	02804210 	addi.w	$r16,$r16,16(0x10)
1c0192bc:	1577f0d1 	lu12i.w	$r17,-278650(0xbbf86)
1c0192c0:	02b50231 	addi.w	$r17,$r17,-704(0xd40)
1c0192c4:	1400000a 	lu12i.w	$r10,0
1c0192c8:	1400000b 	lu12i.w	$r11,0
1c0192cc:	50001400 	b	20(0x14) # 1c0192e0 <n17_bne_test+0x548>
1c0192d0:	1469ad8a 	lu12i.w	$r10,216428(0x34d6c)
1c0192d4:	0280414a 	addi.w	$r10,$r10,16(0x10)
1c0192d8:	5c0021ac 	bne	$r13,$r12,32(0x20) # 1c0192f8 <n17_bne_test+0x560>
1c0192dc:	50002400 	b	36(0x24) # 1c019300 <n17_bne_test+0x568>
1c0192e0:	14e4d16c 	lu12i.w	$r12,468619(0x7268b)
1c0192e4:	0283658c 	addi.w	$r12,$r12,217(0xd9)
1c0192e8:	14948ecd 	lu12i.w	$r13,304246(0x4a476)
1c0192ec:	02b44dad 	addi.w	$r13,$r13,-749(0xd13)
1c0192f0:	5fffe18d 	bne	$r12,$r13,-32(0x3ffe0) # 1c0192d0 <n17_bne_test+0x538>
1c0192f4:	50000c00 	b	12(0xc) # 1c019300 <n17_bne_test+0x568>
1c0192f8:	1577f0cb 	lu12i.w	$r11,-278650(0xbbf86)
1c0192fc:	02b5016b 	addi.w	$r11,$r11,-704(0xd40)
1c019300:	1469ad9c 	lu12i.w	$r28,216428(0x34d6c)
1c019304:	0280439c 	addi.w	$r28,$r28,16(0x10)
1c019308:	1577f0dd 	lu12i.w	$r29,-278650(0xbbf86)
1c01930c:	02b503bd 	addi.w	$r29,$r29,-704(0xd40)
1c019310:	5c090d5c 	bne	$r10,$r28,2316(0x90c) # 1c019c1c <inst_error>
1c019314:	5c09097d 	bne	$r11,$r29,2312(0x908) # 1c019c1c <inst_error>
1c019318:	15fcc8b0 	lu12i.w	$r16,-6587(0xfe645)
1c01931c:	02a35a10 	addi.w	$r16,$r16,-1834(0x8d6)
1c019320:	14592a11 	lu12i.w	$r17,182608(0x2c950)
1c019324:	02801631 	addi.w	$r17,$r17,5(0x5)
1c019328:	1400000a 	lu12i.w	$r10,0
1c01932c:	1400000b 	lu12i.w	$r11,0
1c019330:	50001400 	b	20(0x14) # 1c019344 <n17_bne_test+0x5ac>
1c019334:	15fcc8aa 	lu12i.w	$r10,-6587(0xfe645)
1c019338:	02a3594a 	addi.w	$r10,$r10,-1834(0x8d6)
1c01933c:	5c0021ac 	bne	$r13,$r12,32(0x20) # 1c01935c <n17_bne_test+0x5c4>
1c019340:	50002400 	b	36(0x24) # 1c019364 <n17_bne_test+0x5cc>
1c019344:	1405efec 	lu12i.w	$r12,12159(0x2f7f)
1c019348:	02a3098c 	addi.w	$r12,$r12,-1854(0x8c2)
1c01934c:	15f414cd 	lu12i.w	$r13,-24410(0xfa0a6)
1c019350:	02b229ad 	addi.w	$r13,$r13,-886(0xc8a)
1c019354:	5fffe18d 	bne	$r12,$r13,-32(0x3ffe0) # 1c019334 <n17_bne_test+0x59c>
1c019358:	50000c00 	b	12(0xc) # 1c019364 <n17_bne_test+0x5cc>
1c01935c:	14592a0b 	lu12i.w	$r11,182608(0x2c950)
1c019360:	0280156b 	addi.w	$r11,$r11,5(0x5)
1c019364:	15fcc8bc 	lu12i.w	$r28,-6587(0xfe645)
1c019368:	02a35b9c 	addi.w	$r28,$r28,-1834(0x8d6)
1c01936c:	14592a1d 	lu12i.w	$r29,182608(0x2c950)
1c019370:	028017bd 	addi.w	$r29,$r29,5(0x5)
1c019374:	5c08a95c 	bne	$r10,$r28,2216(0x8a8) # 1c019c1c <inst_error>
1c019378:	5c08a57d 	bne	$r11,$r29,2212(0x8a4) # 1c019c1c <inst_error>
1c01937c:	14f9da30 	lu12i.w	$r16,511697(0x7ced1)
1c019380:	02806210 	addi.w	$r16,$r16,24(0x18)
1c019384:	14a16d71 	lu12i.w	$r17,330603(0x50b6b)
1c019388:	02a15631 	addi.w	$r17,$r17,-1963(0x855)
1c01938c:	1400000a 	lu12i.w	$r10,0
1c019390:	1400000b 	lu12i.w	$r11,0
1c019394:	50001400 	b	20(0x14) # 1c0193a8 <n17_bne_test+0x610>
1c019398:	14f9da2a 	lu12i.w	$r10,511697(0x7ced1)
1c01939c:	0280614a 	addi.w	$r10,$r10,24(0x18)
1c0193a0:	5c0021ac 	bne	$r13,$r12,32(0x20) # 1c0193c0 <n17_bne_test+0x628>
1c0193a4:	50002400 	b	36(0x24) # 1c0193c8 <n17_bne_test+0x630>
1c0193a8:	1544e54c 	lu12i.w	$r12,-383190(0xa272a)
1c0193ac:	02b5c98c 	addi.w	$r12,$r12,-654(0xd72)
1c0193b0:	155d3e2d 	lu12i.w	$r13,-333327(0xae9f1)
1c0193b4:	02b2f1ad 	addi.w	$r13,$r13,-836(0xcbc)
1c0193b8:	5fffe18d 	bne	$r12,$r13,-32(0x3ffe0) # 1c019398 <n17_bne_test+0x600>
1c0193bc:	50000c00 	b	12(0xc) # 1c0193c8 <n17_bne_test+0x630>
1c0193c0:	14a16d6b 	lu12i.w	$r11,330603(0x50b6b)
1c0193c4:	02a1556b 	addi.w	$r11,$r11,-1963(0x855)
1c0193c8:	14f9da3c 	lu12i.w	$r28,511697(0x7ced1)
1c0193cc:	0280639c 	addi.w	$r28,$r28,24(0x18)
1c0193d0:	14a16d7d 	lu12i.w	$r29,330603(0x50b6b)
1c0193d4:	02a157bd 	addi.w	$r29,$r29,-1963(0x855)
1c0193d8:	5c08455c 	bne	$r10,$r28,2116(0x844) # 1c019c1c <inst_error>
1c0193dc:	5c08417d 	bne	$r11,$r29,2112(0x840) # 1c019c1c <inst_error>
1c0193e0:	15e646b0 	lu12i.w	$r16,-52683(0xf3235)
1c0193e4:	02960210 	addi.w	$r16,$r16,1408(0x580)
1c0193e8:	149133b1 	lu12i.w	$r17,297373(0x4899d)
1c0193ec:	02a55231 	addi.w	$r17,$r17,-1708(0x954)
1c0193f0:	1400000a 	lu12i.w	$r10,0
1c0193f4:	1400000b 	lu12i.w	$r11,0
1c0193f8:	50001400 	b	20(0x14) # 1c01940c <n17_bne_test+0x674>
1c0193fc:	15e646aa 	lu12i.w	$r10,-52683(0xf3235)
1c019400:	0296014a 	addi.w	$r10,$r10,1408(0x580)
1c019404:	5c0021ac 	bne	$r13,$r12,32(0x20) # 1c019424 <n17_bne_test+0x68c>
1c019408:	50002400 	b	36(0x24) # 1c01942c <n17_bne_test+0x694>
1c01940c:	14a302ec 	lu12i.w	$r12,333847(0x51817)
1c019410:	02bc458c 	addi.w	$r12,$r12,-239(0xf11)
1c019414:	147158cd 	lu12i.w	$r13,232134(0x38ac6)
1c019418:	0296f5ad 	addi.w	$r13,$r13,1469(0x5bd)
1c01941c:	5fffe18d 	bne	$r12,$r13,-32(0x3ffe0) # 1c0193fc <n17_bne_test+0x664>
1c019420:	50000c00 	b	12(0xc) # 1c01942c <n17_bne_test+0x694>
1c019424:	149133ab 	lu12i.w	$r11,297373(0x4899d)
1c019428:	02a5516b 	addi.w	$r11,$r11,-1708(0x954)
1c01942c:	15e646bc 	lu12i.w	$r28,-52683(0xf3235)
1c019430:	0296039c 	addi.w	$r28,$r28,1408(0x580)
1c019434:	149133bd 	lu12i.w	$r29,297373(0x4899d)
1c019438:	02a553bd 	addi.w	$r29,$r29,-1708(0x954)
1c01943c:	5c07e15c 	bne	$r10,$r28,2016(0x7e0) # 1c019c1c <inst_error>
1c019440:	5c07dd7d 	bne	$r11,$r29,2012(0x7dc) # 1c019c1c <inst_error>
1c019444:	15fceab0 	lu12i.w	$r16,-6315(0xfe755)
1c019448:	029a1210 	addi.w	$r16,$r16,1668(0x684)
1c01944c:	151501f1 	lu12i.w	$r17,-481265(0x8a80f)
1c019450:	02acd631 	addi.w	$r17,$r17,-1227(0xb35)
1c019454:	1400000a 	lu12i.w	$r10,0
1c019458:	1400000b 	lu12i.w	$r11,0
1c01945c:	50001400 	b	20(0x14) # 1c019470 <n17_bne_test+0x6d8>
1c019460:	15fceaaa 	lu12i.w	$r10,-6315(0xfe755)
1c019464:	029a114a 	addi.w	$r10,$r10,1668(0x684)
1c019468:	5c0021ac 	bne	$r13,$r12,32(0x20) # 1c019488 <n17_bne_test+0x6f0>
1c01946c:	50002400 	b	36(0x24) # 1c019490 <n17_bne_test+0x6f8>
1c019470:	14d7680c 	lu12i.w	$r12,441152(0x6bb40)
1c019474:	0282418c 	addi.w	$r12,$r12,144(0x90)
1c019478:	14ea262d 	lu12i.w	$r13,479537(0x75131)
1c01947c:	02b401ad 	addi.w	$r13,$r13,-768(0xd00)
1c019480:	5fffe18d 	bne	$r12,$r13,-32(0x3ffe0) # 1c019460 <n17_bne_test+0x6c8>
1c019484:	50000c00 	b	12(0xc) # 1c019490 <n17_bne_test+0x6f8>
1c019488:	151501eb 	lu12i.w	$r11,-481265(0x8a80f)
1c01948c:	02acd56b 	addi.w	$r11,$r11,-1227(0xb35)
1c019490:	15fceabc 	lu12i.w	$r28,-6315(0xfe755)
1c019494:	029a139c 	addi.w	$r28,$r28,1668(0x684)
1c019498:	151501fd 	lu12i.w	$r29,-481265(0x8a80f)
1c01949c:	02acd7bd 	addi.w	$r29,$r29,-1227(0xb35)
1c0194a0:	5c077d5c 	bne	$r10,$r28,1916(0x77c) # 1c019c1c <inst_error>
1c0194a4:	5c07797d 	bne	$r11,$r29,1912(0x778) # 1c019c1c <inst_error>
1c0194a8:	14ec9ab0 	lu12i.w	$r16,484565(0x764d5)
1c0194ac:	02944210 	addi.w	$r16,$r16,1296(0x510)
1c0194b0:	156df5f1 	lu12i.w	$r17,-299089(0xb6faf)
1c0194b4:	02a88231 	addi.w	$r17,$r17,-1504(0xa20)
1c0194b8:	1400000a 	lu12i.w	$r10,0
1c0194bc:	1400000b 	lu12i.w	$r11,0
1c0194c0:	50001400 	b	20(0x14) # 1c0194d4 <n17_bne_test+0x73c>
1c0194c4:	14ec9aaa 	lu12i.w	$r10,484565(0x764d5)
1c0194c8:	0294414a 	addi.w	$r10,$r10,1296(0x510)
1c0194cc:	5c0021ac 	bne	$r13,$r12,32(0x20) # 1c0194ec <n17_bne_test+0x754>
1c0194d0:	50002400 	b	36(0x24) # 1c0194f4 <n17_bne_test+0x75c>
1c0194d4:	1589c3ec 	lu12i.w	$r12,-242145(0xc4e1f)
1c0194d8:	028c818c 	addi.w	$r12,$r12,800(0x320)
1c0194dc:	15eda0ed 	lu12i.w	$r13,-37625(0xf6d07)
1c0194e0:	028081ad 	addi.w	$r13,$r13,32(0x20)
1c0194e4:	5fffe18d 	bne	$r12,$r13,-32(0x3ffe0) # 1c0194c4 <n17_bne_test+0x72c>
1c0194e8:	50000c00 	b	12(0xc) # 1c0194f4 <n17_bne_test+0x75c>
1c0194ec:	156df5eb 	lu12i.w	$r11,-299089(0xb6faf)
1c0194f0:	02a8816b 	addi.w	$r11,$r11,-1504(0xa20)
1c0194f4:	14ec9abc 	lu12i.w	$r28,484565(0x764d5)
1c0194f8:	0294439c 	addi.w	$r28,$r28,1296(0x510)
1c0194fc:	156df5fd 	lu12i.w	$r29,-299089(0xb6faf)
1c019500:	02a883bd 	addi.w	$r29,$r29,-1504(0xa20)
1c019504:	5c07195c 	bne	$r10,$r28,1816(0x718) # 1c019c1c <inst_error>
1c019508:	5c07157d 	bne	$r11,$r29,1812(0x714) # 1c019c1c <inst_error>
1c01950c:	151871d0 	lu12i.w	$r16,-474226(0x8c38e)
1c019510:	02b78210 	addi.w	$r16,$r16,-544(0xde0)
1c019514:	15b04111 	lu12i.w	$r17,-163320(0xd8208)
1c019518:	0296a231 	addi.w	$r17,$r17,1448(0x5a8)
1c01951c:	1400000a 	lu12i.w	$r10,0
1c019520:	1400000b 	lu12i.w	$r11,0
1c019524:	50001400 	b	20(0x14) # 1c019538 <n17_bne_test+0x7a0>
1c019528:	151871ca 	lu12i.w	$r10,-474226(0x8c38e)
1c01952c:	02b7814a 	addi.w	$r10,$r10,-544(0xde0)
1c019530:	5c0021ac 	bne	$r13,$r12,32(0x20) # 1c019550 <n17_bne_test+0x7b8>
1c019534:	50002400 	b	36(0x24) # 1c019558 <n17_bne_test+0x7c0>
1c019538:	1436350c 	lu12i.w	$r12,111016(0x1b1a8)
1c01953c:	0283018c 	addi.w	$r12,$r12,192(0xc0)
1c019540:	147f454d 	lu12i.w	$r13,260650(0x3fa2a)
1c019544:	028211ad 	addi.w	$r13,$r13,132(0x84)
1c019548:	5fffe18d 	bne	$r12,$r13,-32(0x3ffe0) # 1c019528 <n17_bne_test+0x790>
1c01954c:	50000c00 	b	12(0xc) # 1c019558 <n17_bne_test+0x7c0>
1c019550:	15b0410b 	lu12i.w	$r11,-163320(0xd8208)
1c019554:	0296a16b 	addi.w	$r11,$r11,1448(0x5a8)
1c019558:	151871dc 	lu12i.w	$r28,-474226(0x8c38e)
1c01955c:	02b7839c 	addi.w	$r28,$r28,-544(0xde0)
1c019560:	15b0411d 	lu12i.w	$r29,-163320(0xd8208)
1c019564:	0296a3bd 	addi.w	$r29,$r29,1448(0x5a8)
1c019568:	5c06b55c 	bne	$r10,$r28,1716(0x6b4) # 1c019c1c <inst_error>
1c01956c:	5c06b17d 	bne	$r11,$r29,1712(0x6b0) # 1c019c1c <inst_error>
1c019570:	14aaa9b0 	lu12i.w	$r16,349517(0x5554d)
1c019574:	02b02210 	addi.w	$r16,$r16,-1016(0xc08)
1c019578:	15fdf3f1 	lu12i.w	$r17,-4193(0xfef9f)
1c01957c:	02af4231 	addi.w	$r17,$r17,-1072(0xbd0)
1c019580:	1400000a 	lu12i.w	$r10,0
1c019584:	1400000b 	lu12i.w	$r11,0
1c019588:	50001400 	b	20(0x14) # 1c01959c <n17_bne_test+0x804>
1c01958c:	14aaa9aa 	lu12i.w	$r10,349517(0x5554d)
1c019590:	02b0214a 	addi.w	$r10,$r10,-1016(0xc08)
1c019594:	5c0021ac 	bne	$r13,$r12,32(0x20) # 1c0195b4 <n17_bne_test+0x81c>
1c019598:	50002400 	b	36(0x24) # 1c0195bc <n17_bne_test+0x824>
1c01959c:	1425df4c 	lu12i.w	$r12,77562(0x12efa)
1c0195a0:	028d318c 	addi.w	$r12,$r12,844(0x34c)
1c0195a4:	155fa4ad 	lu12i.w	$r13,-328411(0xafd25)
1c0195a8:	02b1e9ad 	addi.w	$r13,$r13,-902(0xc7a)
1c0195ac:	5fffe18d 	bne	$r12,$r13,-32(0x3ffe0) # 1c01958c <n17_bne_test+0x7f4>
1c0195b0:	50000c00 	b	12(0xc) # 1c0195bc <n17_bne_test+0x824>
1c0195b4:	15fdf3eb 	lu12i.w	$r11,-4193(0xfef9f)
1c0195b8:	02af416b 	addi.w	$r11,$r11,-1072(0xbd0)
1c0195bc:	14aaa9bc 	lu12i.w	$r28,349517(0x5554d)
1c0195c0:	02b0239c 	addi.w	$r28,$r28,-1016(0xc08)
1c0195c4:	15fdf3fd 	lu12i.w	$r29,-4193(0xfef9f)
1c0195c8:	02af43bd 	addi.w	$r29,$r29,-1072(0xbd0)
1c0195cc:	5c06515c 	bne	$r10,$r28,1616(0x650) # 1c019c1c <inst_error>
1c0195d0:	5c064d7d 	bne	$r11,$r29,1612(0x64c) # 1c019c1c <inst_error>
1c0195d4:	15b24e90 	lu12i.w	$r16,-159116(0xd9274)
1c0195d8:	02bb4210 	addi.w	$r16,$r16,-304(0xed0)
1c0195dc:	14a4f311 	lu12i.w	$r17,337816(0x52798)
1c0195e0:	029b0231 	addi.w	$r17,$r17,1728(0x6c0)
1c0195e4:	1400000a 	lu12i.w	$r10,0
1c0195e8:	1400000b 	lu12i.w	$r11,0
1c0195ec:	50001400 	b	20(0x14) # 1c019600 <n17_bne_test+0x868>
1c0195f0:	15b24e8a 	lu12i.w	$r10,-159116(0xd9274)
1c0195f4:	02bb414a 	addi.w	$r10,$r10,-304(0xed0)
1c0195f8:	5c0021ac 	bne	$r13,$r12,32(0x20) # 1c019618 <n17_bne_test+0x880>
1c0195fc:	50002400 	b	36(0x24) # 1c019620 <n17_bne_test+0x888>
1c019600:	14af38cc 	lu12i.w	$r12,358854(0x579c6)
1c019604:	02a0018c 	addi.w	$r12,$r12,-2048(0x800)
1c019608:	15b40c0d 	lu12i.w	$r13,-155552(0xda060)
1c01960c:	02b001ad 	addi.w	$r13,$r13,-1024(0xc00)
1c019610:	5fffe18d 	bne	$r12,$r13,-32(0x3ffe0) # 1c0195f0 <n17_bne_test+0x858>
1c019614:	50000c00 	b	12(0xc) # 1c019620 <n17_bne_test+0x888>
1c019618:	14a4f30b 	lu12i.w	$r11,337816(0x52798)
1c01961c:	029b016b 	addi.w	$r11,$r11,1728(0x6c0)
1c019620:	15b24e9c 	lu12i.w	$r28,-159116(0xd9274)
1c019624:	02bb439c 	addi.w	$r28,$r28,-304(0xed0)
1c019628:	14a4f31d 	lu12i.w	$r29,337816(0x52798)
1c01962c:	029b03bd 	addi.w	$r29,$r29,1728(0x6c0)
1c019630:	5c05ed5c 	bne	$r10,$r28,1516(0x5ec) # 1c019c1c <inst_error>
1c019634:	5c05e97d 	bne	$r11,$r29,1512(0x5e8) # 1c019c1c <inst_error>
1c019638:	15958310 	lu12i.w	$r16,-218088(0xcac18)
1c01963c:	028ac210 	addi.w	$r16,$r16,688(0x2b0)
1c019640:	15e45251 	lu12i.w	$r17,-56686(0xf2292)
1c019644:	02b27231 	addi.w	$r17,$r17,-868(0xc9c)
1c019648:	1400000a 	lu12i.w	$r10,0
1c01964c:	1400000b 	lu12i.w	$r11,0
1c019650:	50001400 	b	20(0x14) # 1c019664 <n17_bne_test+0x8cc>
1c019654:	1595830a 	lu12i.w	$r10,-218088(0xcac18)
1c019658:	028ac14a 	addi.w	$r10,$r10,688(0x2b0)
1c01965c:	5c0021ac 	bne	$r13,$r12,32(0x20) # 1c01967c <n17_bne_test+0x8e4>
1c019660:	50002400 	b	36(0x24) # 1c019684 <n17_bne_test+0x8ec>
1c019664:	14ddad4c 	lu12i.w	$r12,453994(0x6ed6a)
1c019668:	02b8018c 	addi.w	$r12,$r12,-512(0xe00)
1c01966c:	1593794d 	lu12i.w	$r13,-222262(0xc9bca)
1c019670:	02b1d1ad 	addi.w	$r13,$r13,-908(0xc74)
1c019674:	5fffe18d 	bne	$r12,$r13,-32(0x3ffe0) # 1c019654 <n17_bne_test+0x8bc>
1c019678:	50000c00 	b	12(0xc) # 1c019684 <n17_bne_test+0x8ec>
1c01967c:	15e4524b 	lu12i.w	$r11,-56686(0xf2292)
1c019680:	02b2716b 	addi.w	$r11,$r11,-868(0xc9c)
1c019684:	1595831c 	lu12i.w	$r28,-218088(0xcac18)
1c019688:	028ac39c 	addi.w	$r28,$r28,688(0x2b0)
1c01968c:	15e4525d 	lu12i.w	$r29,-56686(0xf2292)
1c019690:	02b273bd 	addi.w	$r29,$r29,-868(0xc9c)
1c019694:	5c05895c 	bne	$r10,$r28,1416(0x588) # 1c019c1c <inst_error>
1c019698:	5c05857d 	bne	$r11,$r29,1412(0x584) # 1c019c1c <inst_error>
1c01969c:	14f936d0 	lu12i.w	$r16,510390(0x7c9b6)
1c0196a0:	02aefa10 	addi.w	$r16,$r16,-1090(0xbbe)
1c0196a4:	14d0aa91 	lu12i.w	$r17,427348(0x68554)
1c0196a8:	02800231 	addi.w	$r17,$r17,0
1c0196ac:	1400000a 	lu12i.w	$r10,0
1c0196b0:	1400000b 	lu12i.w	$r11,0
1c0196b4:	50001400 	b	20(0x14) # 1c0196c8 <n17_bne_test+0x930>
1c0196b8:	14f936ca 	lu12i.w	$r10,510390(0x7c9b6)
1c0196bc:	02aef94a 	addi.w	$r10,$r10,-1090(0xbbe)
1c0196c0:	5c0021ac 	bne	$r13,$r12,32(0x20) # 1c0196e0 <n17_bne_test+0x948>
1c0196c4:	50002400 	b	36(0x24) # 1c0196e8 <n17_bne_test+0x950>
1c0196c8:	159462ac 	lu12i.w	$r12,-220395(0xca315)
1c0196cc:	02b23d8c 	addi.w	$r12,$r12,-881(0xc8f)
1c0196d0:	1411972d 	lu12i.w	$r13,36025(0x8cb9)
1c0196d4:	02b101ad 	addi.w	$r13,$r13,-960(0xc40)
1c0196d8:	5fffe18d 	bne	$r12,$r13,-32(0x3ffe0) # 1c0196b8 <n17_bne_test+0x920>
1c0196dc:	50000c00 	b	12(0xc) # 1c0196e8 <n17_bne_test+0x950>
1c0196e0:	14d0aa8b 	lu12i.w	$r11,427348(0x68554)
1c0196e4:	0280016b 	addi.w	$r11,$r11,0
1c0196e8:	14f936dc 	lu12i.w	$r28,510390(0x7c9b6)
1c0196ec:	02aefb9c 	addi.w	$r28,$r28,-1090(0xbbe)
1c0196f0:	14d0aa9d 	lu12i.w	$r29,427348(0x68554)
1c0196f4:	028003bd 	addi.w	$r29,$r29,0
1c0196f8:	5c05255c 	bne	$r10,$r28,1316(0x524) # 1c019c1c <inst_error>
1c0196fc:	5c05217d 	bne	$r11,$r29,1312(0x520) # 1c019c1c <inst_error>
1c019700:	151600d0 	lu12i.w	$r16,-479226(0x8b006)
1c019704:	02b73210 	addi.w	$r16,$r16,-564(0xdcc)
1c019708:	1422f091 	lu12i.w	$r17,71556(0x11784)
1c01970c:	028c2a31 	addi.w	$r17,$r17,778(0x30a)
1c019710:	1400000a 	lu12i.w	$r10,0
1c019714:	1400000b 	lu12i.w	$r11,0
1c019718:	50001400 	b	20(0x14) # 1c01972c <n17_bne_test+0x994>
1c01971c:	151600ca 	lu12i.w	$r10,-479226(0x8b006)
1c019720:	02b7314a 	addi.w	$r10,$r10,-564(0xdcc)
1c019724:	5c0021ac 	bne	$r13,$r12,32(0x20) # 1c019744 <n17_bne_test+0x9ac>
1c019728:	50002400 	b	36(0x24) # 1c01974c <n17_bne_test+0x9b4>
1c01972c:	14b68e0c 	lu12i.w	$r12,373872(0x5b470)
1c019730:	0298a18c 	addi.w	$r12,$r12,1576(0x628)
1c019734:	147fe74d 	lu12i.w	$r13,261946(0x3ff3a)
1c019738:	02bee1ad 	addi.w	$r13,$r13,-72(0xfb8)
1c01973c:	5fffe18d 	bne	$r12,$r13,-32(0x3ffe0) # 1c01971c <n17_bne_test+0x984>
1c019740:	50000c00 	b	12(0xc) # 1c01974c <n17_bne_test+0x9b4>
1c019744:	1422f08b 	lu12i.w	$r11,71556(0x11784)
1c019748:	028c296b 	addi.w	$r11,$r11,778(0x30a)
1c01974c:	151600dc 	lu12i.w	$r28,-479226(0x8b006)
1c019750:	02b7339c 	addi.w	$r28,$r28,-564(0xdcc)
1c019754:	1422f09d 	lu12i.w	$r29,71556(0x11784)
1c019758:	028c2bbd 	addi.w	$r29,$r29,778(0x30a)
1c01975c:	5c04c15c 	bne	$r10,$r28,1216(0x4c0) # 1c019c1c <inst_error>
1c019760:	5c04bd7d 	bne	$r11,$r29,1212(0x4bc) # 1c019c1c <inst_error>
1c019764:	15c75ad0 	lu12i.w	$r16,-116010(0xe3ad6)
1c019768:	02932210 	addi.w	$r16,$r16,1224(0x4c8)
1c01976c:	15ccdab1 	lu12i.w	$r17,-104747(0xe66d5)
1c019770:	028bf231 	addi.w	$r17,$r17,764(0x2fc)
1c019774:	1400000a 	lu12i.w	$r10,0
1c019778:	1400000b 	lu12i.w	$r11,0
1c01977c:	50001400 	b	20(0x14) # 1c019790 <n17_bne_test+0x9f8>
1c019780:	15c75aca 	lu12i.w	$r10,-116010(0xe3ad6)
1c019784:	0293214a 	addi.w	$r10,$r10,1224(0x4c8)
1c019788:	5c0021ac 	bne	$r13,$r12,32(0x20) # 1c0197a8 <n17_bne_test+0xa10>
1c01978c:	50002400 	b	36(0x24) # 1c0197b0 <n17_bne_test+0xa18>
1c019790:	14cc2f4c 	lu12i.w	$r12,418170(0x6617a)
1c019794:	028f298c 	addi.w	$r12,$r12,970(0x3ca)
1c019798:	1496a8ed 	lu12i.w	$r13,308551(0x4b547)
1c01979c:	02adc1ad 	addi.w	$r13,$r13,-1168(0xb70)
1c0197a0:	5fffe18d 	bne	$r12,$r13,-32(0x3ffe0) # 1c019780 <n17_bne_test+0x9e8>
1c0197a4:	50000c00 	b	12(0xc) # 1c0197b0 <n17_bne_test+0xa18>
1c0197a8:	15ccdaab 	lu12i.w	$r11,-104747(0xe66d5)
1c0197ac:	028bf16b 	addi.w	$r11,$r11,764(0x2fc)
1c0197b0:	15c75adc 	lu12i.w	$r28,-116010(0xe3ad6)
1c0197b4:	0293239c 	addi.w	$r28,$r28,1224(0x4c8)
1c0197b8:	15ccdabd 	lu12i.w	$r29,-104747(0xe66d5)
1c0197bc:	028bf3bd 	addi.w	$r29,$r29,764(0x2fc)
1c0197c0:	5c045d5c 	bne	$r10,$r28,1116(0x45c) # 1c019c1c <inst_error>
1c0197c4:	5c04597d 	bne	$r11,$r29,1112(0x458) # 1c019c1c <inst_error>
1c0197c8:	15d91dd0 	lu12i.w	$r16,-79634(0xec8ee)
1c0197cc:	02a7fa10 	addi.w	$r16,$r16,-1538(0x9fe)
1c0197d0:	144accf1 	lu12i.w	$r17,153191(0x25667)
1c0197d4:	02970231 	addi.w	$r17,$r17,1472(0x5c0)
1c0197d8:	1400000a 	lu12i.w	$r10,0
1c0197dc:	1400000b 	lu12i.w	$r11,0
1c0197e0:	50001400 	b	20(0x14) # 1c0197f4 <n17_bne_test+0xa5c>
1c0197e4:	15d91dca 	lu12i.w	$r10,-79634(0xec8ee)
1c0197e8:	02a7f94a 	addi.w	$r10,$r10,-1538(0x9fe)
1c0197ec:	5c0021ac 	bne	$r13,$r12,32(0x20) # 1c01980c <n17_bne_test+0xa74>
1c0197f0:	50002400 	b	36(0x24) # 1c019814 <n17_bne_test+0xa7c>
1c0197f4:	158f37ac 	lu12i.w	$r12,-230979(0xc79bd)
1c0197f8:	02bc018c 	addi.w	$r12,$r12,-256(0xf00)
1c0197fc:	1544bd0d 	lu12i.w	$r13,-383512(0xa25e8)
1c019800:	02ae59ad 	addi.w	$r13,$r13,-1130(0xb96)
1c019804:	5fffe18d 	bne	$r12,$r13,-32(0x3ffe0) # 1c0197e4 <n17_bne_test+0xa4c>
1c019808:	50000c00 	b	12(0xc) # 1c019814 <n17_bne_test+0xa7c>
1c01980c:	144acceb 	lu12i.w	$r11,153191(0x25667)
1c019810:	0297016b 	addi.w	$r11,$r11,1472(0x5c0)
1c019814:	15d91ddc 	lu12i.w	$r28,-79634(0xec8ee)
1c019818:	02a7fb9c 	addi.w	$r28,$r28,-1538(0x9fe)
1c01981c:	144accfd 	lu12i.w	$r29,153191(0x25667)
1c019820:	029703bd 	addi.w	$r29,$r29,1472(0x5c0)
1c019824:	5c03f95c 	bne	$r10,$r28,1016(0x3f8) # 1c019c1c <inst_error>
1c019828:	5c03f57d 	bne	$r11,$r29,1012(0x3f4) # 1c019c1c <inst_error>
1c01982c:	15e16270 	lu12i.w	$r16,-62701(0xf0b13)
1c019830:	028c8210 	addi.w	$r16,$r16,800(0x320)
1c019834:	1464c031 	lu12i.w	$r17,206337(0x32601)
1c019838:	02a92231 	addi.w	$r17,$r17,-1464(0xa48)
1c01983c:	1400000a 	lu12i.w	$r10,0
1c019840:	1400000b 	lu12i.w	$r11,0
1c019844:	50001400 	b	20(0x14) # 1c019858 <n17_bne_test+0xac0>
1c019848:	15e1626a 	lu12i.w	$r10,-62701(0xf0b13)
1c01984c:	028c814a 	addi.w	$r10,$r10,800(0x320)
1c019850:	5c0021ac 	bne	$r13,$r12,32(0x20) # 1c019870 <n17_bne_test+0xad8>
1c019854:	50002400 	b	36(0x24) # 1c019878 <n17_bne_test+0xae0>
1c019858:	14c9f18c 	lu12i.w	$r12,413580(0x64f8c)
1c01985c:	02b4f18c 	addi.w	$r12,$r12,-708(0xd3c)
1c019860:	15bb004d 	lu12i.w	$r13,-141310(0xdd802)
1c019864:	02bb01ad 	addi.w	$r13,$r13,-320(0xec0)
1c019868:	5fffe18d 	bne	$r12,$r13,-32(0x3ffe0) # 1c019848 <n17_bne_test+0xab0>
1c01986c:	50000c00 	b	12(0xc) # 1c019878 <n17_bne_test+0xae0>
1c019870:	1464c02b 	lu12i.w	$r11,206337(0x32601)
1c019874:	02a9216b 	addi.w	$r11,$r11,-1464(0xa48)
1c019878:	15e1627c 	lu12i.w	$r28,-62701(0xf0b13)
1c01987c:	028c839c 	addi.w	$r28,$r28,800(0x320)
1c019880:	1464c03d 	lu12i.w	$r29,206337(0x32601)
1c019884:	02a923bd 	addi.w	$r29,$r29,-1464(0xa48)
1c019888:	5c03955c 	bne	$r10,$r28,916(0x394) # 1c019c1c <inst_error>
1c01988c:	5c03917d 	bne	$r11,$r29,912(0x390) # 1c019c1c <inst_error>
1c019890:	1504edf0 	lu12i.w	$r16,-514193(0x8276f)
1c019894:	02810210 	addi.w	$r16,$r16,64(0x40)
1c019898:	154a4291 	lu12i.w	$r17,-372204(0xa5214)
1c01989c:	029d0631 	addi.w	$r17,$r17,1857(0x741)
1c0198a0:	1400000a 	lu12i.w	$r10,0
1c0198a4:	1400000b 	lu12i.w	$r11,0
1c0198a8:	50001400 	b	20(0x14) # 1c0198bc <n17_bne_test+0xb24>
1c0198ac:	1504edea 	lu12i.w	$r10,-514193(0x8276f)
1c0198b0:	0281014a 	addi.w	$r10,$r10,64(0x40)
1c0198b4:	5c0021ac 	bne	$r13,$r12,32(0x20) # 1c0198d4 <n17_bne_test+0xb3c>
1c0198b8:	50002400 	b	36(0x24) # 1c0198dc <n17_bne_test+0xb44>
1c0198bc:	14c00f6c 	lu12i.w	$r12,393339(0x6007b)
1c0198c0:	02b8c98c 	addi.w	$r12,$r12,-462(0xe32)
1c0198c4:	15c4ac6d 	lu12i.w	$r13,-121501(0xe2563)
1c0198c8:	02bc95ad 	addi.w	$r13,$r13,-219(0xf25)
1c0198cc:	5fffe18d 	bne	$r12,$r13,-32(0x3ffe0) # 1c0198ac <n17_bne_test+0xb14>
1c0198d0:	50000c00 	b	12(0xc) # 1c0198dc <n17_bne_test+0xb44>
1c0198d4:	154a428b 	lu12i.w	$r11,-372204(0xa5214)
1c0198d8:	029d056b 	addi.w	$r11,$r11,1857(0x741)
1c0198dc:	1504edfc 	lu12i.w	$r28,-514193(0x8276f)
1c0198e0:	0281039c 	addi.w	$r28,$r28,64(0x40)
1c0198e4:	154a429d 	lu12i.w	$r29,-372204(0xa5214)
1c0198e8:	029d07bd 	addi.w	$r29,$r29,1857(0x741)
1c0198ec:	5c03315c 	bne	$r10,$r28,816(0x330) # 1c019c1c <inst_error>
1c0198f0:	5c032d7d 	bne	$r11,$r29,812(0x32c) # 1c019c1c <inst_error>
1c0198f4:	15263930 	lu12i.w	$r16,-446007(0x931c9)
1c0198f8:	0296d210 	addi.w	$r16,$r16,1460(0x5b4)
1c0198fc:	1480aa11 	lu12i.w	$r17,263504(0x40550)
1c019900:	02a7c231 	addi.w	$r17,$r17,-1552(0x9f0)
1c019904:	1400000a 	lu12i.w	$r10,0
1c019908:	1400000b 	lu12i.w	$r11,0
1c01990c:	50001400 	b	20(0x14) # 1c019920 <n17_bne_test+0xb88>
1c019910:	1526392a 	lu12i.w	$r10,-446007(0x931c9)
1c019914:	0296d14a 	addi.w	$r10,$r10,1460(0x5b4)
1c019918:	5c0021ac 	bne	$r13,$r12,32(0x20) # 1c019938 <n17_bne_test+0xba0>
1c01991c:	50002400 	b	36(0x24) # 1c019940 <n17_bne_test+0xba8>
1c019920:	146f364c 	lu12i.w	$r12,227762(0x379b2)
1c019924:	028a558c 	addi.w	$r12,$r12,661(0x295)
1c019928:	1419f52d 	lu12i.w	$r13,53161(0xcfa9)
1c01992c:	02b071ad 	addi.w	$r13,$r13,-996(0xc1c)
1c019930:	5fffe18d 	bne	$r12,$r13,-32(0x3ffe0) # 1c019910 <n17_bne_test+0xb78>
1c019934:	50000c00 	b	12(0xc) # 1c019940 <n17_bne_test+0xba8>
1c019938:	1480aa0b 	lu12i.w	$r11,263504(0x40550)
1c01993c:	02a7c16b 	addi.w	$r11,$r11,-1552(0x9f0)
1c019940:	1526393c 	lu12i.w	$r28,-446007(0x931c9)
1c019944:	0296d39c 	addi.w	$r28,$r28,1460(0x5b4)
1c019948:	1480aa1d 	lu12i.w	$r29,263504(0x40550)
1c01994c:	02a7c3bd 	addi.w	$r29,$r29,-1552(0x9f0)
1c019950:	5c02cd5c 	bne	$r10,$r28,716(0x2cc) # 1c019c1c <inst_error>
1c019954:	5c02c97d 	bne	$r11,$r29,712(0x2c8) # 1c019c1c <inst_error>
1c019958:	15b6ad70 	lu12i.w	$r16,-150165(0xdb56b)
1c01995c:	029ea210 	addi.w	$r16,$r16,1960(0x7a8)
1c019960:	14936431 	lu12i.w	$r17,301857(0x49b21)
1c019964:	0287c231 	addi.w	$r17,$r17,496(0x1f0)
1c019968:	1400000a 	lu12i.w	$r10,0
1c01996c:	1400000b 	lu12i.w	$r11,0
1c019970:	50001400 	b	20(0x14) # 1c019984 <n17_bne_test+0xbec>
1c019974:	15b6ad6a 	lu12i.w	$r10,-150165(0xdb56b)
1c019978:	029ea14a 	addi.w	$r10,$r10,1960(0x7a8)
1c01997c:	5c0021ac 	bne	$r13,$r12,32(0x20) # 1c01999c <n17_bne_test+0xc04>
1c019980:	50002400 	b	36(0x24) # 1c0199a4 <n17_bne_test+0xc0c>
1c019984:	1400000c 	lu12i.w	$r12,0
1c019988:	0280018c 	addi.w	$r12,$r12,0
1c01998c:	142a616d 	lu12i.w	$r13,86795(0x1530b)
1c019990:	02a559ad 	addi.w	$r13,$r13,-1706(0x956)
1c019994:	5fffe18d 	bne	$r12,$r13,-32(0x3ffe0) # 1c019974 <n17_bne_test+0xbdc>
1c019998:	50000c00 	b	12(0xc) # 1c0199a4 <n17_bne_test+0xc0c>
1c01999c:	1493642b 	lu12i.w	$r11,301857(0x49b21)
1c0199a0:	0287c16b 	addi.w	$r11,$r11,496(0x1f0)
1c0199a4:	15b6ad7c 	lu12i.w	$r28,-150165(0xdb56b)
1c0199a8:	029ea39c 	addi.w	$r28,$r28,1960(0x7a8)
1c0199ac:	1493643d 	lu12i.w	$r29,301857(0x49b21)
1c0199b0:	0287c3bd 	addi.w	$r29,$r29,496(0x1f0)
1c0199b4:	5c02695c 	bne	$r10,$r28,616(0x268) # 1c019c1c <inst_error>
1c0199b8:	5c02657d 	bne	$r11,$r29,612(0x264) # 1c019c1c <inst_error>
1c0199bc:	14715790 	lu12i.w	$r16,232124(0x38abc)
1c0199c0:	028d9210 	addi.w	$r16,$r16,868(0x364)
1c0199c4:	154ee951 	lu12i.w	$r17,-362678(0xa774a)
1c0199c8:	0284d631 	addi.w	$r17,$r17,309(0x135)
1c0199cc:	1400000a 	lu12i.w	$r10,0
1c0199d0:	1400000b 	lu12i.w	$r11,0
1c0199d4:	50001400 	b	20(0x14) # 1c0199e8 <n17_bne_test+0xc50>
1c0199d8:	1471578a 	lu12i.w	$r10,232124(0x38abc)
1c0199dc:	028d914a 	addi.w	$r10,$r10,868(0x364)
1c0199e0:	5c0021ac 	bne	$r13,$r12,32(0x20) # 1c019a00 <n17_bne_test+0xc68>
1c0199e4:	50002400 	b	36(0x24) # 1c019a08 <n17_bne_test+0xc70>
1c0199e8:	1400000c 	lu12i.w	$r12,0
1c0199ec:	0280018c 	addi.w	$r12,$r12,0
1c0199f0:	15c6862d 	lu12i.w	$r13,-117711(0xe3431)
1c0199f4:	029fd9ad 	addi.w	$r13,$r13,2038(0x7f6)
1c0199f8:	5fffe18d 	bne	$r12,$r13,-32(0x3ffe0) # 1c0199d8 <n17_bne_test+0xc40>
1c0199fc:	50000c00 	b	12(0xc) # 1c019a08 <n17_bne_test+0xc70>
1c019a00:	154ee94b 	lu12i.w	$r11,-362678(0xa774a)
1c019a04:	0284d56b 	addi.w	$r11,$r11,309(0x135)
1c019a08:	1471579c 	lu12i.w	$r28,232124(0x38abc)
1c019a0c:	028d939c 	addi.w	$r28,$r28,868(0x364)
1c019a10:	154ee95d 	lu12i.w	$r29,-362678(0xa774a)
1c019a14:	0284d7bd 	addi.w	$r29,$r29,309(0x135)
1c019a18:	5c02055c 	bne	$r10,$r28,516(0x204) # 1c019c1c <inst_error>
1c019a1c:	5c02017d 	bne	$r11,$r29,512(0x200) # 1c019c1c <inst_error>
1c019a20:	1564f7b0 	lu12i.w	$r16,-317507(0xb27bd)
1c019a24:	029c3210 	addi.w	$r16,$r16,1804(0x70c)
1c019a28:	156ce5f1 	lu12i.w	$r17,-301265(0xb672f)
1c019a2c:	02b78231 	addi.w	$r17,$r17,-544(0xde0)
1c019a30:	1400000a 	lu12i.w	$r10,0
1c019a34:	1400000b 	lu12i.w	$r11,0
1c019a38:	50001400 	b	20(0x14) # 1c019a4c <n17_bne_test+0xcb4>
1c019a3c:	1564f7aa 	lu12i.w	$r10,-317507(0xb27bd)
1c019a40:	029c314a 	addi.w	$r10,$r10,1804(0x70c)
1c019a44:	5c0021ac 	bne	$r13,$r12,32(0x20) # 1c019a64 <n17_bne_test+0xccc>
1c019a48:	50002400 	b	36(0x24) # 1c019a6c <n17_bne_test+0xcd4>
1c019a4c:	1400000c 	lu12i.w	$r12,0
1c019a50:	0280018c 	addi.w	$r12,$r12,0
1c019a54:	142b922d 	lu12i.w	$r13,89233(0x15c91)
1c019a58:	029e09ad 	addi.w	$r13,$r13,1922(0x782)
1c019a5c:	5fffe18d 	bne	$r12,$r13,-32(0x3ffe0) # 1c019a3c <n17_bne_test+0xca4>
1c019a60:	50000c00 	b	12(0xc) # 1c019a6c <n17_bne_test+0xcd4>
1c019a64:	156ce5eb 	lu12i.w	$r11,-301265(0xb672f)
1c019a68:	02b7816b 	addi.w	$r11,$r11,-544(0xde0)
1c019a6c:	1564f7bc 	lu12i.w	$r28,-317507(0xb27bd)
1c019a70:	029c339c 	addi.w	$r28,$r28,1804(0x70c)
1c019a74:	156ce5fd 	lu12i.w	$r29,-301265(0xb672f)
1c019a78:	02b783bd 	addi.w	$r29,$r29,-544(0xde0)
1c019a7c:	5c01a15c 	bne	$r10,$r28,416(0x1a0) # 1c019c1c <inst_error>
1c019a80:	5c019d7d 	bne	$r11,$r29,412(0x19c) # 1c019c1c <inst_error>
1c019a84:	1559c0f0 	lu12i.w	$r16,-340473(0xace07)
1c019a88:	02ba6210 	addi.w	$r16,$r16,-360(0xe98)
1c019a8c:	15ed8271 	lu12i.w	$r17,-37869(0xf6c13)
1c019a90:	0289a231 	addi.w	$r17,$r17,616(0x268)
1c019a94:	1400000a 	lu12i.w	$r10,0
1c019a98:	1400000b 	lu12i.w	$r11,0
1c019a9c:	50001400 	b	20(0x14) # 1c019ab0 <n17_bne_test+0xd18>
1c019aa0:	1559c0ea 	lu12i.w	$r10,-340473(0xace07)
1c019aa4:	02ba614a 	addi.w	$r10,$r10,-360(0xe98)
1c019aa8:	5c0021ac 	bne	$r13,$r12,32(0x20) # 1c019ac8 <n17_bne_test+0xd30>
1c019aac:	50002400 	b	36(0x24) # 1c019ad0 <n17_bne_test+0xd38>
1c019ab0:	1400000c 	lu12i.w	$r12,0
1c019ab4:	0280018c 	addi.w	$r12,$r12,0
1c019ab8:	14ee956d 	lu12i.w	$r13,488619(0x774ab)
1c019abc:	029a81ad 	addi.w	$r13,$r13,1696(0x6a0)
1c019ac0:	5fffe18d 	bne	$r12,$r13,-32(0x3ffe0) # 1c019aa0 <n17_bne_test+0xd08>
1c019ac4:	50000c00 	b	12(0xc) # 1c019ad0 <n17_bne_test+0xd38>
1c019ac8:	15ed826b 	lu12i.w	$r11,-37869(0xf6c13)
1c019acc:	0289a16b 	addi.w	$r11,$r11,616(0x268)
1c019ad0:	1559c0fc 	lu12i.w	$r28,-340473(0xace07)
1c019ad4:	02ba639c 	addi.w	$r28,$r28,-360(0xe98)
1c019ad8:	15ed827d 	lu12i.w	$r29,-37869(0xf6c13)
1c019adc:	0289a3bd 	addi.w	$r29,$r29,616(0x268)
1c019ae0:	5c013d5c 	bne	$r10,$r28,316(0x13c) # 1c019c1c <inst_error>
1c019ae4:	5c01397d 	bne	$r11,$r29,312(0x138) # 1c019c1c <inst_error>
1c019ae8:	14dd46f0 	lu12i.w	$r16,453175(0x6ea37)
1c019aec:	02b8e210 	addi.w	$r16,$r16,-456(0xe38)
1c019af0:	14db0371 	lu12i.w	$r17,448539(0x6d81b)
1c019af4:	02800631 	addi.w	$r17,$r17,1(0x1)
1c019af8:	1400000a 	lu12i.w	$r10,0
1c019afc:	1400000b 	lu12i.w	$r11,0
1c019b00:	50001400 	b	20(0x14) # 1c019b14 <n17_bne_test+0xd7c>
1c019b04:	14dd46ea 	lu12i.w	$r10,453175(0x6ea37)
1c019b08:	02b8e14a 	addi.w	$r10,$r10,-456(0xe38)
1c019b0c:	5c0021ac 	bne	$r13,$r12,32(0x20) # 1c019b2c <n17_bne_test+0xd94>
1c019b10:	50002400 	b	36(0x24) # 1c019b34 <n17_bne_test+0xd9c>
1c019b14:	1400000c 	lu12i.w	$r12,0
1c019b18:	0280018c 	addi.w	$r12,$r12,0
1c019b1c:	14bbf8cd 	lu12i.w	$r13,384966(0x5dfc6)
1c019b20:	0288c1ad 	addi.w	$r13,$r13,560(0x230)
1c019b24:	5fffe18d 	bne	$r12,$r13,-32(0x3ffe0) # 1c019b04 <n17_bne_test+0xd6c>
1c019b28:	50000c00 	b	12(0xc) # 1c019b34 <n17_bne_test+0xd9c>
1c019b2c:	14db036b 	lu12i.w	$r11,448539(0x6d81b)
1c019b30:	0280056b 	addi.w	$r11,$r11,1(0x1)
1c019b34:	14dd46fc 	lu12i.w	$r28,453175(0x6ea37)
1c019b38:	02b8e39c 	addi.w	$r28,$r28,-456(0xe38)
1c019b3c:	14db037d 	lu12i.w	$r29,448539(0x6d81b)
1c019b40:	028007bd 	addi.w	$r29,$r29,1(0x1)
1c019b44:	5c00d95c 	bne	$r10,$r28,216(0xd8) # 1c019c1c <inst_error>
1c019b48:	5c00d57d 	bne	$r11,$r29,212(0xd4) # 1c019c1c <inst_error>
1c019b4c:	15263850 	lu12i.w	$r16,-446014(0x931c2)
1c019b50:	028eb210 	addi.w	$r16,$r16,940(0x3ac)
1c019b54:	15f22e51 	lu12i.w	$r17,-28302(0xf9172)
1c019b58:	0299f231 	addi.w	$r17,$r17,1660(0x67c)
1c019b5c:	1400000a 	lu12i.w	$r10,0
1c019b60:	1400000b 	lu12i.w	$r11,0
1c019b64:	50001400 	b	20(0x14) # 1c019b78 <n17_bne_test+0xde0>
1c019b68:	1526384a 	lu12i.w	$r10,-446014(0x931c2)
1c019b6c:	028eb14a 	addi.w	$r10,$r10,940(0x3ac)
1c019b70:	5c0021ac 	bne	$r13,$r12,32(0x20) # 1c019b90 <n17_bne_test+0xdf8>
1c019b74:	50002400 	b	36(0x24) # 1c019b98 <n17_bne_test+0xe00>
1c019b78:	1400000c 	lu12i.w	$r12,0
1c019b7c:	0280018c 	addi.w	$r12,$r12,0
1c019b80:	141db96d 	lu12i.w	$r13,60875(0xedcb)
1c019b84:	028a61ad 	addi.w	$r13,$r13,664(0x298)
1c019b88:	5fffe18d 	bne	$r12,$r13,-32(0x3ffe0) # 1c019b68 <n17_bne_test+0xdd0>
1c019b8c:	50000c00 	b	12(0xc) # 1c019b98 <n17_bne_test+0xe00>
1c019b90:	15f22e4b 	lu12i.w	$r11,-28302(0xf9172)
1c019b94:	0299f16b 	addi.w	$r11,$r11,1660(0x67c)
1c019b98:	1526385c 	lu12i.w	$r28,-446014(0x931c2)
1c019b9c:	028eb39c 	addi.w	$r28,$r28,940(0x3ac)
1c019ba0:	15f22e5d 	lu12i.w	$r29,-28302(0xf9172)
1c019ba4:	0299f3bd 	addi.w	$r29,$r29,1660(0x67c)
1c019ba8:	5c00755c 	bne	$r10,$r28,116(0x74) # 1c019c1c <inst_error>
1c019bac:	5c00717d 	bne	$r11,$r29,112(0x70) # 1c019c1c <inst_error>
1c019bb0:	142e8850 	lu12i.w	$r16,95298(0x17442)
1c019bb4:	02a4b210 	addi.w	$r16,$r16,-1748(0x92c)
1c019bb8:	141691f1 	lu12i.w	$r17,46223(0xb48f)
1c019bbc:	0287c231 	addi.w	$r17,$r17,496(0x1f0)
1c019bc0:	1400000a 	lu12i.w	$r10,0
1c019bc4:	1400000b 	lu12i.w	$r11,0
1c019bc8:	50001400 	b	20(0x14) # 1c019bdc <n17_bne_test+0xe44>
1c019bcc:	142e884a 	lu12i.w	$r10,95298(0x17442)
1c019bd0:	02a4b14a 	addi.w	$r10,$r10,-1748(0x92c)
1c019bd4:	5c0021ac 	bne	$r13,$r12,32(0x20) # 1c019bf4 <n17_bne_test+0xe5c>
1c019bd8:	50002400 	b	36(0x24) # 1c019bfc <n17_bne_test+0xe64>
1c019bdc:	1400000c 	lu12i.w	$r12,0
1c019be0:	0280018c 	addi.w	$r12,$r12,0
1c019be4:	1400000d 	lu12i.w	$r13,0
1c019be8:	028001ad 	addi.w	$r13,$r13,0
1c019bec:	5fffe18d 	bne	$r12,$r13,-32(0x3ffe0) # 1c019bcc <n17_bne_test+0xe34>
1c019bf0:	50000c00 	b	12(0xc) # 1c019bfc <n17_bne_test+0xe64>
1c019bf4:	141691eb 	lu12i.w	$r11,46223(0xb48f)
1c019bf8:	0287c16b 	addi.w	$r11,$r11,496(0x1f0)
1c019bfc:	1400001c 	lu12i.w	$r28,0
1c019c00:	0280039c 	addi.w	$r28,$r28,0
1c019c04:	1400001d 	lu12i.w	$r29,0
1c019c08:	028003bd 	addi.w	$r29,$r29,0
1c019c0c:	5c00115c 	bne	$r10,$r28,16(0x10) # 1c019c1c <inst_error>
1c019c10:	5c000d7d 	bne	$r11,$r29,12(0xc) # 1c019c1c <inst_error>
1c019c14:	5c000b20 	bne	$r25,$r0,8(0x8) # 1c019c1c <inst_error>
1c019c18:	0280075a 	addi.w	$r26,$r26,1(0x1)

1c019c1c <inst_error>:
1c019c1c:	0040e2ed 	slli.w	$r13,$r23,0x18
1c019c20:	001569ac 	or	$r12,$r13,$r26
1c019c24:	2980030c 	st.w	$r12,$r24,0
1c019c28:	4c000020 	jirl	$r0,$r1,0
inst_error():
1c019c2c:	03400000 	andi	$r0,$r0,0x0

1c019c30 <n6_sltu_test>:
n6_sltu_test():
1c019c30:	028006f7 	addi.w	$r23,$r23,1(0x1)
1c019c34:	00150019 	move	$r25,$r0
1c019c38:	142b1e6c 	lu12i.w	$r12,88307(0x158f3)
1c019c3c:	02aca58c 	addi.w	$r12,$r12,-1239(0xb29)
1c019c40:	1484382d 	lu12i.w	$r13,270785(0x421c1)
1c019c44:	02a909ad 	addi.w	$r13,$r13,-1470(0xa42)
1c019c48:	1400000b 	lu12i.w	$r11,0
1c019c4c:	0280056b 	addi.w	$r11,$r11,1(0x1)
1c019c50:	0012b58a 	sltu	$r10,$r12,$r13
1c019c54:	5c06cd4b 	bne	$r10,$r11,1740(0x6cc) # 1c01a320 <inst_error>
1c019c58:	14c0688c 	lu12i.w	$r12,394052(0x60344)
1c019c5c:	02afe18c 	addi.w	$r12,$r12,-1032(0xbf8)
1c019c60:	15ba2f6d 	lu12i.w	$r13,-142981(0xdd17b)
1c019c64:	028c29ad 	addi.w	$r13,$r13,778(0x30a)
1c019c68:	1400000b 	lu12i.w	$r11,0
1c019c6c:	0280056b 	addi.w	$r11,$r11,1(0x1)
1c019c70:	0012b58a 	sltu	$r10,$r12,$r13
1c019c74:	5c06ad4b 	bne	$r10,$r11,1708(0x6ac) # 1c01a320 <inst_error>
1c019c78:	145ab86c 	lu12i.w	$r12,185795(0x2d5c3)
1c019c7c:	0286018c 	addi.w	$r12,$r12,384(0x180)
1c019c80:	1429be8d 	lu12i.w	$r13,85492(0x14df4)
1c019c84:	029c61ad 	addi.w	$r13,$r13,1816(0x718)
1c019c88:	1400000b 	lu12i.w	$r11,0
1c019c8c:	0280016b 	addi.w	$r11,$r11,0
1c019c90:	0012b58a 	sltu	$r10,$r12,$r13
1c019c94:	5c068d4b 	bne	$r10,$r11,1676(0x68c) # 1c01a320 <inst_error>
1c019c98:	14eac20c 	lu12i.w	$r12,480784(0x75610)
1c019c9c:	02ae018c 	addi.w	$r12,$r12,-1152(0xb80)
1c019ca0:	1455302d 	lu12i.w	$r13,174465(0x2a981)
1c019ca4:	0292e5ad 	addi.w	$r13,$r13,1209(0x4b9)
1c019ca8:	1400000b 	lu12i.w	$r11,0
1c019cac:	0280016b 	addi.w	$r11,$r11,0
1c019cb0:	0012b58a 	sltu	$r10,$r12,$r13
1c019cb4:	5c066d4b 	bne	$r10,$r11,1644(0x66c) # 1c01a320 <inst_error>
1c019cb8:	1594c0ec 	lu12i.w	$r12,-219641(0xca607)
1c019cbc:	02a4018c 	addi.w	$r12,$r12,-1792(0x900)
1c019cc0:	15282cad 	lu12i.w	$r13,-442011(0x94165)
1c019cc4:	02b4e9ad 	addi.w	$r13,$r13,-710(0xd3a)
1c019cc8:	1400000b 	lu12i.w	$r11,0
1c019ccc:	0280016b 	addi.w	$r11,$r11,0
1c019cd0:	0012b58a 	sltu	$r10,$r12,$r13
1c019cd4:	5c064d4b 	bne	$r10,$r11,1612(0x64c) # 1c01a320 <inst_error>
1c019cd8:	15be9c6c 	lu12i.w	$r12,-133917(0xdf4e3)
1c019cdc:	02af018c 	addi.w	$r12,$r12,-1088(0xbc0)
1c019ce0:	146f7aad 	lu12i.w	$r13,228309(0x37bd5)
1c019ce4:	028965ad 	addi.w	$r13,$r13,601(0x259)
1c019ce8:	1400000b 	lu12i.w	$r11,0
1c019cec:	0280016b 	addi.w	$r11,$r11,0
1c019cf0:	0012b58a 	sltu	$r10,$r12,$r13
1c019cf4:	5c062d4b 	bne	$r10,$r11,1580(0x62c) # 1c01a320 <inst_error>
1c019cf8:	15ace3ac 	lu12i.w	$r12,-170211(0xd671d)
1c019cfc:	0299418c 	addi.w	$r12,$r12,1616(0x650)
1c019d00:	15f3494d 	lu12i.w	$r13,-26038(0xf9a4a)
1c019d04:	02bc41ad 	addi.w	$r13,$r13,-240(0xf10)
1c019d08:	1400000b 	lu12i.w	$r11,0
1c019d0c:	0280056b 	addi.w	$r11,$r11,1(0x1)
1c019d10:	0012b58a 	sltu	$r10,$r12,$r13
1c019d14:	5c060d4b 	bne	$r10,$r11,1548(0x60c) # 1c01a320 <inst_error>
1c019d18:	153cc68c 	lu12i.w	$r12,-399820(0x9e634)
1c019d1c:	0287818c 	addi.w	$r12,$r12,480(0x1e0)
1c019d20:	14c38e0d 	lu12i.w	$r13,400496(0x61c70)
1c019d24:	0284c1ad 	addi.w	$r13,$r13,304(0x130)
1c019d28:	1400000b 	lu12i.w	$r11,0
1c019d2c:	0280016b 	addi.w	$r11,$r11,0
1c019d30:	0012b58a 	sltu	$r10,$r12,$r13
1c019d34:	5c05ed4b 	bne	$r10,$r11,1516(0x5ec) # 1c01a320 <inst_error>
1c019d38:	14fc25cc 	lu12i.w	$r12,516398(0x7e12e)
1c019d3c:	0292bd8c 	addi.w	$r12,$r12,1199(0x4af)
1c019d40:	154ff52d 	lu12i.w	$r13,-360535(0xa7fa9)
1c019d44:	028801ad 	addi.w	$r13,$r13,512(0x200)
1c019d48:	1400000b 	lu12i.w	$r11,0
1c019d4c:	0280056b 	addi.w	$r11,$r11,1(0x1)
1c019d50:	0012b58a 	sltu	$r10,$r12,$r13
1c019d54:	5c05cd4b 	bne	$r10,$r11,1484(0x5cc) # 1c01a320 <inst_error>
1c019d58:	1449a42c 	lu12i.w	$r12,150817(0x24d21)
1c019d5c:	02a4218c 	addi.w	$r12,$r12,-1784(0x908)
1c019d60:	15cfff2d 	lu12i.w	$r13,-98311(0xe7ff9)
1c019d64:	028481ad 	addi.w	$r13,$r13,288(0x120)
1c019d68:	1400000b 	lu12i.w	$r11,0
1c019d6c:	0280056b 	addi.w	$r11,$r11,1(0x1)
1c019d70:	0012b58a 	sltu	$r10,$r12,$r13
1c019d74:	5c05ad4b 	bne	$r10,$r11,1452(0x5ac) # 1c01a320 <inst_error>
1c019d78:	15e93acc 	lu12i.w	$r12,-46634(0xf49d6)
1c019d7c:	02be998c 	addi.w	$r12,$r12,-90(0xfa6)
1c019d80:	154f366d 	lu12i.w	$r13,-362061(0xa79b3)
1c019d84:	02b0b9ad 	addi.w	$r13,$r13,-978(0xc2e)
1c019d88:	1400000b 	lu12i.w	$r11,0
1c019d8c:	0280016b 	addi.w	$r11,$r11,0
1c019d90:	0012b58a 	sltu	$r10,$r12,$r13
1c019d94:	5c058d4b 	bne	$r10,$r11,1420(0x58c) # 1c01a320 <inst_error>
1c019d98:	151ff94c 	lu12i.w	$r12,-458806(0x8ffca)
1c019d9c:	02a9018c 	addi.w	$r12,$r12,-1472(0xa40)
1c019da0:	144f54cd 	lu12i.w	$r13,162470(0x27aa6)
1c019da4:	029fa1ad 	addi.w	$r13,$r13,2024(0x7e8)
1c019da8:	1400000b 	lu12i.w	$r11,0
1c019dac:	0280016b 	addi.w	$r11,$r11,0
1c019db0:	0012b58a 	sltu	$r10,$r12,$r13
1c019db4:	5c056d4b 	bne	$r10,$r11,1388(0x56c) # 1c01a320 <inst_error>
1c019db8:	14c1988c 	lu12i.w	$r12,396484(0x60cc4)
1c019dbc:	02a8fd8c 	addi.w	$r12,$r12,-1473(0xa3f)
1c019dc0:	14f1bfad 	lu12i.w	$r13,495101(0x78dfd)
1c019dc4:	02bec1ad 	addi.w	$r13,$r13,-80(0xfb0)
1c019dc8:	1400000b 	lu12i.w	$r11,0
1c019dcc:	0280056b 	addi.w	$r11,$r11,1(0x1)
1c019dd0:	0012b58a 	sltu	$r10,$r12,$r13
1c019dd4:	5c054d4b 	bne	$r10,$r11,1356(0x54c) # 1c01a320 <inst_error>
1c019dd8:	14f7cdec 	lu12i.w	$r12,507503(0x7be6f)
1c019ddc:	02a2c18c 	addi.w	$r12,$r12,-1872(0x8b0)
1c019de0:	1539e6ed 	lu12i.w	$r13,-405705(0x9cf37)
1c019de4:	02a7a9ad 	addi.w	$r13,$r13,-1558(0x9ea)
1c019de8:	1400000b 	lu12i.w	$r11,0
1c019dec:	0280056b 	addi.w	$r11,$r11,1(0x1)
1c019df0:	0012b58a 	sltu	$r10,$r12,$r13
1c019df4:	5c052d4b 	bne	$r10,$r11,1324(0x52c) # 1c01a320 <inst_error>
1c019df8:	14b0d68c 	lu12i.w	$r12,362164(0x586b4)
1c019dfc:	0285418c 	addi.w	$r12,$r12,336(0x150)
1c019e00:	1595690d 	lu12i.w	$r13,-218296(0xcab48)
1c019e04:	028229ad 	addi.w	$r13,$r13,138(0x8a)
1c019e08:	1400000b 	lu12i.w	$r11,0
1c019e0c:	0280056b 	addi.w	$r11,$r11,1(0x1)
1c019e10:	0012b58a 	sltu	$r10,$r12,$r13
1c019e14:	5c050d4b 	bne	$r10,$r11,1292(0x50c) # 1c01a320 <inst_error>
1c019e18:	1468cfec 	lu12i.w	$r12,214655(0x3467f)
1c019e1c:	02b2018c 	addi.w	$r12,$r12,-896(0xc80)
1c019e20:	15f6ee2d 	lu12i.w	$r13,-18575(0xfb771)
1c019e24:	028011ad 	addi.w	$r13,$r13,4(0x4)
1c019e28:	1400000b 	lu12i.w	$r11,0
1c019e2c:	0280056b 	addi.w	$r11,$r11,1(0x1)
1c019e30:	0012b58a 	sltu	$r10,$r12,$r13
1c019e34:	5c04ed4b 	bne	$r10,$r11,1260(0x4ec) # 1c01a320 <inst_error>
1c019e38:	15d64ecc 	lu12i.w	$r12,-85386(0xeb276)
1c019e3c:	02b3018c 	addi.w	$r12,$r12,-832(0xcc0)
1c019e40:	1416060d 	lu12i.w	$r13,45104(0xb030)
1c019e44:	029681ad 	addi.w	$r13,$r13,1440(0x5a0)
1c019e48:	1400000b 	lu12i.w	$r11,0
1c019e4c:	0280016b 	addi.w	$r11,$r11,0
1c019e50:	0012b58a 	sltu	$r10,$r12,$r13
1c019e54:	5c04cd4b 	bne	$r10,$r11,1228(0x4cc) # 1c01a320 <inst_error>
1c019e58:	14c6fccc 	lu12i.w	$r12,407526(0x637e6)
1c019e5c:	02bd998c 	addi.w	$r12,$r12,-154(0xf66)
1c019e60:	155563ed 	lu12i.w	$r13,-349409(0xaab1f)
1c019e64:	02aac9ad 	addi.w	$r13,$r13,-1358(0xab2)
1c019e68:	1400000b 	lu12i.w	$r11,0
1c019e6c:	0280056b 	addi.w	$r11,$r11,1(0x1)
1c019e70:	0012b58a 	sltu	$r10,$r12,$r13
1c019e74:	5c04ad4b 	bne	$r10,$r11,1196(0x4ac) # 1c01a320 <inst_error>
1c019e78:	14cf99ac 	lu12i.w	$r12,425165(0x67ccd)
1c019e7c:	02a1418c 	addi.w	$r12,$r12,-1968(0x850)
1c019e80:	145a766d 	lu12i.w	$r13,185267(0x2d3b3)
1c019e84:	02ae51ad 	addi.w	$r13,$r13,-1132(0xb94)
1c019e88:	1400000b 	lu12i.w	$r11,0
1c019e8c:	0280016b 	addi.w	$r11,$r11,0
1c019e90:	0012b58a 	sltu	$r10,$r12,$r13
1c019e94:	5c048d4b 	bne	$r10,$r11,1164(0x48c) # 1c01a320 <inst_error>
1c019e98:	158c9c8c 	lu12i.w	$r12,-236316(0xc64e4)
1c019e9c:	029b9d8c 	addi.w	$r12,$r12,1767(0x6e7)
1c019ea0:	145a8cad 	lu12i.w	$r13,185445(0x2d465)
1c019ea4:	029b41ad 	addi.w	$r13,$r13,1744(0x6d0)
1c019ea8:	1400000b 	lu12i.w	$r11,0
1c019eac:	0280016b 	addi.w	$r11,$r11,0
1c019eb0:	0012b58a 	sltu	$r10,$r12,$r13
1c019eb4:	5c046d4b 	bne	$r10,$r11,1132(0x46c) # 1c01a320 <inst_error>
1c019eb8:	15bec30c 	lu12i.w	$r12,-133608(0xdf618)
1c019ebc:	0280018c 	addi.w	$r12,$r12,0
1c019ec0:	15f61a2d 	lu12i.w	$r13,-20271(0xfb0d1)
1c019ec4:	02b101ad 	addi.w	$r13,$r13,-960(0xc40)
1c019ec8:	1400000b 	lu12i.w	$r11,0
1c019ecc:	0280056b 	addi.w	$r11,$r11,1(0x1)
1c019ed0:	0012b58a 	sltu	$r10,$r12,$r13
1c019ed4:	5c044d4b 	bne	$r10,$r11,1100(0x44c) # 1c01a320 <inst_error>
1c019ed8:	1543a3ec 	lu12i.w	$r12,-385761(0xa1d1f)
1c019edc:	0283918c 	addi.w	$r12,$r12,228(0xe4)
1c019ee0:	153c3aad 	lu12i.w	$r13,-400939(0x9e1d5)
1c019ee4:	02a491ad 	addi.w	$r13,$r13,-1756(0x924)
1c019ee8:	1400000b 	lu12i.w	$r11,0
1c019eec:	0280016b 	addi.w	$r11,$r11,0
1c019ef0:	0012b58a 	sltu	$r10,$r12,$r13
1c019ef4:	5c042d4b 	bne	$r10,$r11,1068(0x42c) # 1c01a320 <inst_error>
1c019ef8:	15c2792c 	lu12i.w	$r12,-126007(0xe13c9)
1c019efc:	028f318c 	addi.w	$r12,$r12,972(0x3cc)
1c019f00:	1512518d 	lu12i.w	$r13,-486772(0x8928c)
1c019f04:	0284f1ad 	addi.w	$r13,$r13,316(0x13c)
1c019f08:	1400000b 	lu12i.w	$r11,0
1c019f0c:	0280016b 	addi.w	$r11,$r11,0
1c019f10:	0012b58a 	sltu	$r10,$r12,$r13
1c019f14:	5c040d4b 	bne	$r10,$r11,1036(0x40c) # 1c01a320 <inst_error>
1c019f18:	15c9b56c 	lu12i.w	$r12,-111189(0xe4dab)
1c019f1c:	028e018c 	addi.w	$r12,$r12,896(0x380)
1c019f20:	148222cd 	lu12i.w	$r13,266518(0x41116)
1c019f24:	0295f1ad 	addi.w	$r13,$r13,1404(0x57c)
1c019f28:	1400000b 	lu12i.w	$r11,0
1c019f2c:	0280016b 	addi.w	$r11,$r11,0
1c019f30:	0012b58a 	sltu	$r10,$r12,$r13
1c019f34:	5c03ed4b 	bne	$r10,$r11,1004(0x3ec) # 1c01a320 <inst_error>
1c019f38:	145f8e2c 	lu12i.w	$r12,195697(0x2fc71)
1c019f3c:	0295e18c 	addi.w	$r12,$r12,1400(0x578)
1c019f40:	14dc0f2d 	lu12i.w	$r13,450681(0x6e079)
1c019f44:	02a2b1ad 	addi.w	$r13,$r13,-1876(0x8ac)
1c019f48:	1400000b 	lu12i.w	$r11,0
1c019f4c:	0280056b 	addi.w	$r11,$r11,1(0x1)
1c019f50:	0012b58a 	sltu	$r10,$r12,$r13
1c019f54:	5c03cd4b 	bne	$r10,$r11,972(0x3cc) # 1c01a320 <inst_error>
1c019f58:	15b57e8c 	lu12i.w	$r12,-152588(0xdabf4)
1c019f5c:	02bf018c 	addi.w	$r12,$r12,-64(0xfc0)
1c019f60:	15ab4dad 	lu12i.w	$r13,-173459(0xd5a6d)
1c019f64:	02be71ad 	addi.w	$r13,$r13,-100(0xf9c)
1c019f68:	1400000b 	lu12i.w	$r11,0
1c019f6c:	0280016b 	addi.w	$r11,$r11,0
1c019f70:	0012b58a 	sltu	$r10,$r12,$r13
1c019f74:	5c03ad4b 	bne	$r10,$r11,940(0x3ac) # 1c01a320 <inst_error>
1c019f78:	15aba76c 	lu12i.w	$r12,-172741(0xd5d3b)
1c019f7c:	029c798c 	addi.w	$r12,$r12,1822(0x71e)
1c019f80:	146a16ad 	lu12i.w	$r13,217269(0x350b5)
1c019f84:	028359ad 	addi.w	$r13,$r13,214(0xd6)
1c019f88:	1400000b 	lu12i.w	$r11,0
1c019f8c:	0280016b 	addi.w	$r11,$r11,0
1c019f90:	0012b58a 	sltu	$r10,$r12,$r13
1c019f94:	5c038d4b 	bne	$r10,$r11,908(0x38c) # 1c01a320 <inst_error>
1c019f98:	149a0b6c 	lu12i.w	$r12,315483(0x4d05b)
1c019f9c:	0290ad8c 	addi.w	$r12,$r12,1067(0x42b)
1c019fa0:	14c0e9ad 	lu12i.w	$r13,395085(0x6074d)
1c019fa4:	029d01ad 	addi.w	$r13,$r13,1856(0x740)
1c019fa8:	1400000b 	lu12i.w	$r11,0
1c019fac:	0280056b 	addi.w	$r11,$r11,1(0x1)
1c019fb0:	0012b58a 	sltu	$r10,$r12,$r13
1c019fb4:	5c036d4b 	bne	$r10,$r11,876(0x36c) # 1c01a320 <inst_error>
1c019fb8:	15b5c52c 	lu12i.w	$r12,-152023(0xdae29)
1c019fbc:	02a0018c 	addi.w	$r12,$r12,-2048(0x800)
1c019fc0:	15e66c6d 	lu12i.w	$r13,-52381(0xf3363)
1c019fc4:	02b1a1ad 	addi.w	$r13,$r13,-920(0xc68)
1c019fc8:	1400000b 	lu12i.w	$r11,0
1c019fcc:	0280056b 	addi.w	$r11,$r11,1(0x1)
1c019fd0:	0012b58a 	sltu	$r10,$r12,$r13
1c019fd4:	5c034d4b 	bne	$r10,$r11,844(0x34c) # 1c01a320 <inst_error>
1c019fd8:	150f2f0c 	lu12i.w	$r12,-493192(0x87978)
1c019fdc:	02a2698c 	addi.w	$r12,$r12,-1894(0x89a)
1c019fe0:	1590f84d 	lu12i.w	$r13,-227390(0xc87c2)
1c019fe4:	02b8a1ad 	addi.w	$r13,$r13,-472(0xe28)
1c019fe8:	1400000b 	lu12i.w	$r11,0
1c019fec:	0280056b 	addi.w	$r11,$r11,1(0x1)
1c019ff0:	0012b58a 	sltu	$r10,$r12,$r13
1c019ff4:	5c032d4b 	bne	$r10,$r11,812(0x32c) # 1c01a320 <inst_error>
1c019ff8:	141d67cc 	lu12i.w	$r12,60222(0xeb3e)
1c019ffc:	0298218c 	addi.w	$r12,$r12,1544(0x608)
1c01a000:	148c548d 	lu12i.w	$r13,287396(0x462a4)
1c01a004:	029351ad 	addi.w	$r13,$r13,1236(0x4d4)
1c01a008:	1400000b 	lu12i.w	$r11,0
1c01a00c:	0280056b 	addi.w	$r11,$r11,1(0x1)
1c01a010:	0012b58a 	sltu	$r10,$r12,$r13
1c01a014:	5c030d4b 	bne	$r10,$r11,780(0x30c) # 1c01a320 <inst_error>
1c01a018:	156f6c0c 	lu12i.w	$r12,-296096(0xb7b60)
1c01a01c:	02acc18c 	addi.w	$r12,$r12,-1232(0xb30)
1c01a020:	14c5906d 	lu12i.w	$r13,404611(0x62c83)
1c01a024:	029661ad 	addi.w	$r13,$r13,1432(0x598)
1c01a028:	1400000b 	lu12i.w	$r11,0
1c01a02c:	0280016b 	addi.w	$r11,$r11,0
1c01a030:	0012b58a 	sltu	$r10,$r12,$r13
1c01a034:	5c02ed4b 	bne	$r10,$r11,748(0x2ec) # 1c01a320 <inst_error>
1c01a038:	14d46e6c 	lu12i.w	$r12,435059(0x6a373)
1c01a03c:	02bd018c 	addi.w	$r12,$r12,-192(0xf40)
1c01a040:	14e487cd 	lu12i.w	$r13,468030(0x7243e)
1c01a044:	02ac81ad 	addi.w	$r13,$r13,-1248(0xb20)
1c01a048:	1400000b 	lu12i.w	$r11,0
1c01a04c:	0280056b 	addi.w	$r11,$r11,1(0x1)
1c01a050:	0012b58a 	sltu	$r10,$r12,$r13
1c01a054:	5c02cd4b 	bne	$r10,$r11,716(0x2cc) # 1c01a320 <inst_error>
1c01a058:	15bdfd4c 	lu12i.w	$r12,-135190(0xdefea)
1c01a05c:	02b2418c 	addi.w	$r12,$r12,-880(0xc90)
1c01a060:	1565e32d 	lu12i.w	$r13,-315623(0xb2f19)
1c01a064:	0289e1ad 	addi.w	$r13,$r13,632(0x278)
1c01a068:	1400000b 	lu12i.w	$r11,0
1c01a06c:	0280016b 	addi.w	$r11,$r11,0
1c01a070:	0012b58a 	sltu	$r10,$r12,$r13
1c01a074:	5c02ad4b 	bne	$r10,$r11,684(0x2ac) # 1c01a320 <inst_error>
1c01a078:	1515abcc 	lu12i.w	$r12,-479906(0x8ad5e)
1c01a07c:	02bea18c 	addi.w	$r12,$r12,-88(0xfa8)
1c01a080:	14abb48d 	lu12i.w	$r13,351652(0x55da4)
1c01a084:	029d01ad 	addi.w	$r13,$r13,1856(0x740)
1c01a088:	1400000b 	lu12i.w	$r11,0
1c01a08c:	0280016b 	addi.w	$r11,$r11,0
1c01a090:	0012b58a 	sltu	$r10,$r12,$r13
1c01a094:	5c028d4b 	bne	$r10,$r11,652(0x28c) # 1c01a320 <inst_error>
1c01a098:	157748cc 	lu12i.w	$r12,-279994(0xbba46)
1c01a09c:	02a2098c 	addi.w	$r12,$r12,-1918(0x882)
1c01a0a0:	14677c4d 	lu12i.w	$r13,211938(0x33be2)
1c01a0a4:	029561ad 	addi.w	$r13,$r13,1368(0x558)
1c01a0a8:	1400000b 	lu12i.w	$r11,0
1c01a0ac:	0280016b 	addi.w	$r11,$r11,0
1c01a0b0:	0012b58a 	sltu	$r10,$r12,$r13
1c01a0b4:	5c026d4b 	bne	$r10,$r11,620(0x26c) # 1c01a320 <inst_error>
1c01a0b8:	15c2c8ec 	lu12i.w	$r12,-125369(0xe1647)
1c01a0bc:	02ba418c 	addi.w	$r12,$r12,-368(0xe90)
1c01a0c0:	1590544d 	lu12i.w	$r13,-228702(0xc82a2)
1c01a0c4:	02bec1ad 	addi.w	$r13,$r13,-80(0xfb0)
1c01a0c8:	1400000b 	lu12i.w	$r11,0
1c01a0cc:	0280016b 	addi.w	$r11,$r11,0
1c01a0d0:	0012b58a 	sltu	$r10,$r12,$r13
1c01a0d4:	5c024d4b 	bne	$r10,$r11,588(0x24c) # 1c01a320 <inst_error>
1c01a0d8:	145165cc 	lu12i.w	$r12,166702(0x28b2e)
1c01a0dc:	02aa018c 	addi.w	$r12,$r12,-1408(0xa80)
1c01a0e0:	1478f86d 	lu12i.w	$r13,247747(0x3c7c3)
1c01a0e4:	0281a9ad 	addi.w	$r13,$r13,106(0x6a)
1c01a0e8:	1400000b 	lu12i.w	$r11,0
1c01a0ec:	0280056b 	addi.w	$r11,$r11,1(0x1)
1c01a0f0:	0012b58a 	sltu	$r10,$r12,$r13
1c01a0f4:	5c022d4b 	bne	$r10,$r11,556(0x22c) # 1c01a320 <inst_error>
1c01a0f8:	1433382c 	lu12i.w	$r12,104897(0x199c1)
1c01a0fc:	029bbd8c 	addi.w	$r12,$r12,1775(0x6ef)
1c01a100:	14ed7d4d 	lu12i.w	$r13,486378(0x76bea)
1c01a104:	02aa81ad 	addi.w	$r13,$r13,-1376(0xaa0)
1c01a108:	1400000b 	lu12i.w	$r11,0
1c01a10c:	0280056b 	addi.w	$r11,$r11,1(0x1)
1c01a110:	0012b58a 	sltu	$r10,$r12,$r13
1c01a114:	5c020d4b 	bne	$r10,$r11,524(0x20c) # 1c01a320 <inst_error>
1c01a118:	154cdaec 	lu12i.w	$r12,-366889(0xa66d7)
1c01a11c:	028ff18c 	addi.w	$r12,$r12,1020(0x3fc)
1c01a120:	157c5c8d 	lu12i.w	$r13,-269596(0xbe2e4)
1c01a124:	02bd31ad 	addi.w	$r13,$r13,-180(0xf4c)
1c01a128:	1400000b 	lu12i.w	$r11,0
1c01a12c:	0280056b 	addi.w	$r11,$r11,1(0x1)
1c01a130:	0012b58a 	sltu	$r10,$r12,$r13
1c01a134:	5c01ed4b 	bne	$r10,$r11,492(0x1ec) # 1c01a320 <inst_error>
1c01a138:	1500dcec 	lu12i.w	$r12,-522521(0x806e7)
1c01a13c:	0297818c 	addi.w	$r12,$r12,1504(0x5e0)
1c01a140:	157d3a2d 	lu12i.w	$r13,-267823(0xbe9d1)
1c01a144:	028c7dad 	addi.w	$r13,$r13,799(0x31f)
1c01a148:	1400000b 	lu12i.w	$r11,0
1c01a14c:	0280056b 	addi.w	$r11,$r11,1(0x1)
1c01a150:	0012b58a 	sltu	$r10,$r12,$r13
1c01a154:	5c01cd4b 	bne	$r10,$r11,460(0x1cc) # 1c01a320 <inst_error>
1c01a158:	15994eac 	lu12i.w	$r12,-210315(0xcca75)
1c01a15c:	0282b18c 	addi.w	$r12,$r12,172(0xac)
1c01a160:	14bf4b8d 	lu12i.w	$r13,391772(0x5fa5c)
1c01a164:	02b3c1ad 	addi.w	$r13,$r13,-784(0xcf0)
1c01a168:	1400000b 	lu12i.w	$r11,0
1c01a16c:	0280016b 	addi.w	$r11,$r11,0
1c01a170:	0012b58a 	sltu	$r10,$r12,$r13
1c01a174:	5c01ad4b 	bne	$r10,$r11,428(0x1ac) # 1c01a320 <inst_error>
1c01a178:	15d0b94c 	lu12i.w	$r12,-96822(0xe85ca)
1c01a17c:	02b5b18c 	addi.w	$r12,$r12,-660(0xd6c)
1c01a180:	143b082d 	lu12i.w	$r13,120897(0x1d841)
1c01a184:	029431ad 	addi.w	$r13,$r13,1292(0x50c)
1c01a188:	1400000b 	lu12i.w	$r11,0
1c01a18c:	0280016b 	addi.w	$r11,$r11,0
1c01a190:	0012b58a 	sltu	$r10,$r12,$r13
1c01a194:	5c018d4b 	bne	$r10,$r11,396(0x18c) # 1c01a320 <inst_error>
1c01a198:	143dc8ac 	lu12i.w	$r12,126533(0x1ee45)
1c01a19c:	02b4218c 	addi.w	$r12,$r12,-760(0xd08)
1c01a1a0:	1566096d 	lu12i.w	$r13,-315317(0xb304b)
1c01a1a4:	028e41ad 	addi.w	$r13,$r13,912(0x390)
1c01a1a8:	1400000b 	lu12i.w	$r11,0
1c01a1ac:	0280056b 	addi.w	$r11,$r11,1(0x1)
1c01a1b0:	0012b58a 	sltu	$r10,$r12,$r13
1c01a1b4:	5c016d4b 	bne	$r10,$r11,364(0x16c) # 1c01a320 <inst_error>
1c01a1b8:	1425346c 	lu12i.w	$r12,76195(0x129a3)
1c01a1bc:	02927d8c 	addi.w	$r12,$r12,1183(0x49f)
1c01a1c0:	14ebdead 	lu12i.w	$r13,483061(0x75ef5)
1c01a1c4:	02ab49ad 	addi.w	$r13,$r13,-1326(0xad2)
1c01a1c8:	1400000b 	lu12i.w	$r11,0
1c01a1cc:	0280056b 	addi.w	$r11,$r11,1(0x1)
1c01a1d0:	0012b58a 	sltu	$r10,$r12,$r13
1c01a1d4:	5c014d4b 	bne	$r10,$r11,332(0x14c) # 1c01a320 <inst_error>
1c01a1d8:	14d5708c 	lu12i.w	$r12,437124(0x6ab84)
1c01a1dc:	0289e18c 	addi.w	$r12,$r12,632(0x278)
1c01a1e0:	15a245ad 	lu12i.w	$r13,-191955(0xd122d)
1c01a1e4:	02aeb1ad 	addi.w	$r13,$r13,-1108(0xbac)
1c01a1e8:	1400000b 	lu12i.w	$r11,0
1c01a1ec:	0280056b 	addi.w	$r11,$r11,1(0x1)
1c01a1f0:	0012b58a 	sltu	$r10,$r12,$r13
1c01a1f4:	5c012d4b 	bne	$r10,$r11,300(0x12c) # 1c01a320 <inst_error>
1c01a1f8:	14fcc78c 	lu12i.w	$r12,517692(0x7e63c)
1c01a1fc:	02b8c18c 	addi.w	$r12,$r12,-464(0xe30)
1c01a200:	148392ad 	lu12i.w	$r13,269461(0x41c95)
1c01a204:	02b8d9ad 	addi.w	$r13,$r13,-458(0xe36)
1c01a208:	1400000b 	lu12i.w	$r11,0
1c01a20c:	0280016b 	addi.w	$r11,$r11,0
1c01a210:	0012b58a 	sltu	$r10,$r12,$r13
1c01a214:	5c010d4b 	bne	$r10,$r11,268(0x10c) # 1c01a320 <inst_error>
1c01a218:	1400000c 	lu12i.w	$r12,0
1c01a21c:	0280018c 	addi.w	$r12,$r12,0
1c01a220:	15b8076d 	lu12i.w	$r13,-147397(0xdc03b)
1c01a224:	029301ad 	addi.w	$r13,$r13,1216(0x4c0)
1c01a228:	1400000b 	lu12i.w	$r11,0
1c01a22c:	0280056b 	addi.w	$r11,$r11,1(0x1)
1c01a230:	0012b58a 	sltu	$r10,$r12,$r13
1c01a234:	5c00ed4b 	bne	$r10,$r11,236(0xec) # 1c01a320 <inst_error>
1c01a238:	1400000c 	lu12i.w	$r12,0
1c01a23c:	0280018c 	addi.w	$r12,$r12,0
1c01a240:	145f514d 	lu12i.w	$r13,195210(0x2fa8a)
1c01a244:	02a1b1ad 	addi.w	$r13,$r13,-1940(0x86c)
1c01a248:	1400000b 	lu12i.w	$r11,0
1c01a24c:	0280056b 	addi.w	$r11,$r11,1(0x1)
1c01a250:	0012b58a 	sltu	$r10,$r12,$r13
1c01a254:	5c00cd4b 	bne	$r10,$r11,204(0xcc) # 1c01a320 <inst_error>
1c01a258:	1400000c 	lu12i.w	$r12,0
1c01a25c:	0280018c 	addi.w	$r12,$r12,0
1c01a260:	15da11ed 	lu12i.w	$r13,-77681(0xed08f)
1c01a264:	02a91dad 	addi.w	$r13,$r13,-1465(0xa47)
1c01a268:	1400000b 	lu12i.w	$r11,0
1c01a26c:	0280056b 	addi.w	$r11,$r11,1(0x1)
1c01a270:	0012b58a 	sltu	$r10,$r12,$r13
1c01a274:	5c00ad4b 	bne	$r10,$r11,172(0xac) # 1c01a320 <inst_error>
1c01a278:	1400000c 	lu12i.w	$r12,0
1c01a27c:	0280018c 	addi.w	$r12,$r12,0
1c01a280:	1460c72d 	lu12i.w	$r13,198201(0x30639)
1c01a284:	028b31ad 	addi.w	$r13,$r13,716(0x2cc)
1c01a288:	1400000b 	lu12i.w	$r11,0
1c01a28c:	0280056b 	addi.w	$r11,$r11,1(0x1)
1c01a290:	0012b58a 	sltu	$r10,$r12,$r13
1c01a294:	5c008d4b 	bne	$r10,$r11,140(0x8c) # 1c01a320 <inst_error>
1c01a298:	1400000c 	lu12i.w	$r12,0
1c01a29c:	0280018c 	addi.w	$r12,$r12,0
1c01a2a0:	15748dad 	lu12i.w	$r13,-285587(0xba46d)
1c01a2a4:	02a175ad 	addi.w	$r13,$r13,-1955(0x85d)
1c01a2a8:	1400000b 	lu12i.w	$r11,0
1c01a2ac:	0280056b 	addi.w	$r11,$r11,1(0x1)
1c01a2b0:	0012b58a 	sltu	$r10,$r12,$r13
1c01a2b4:	5c006d4b 	bne	$r10,$r11,108(0x6c) # 1c01a320 <inst_error>
1c01a2b8:	1400000c 	lu12i.w	$r12,0
1c01a2bc:	0280018c 	addi.w	$r12,$r12,0
1c01a2c0:	140b3c6d 	lu12i.w	$r13,23011(0x59e3)
1c01a2c4:	02b6a1ad 	addi.w	$r13,$r13,-600(0xda8)
1c01a2c8:	1400000b 	lu12i.w	$r11,0
1c01a2cc:	0280056b 	addi.w	$r11,$r11,1(0x1)
1c01a2d0:	0012b58a 	sltu	$r10,$r12,$r13
1c01a2d4:	5c004d4b 	bne	$r10,$r11,76(0x4c) # 1c01a320 <inst_error>
1c01a2d8:	1400000c 	lu12i.w	$r12,0
1c01a2dc:	0280018c 	addi.w	$r12,$r12,0
1c01a2e0:	1465e4ed 	lu12i.w	$r13,208679(0x32f27)
1c01a2e4:	029e11ad 	addi.w	$r13,$r13,1924(0x784)
1c01a2e8:	1400000b 	lu12i.w	$r11,0
1c01a2ec:	0280056b 	addi.w	$r11,$r11,1(0x1)
1c01a2f0:	0012b58a 	sltu	$r10,$r12,$r13
1c01a2f4:	5c002d4b 	bne	$r10,$r11,44(0x2c) # 1c01a320 <inst_error>
1c01a2f8:	1400000c 	lu12i.w	$r12,0
1c01a2fc:	0280018c 	addi.w	$r12,$r12,0
1c01a300:	1400000d 	lu12i.w	$r13,0
1c01a304:	028001ad 	addi.w	$r13,$r13,0
1c01a308:	1400000b 	lu12i.w	$r11,0
1c01a30c:	0280016b 	addi.w	$r11,$r11,0
1c01a310:	0012b58a 	sltu	$r10,$r12,$r13
1c01a314:	5c000d4b 	bne	$r10,$r11,12(0xc) # 1c01a320 <inst_error>
1c01a318:	5c000b20 	bne	$r25,$r0,8(0x8) # 1c01a320 <inst_error>
1c01a31c:	0280075a 	addi.w	$r26,$r26,1(0x1)

1c01a320 <inst_error>:
1c01a320:	0040e2ed 	slli.w	$r13,$r23,0x18
1c01a324:	001569ac 	or	$r12,$r13,$r26
1c01a328:	2980030c 	st.w	$r12,$r24,0
1c01a32c:	4c000020 	jirl	$r0,$r1,0

1c01a330 <n13_srai_w_test>:
n13_srai_w_test():
1c01a330:	028006f7 	addi.w	$r23,$r23,1(0x1)
1c01a334:	00150019 	move	$r25,$r0
1c01a338:	14fc010c 	lu12i.w	$r12,516104(0x7e008)
1c01a33c:	028fc18c 	addi.w	$r12,$r12,1008(0x3f0)
1c01a340:	14007e0b 	lu12i.w	$r11,1008(0x3f0)
1c01a344:	0281056b 	addi.w	$r11,$r11,65(0x41)
1c01a348:	0048a58a 	srai.w	$r10,$r12,0x9
1c01a34c:	5c039d4b 	bne	$r10,$r11,924(0x39c) # 1c01a6e8 <inst_error>
1c01a350:	1427cd0c 	lu12i.w	$r12,81512(0x13e68)
1c01a354:	0283018c 	addi.w	$r12,$r12,192(0xc0)
1c01a358:	1400000b 	lu12i.w	$r11,0
1c01a35c:	02804d6b 	addi.w	$r11,$r11,19(0x13)
1c01a360:	0048e18a 	srai.w	$r10,$r12,0x18
1c01a364:	5c03854b 	bne	$r10,$r11,900(0x384) # 1c01a6e8 <inst_error>
1c01a368:	14dae72c 	lu12i.w	$r12,448313(0x6d739)
1c01a36c:	02a3b18c 	addi.w	$r12,$r12,-1812(0x8ec)
1c01a370:	140000eb 	lu12i.w	$r11,7(0x7)
1c01a374:	02b5cd6b 	addi.w	$r11,$r11,-653(0xd73)
1c01a378:	0048c18a 	srai.w	$r10,$r12,0x10
1c01a37c:	5c036d4b 	bne	$r10,$r11,876(0x36c) # 1c01a6e8 <inst_error>
1c01a380:	15809e0c 	lu12i.w	$r12,-260880(0xc04f0)
1c01a384:	02b3318c 	addi.w	$r12,$r12,-820(0xccc)
1c01a388:	15ffff8b 	lu12i.w	$r11,-4(0xffffc)
1c01a38c:	0281396b 	addi.w	$r11,$r11,78(0x4e)
1c01a390:	0048c18a 	srai.w	$r10,$r12,0x10
1c01a394:	5c03554b 	bne	$r10,$r11,852(0x354) # 1c01a6e8 <inst_error>
1c01a398:	15ad8cec 	lu12i.w	$r12,-168857(0xd6c67)
1c01a39c:	0288018c 	addi.w	$r12,$r12,512(0x200)
1c01a3a0:	1400000b 	lu12i.w	$r11,0
1c01a3a4:	02b5b16b 	addi.w	$r11,$r11,-660(0xd6c)
1c01a3a8:	0048d18a 	srai.w	$r10,$r12,0x14
1c01a3ac:	5c033d4b 	bne	$r10,$r11,828(0x33c) # 1c01a6e8 <inst_error>
1c01a3b0:	146cdd4c 	lu12i.w	$r12,222954(0x366ea)
1c01a3b4:	0283f98c 	addi.w	$r12,$r12,254(0xfe)
1c01a3b8:	1400000b 	lu12i.w	$r11,0
1c01a3bc:	0280016b 	addi.w	$r11,$r11,0
1c01a3c0:	0048f98a 	srai.w	$r10,$r12,0x1e
1c01a3c4:	5c03254b 	bne	$r10,$r11,804(0x324) # 1c01a6e8 <inst_error>
1c01a3c8:	1494686c 	lu12i.w	$r12,303939(0x4a343)
1c01a3cc:	029f018c 	addi.w	$r12,$r12,1984(0x7c0)
1c01a3d0:	140128eb 	lu12i.w	$r11,2375(0x947)
1c01a3d4:	02a1bd6b 	addi.w	$r11,$r11,-1937(0x86f)
1c01a3d8:	00489d8a 	srai.w	$r10,$r12,0x7
1c01a3dc:	5c030d4b 	bne	$r10,$r11,780(0x30c) # 1c01a6e8 <inst_error>
1c01a3e0:	146aba4c 	lu12i.w	$r12,218578(0x355d2)
1c01a3e4:	0296818c 	addi.w	$r12,$r12,1440(0x5a0)
1c01a3e8:	1400000b 	lu12i.w	$r11,0
1c01a3ec:	029aad6b 	addi.w	$r11,$r11,1707(0x6ab)
1c01a3f0:	0048cd8a 	srai.w	$r10,$r12,0x13
1c01a3f4:	5c02f54b 	bne	$r10,$r11,756(0x2f4) # 1c01a6e8 <inst_error>
1c01a3f8:	14735bec 	lu12i.w	$r12,236255(0x39adf)
1c01a3fc:	029b458c 	addi.w	$r12,$r12,1745(0x6d1)
1c01a400:	1400736b 	lu12i.w	$r11,923(0x39b)
1c01a404:	02b7d96b 	addi.w	$r11,$r11,-522(0xdf6)
1c01a408:	0048a18a 	srai.w	$r10,$r12,0x8
1c01a40c:	5c02dd4b 	bne	$r10,$r11,732(0x2dc) # 1c01a6e8 <inst_error>
1c01a410:	1581292c 	lu12i.w	$r12,-259767(0xc0949)
1c01a414:	029e018c 	addi.w	$r12,$r12,1920(0x780)
1c01a418:	1400000b 	lu12i.w	$r11,0
1c01a41c:	02a0496b 	addi.w	$r11,$r11,-2030(0x812)
1c01a420:	0048cd8a 	srai.w	$r10,$r12,0x13
1c01a424:	5c02c54b 	bne	$r10,$r11,708(0x2c4) # 1c01a6e8 <inst_error>
1c01a428:	15e13d4c 	lu12i.w	$r12,-62998(0xf09ea)
1c01a42c:	0286818c 	addi.w	$r12,$r12,416(0x1a0)
1c01a430:	1400000b 	lu12i.w	$r11,0
1c01a434:	02bffd6b 	addi.w	$r11,$r11,-1(0xfff)
1c01a438:	0048f58a 	srai.w	$r10,$r12,0x1d
1c01a43c:	5c02ad4b 	bne	$r10,$r11,684(0x2ac) # 1c01a6e8 <inst_error>
1c01a440:	15f4da6c 	lu12i.w	$r12,-22829(0xfa6d3)
1c01a444:	02ae018c 	addi.w	$r12,$r12,-1152(0xb80)
1c01a448:	1400000b 	lu12i.w	$r11,0
1c01a44c:	02bffd6b 	addi.w	$r11,$r11,-1(0xfff)
1c01a450:	0048ed8a 	srai.w	$r10,$r12,0x1b
1c01a454:	5c02954b 	bne	$r10,$r11,660(0x294) # 1c01a6e8 <inst_error>
1c01a458:	142b7f6c 	lu12i.w	$r12,89083(0x15bfb)
1c01a45c:	02a8518c 	addi.w	$r12,$r12,-1516(0xa14)
1c01a460:	1400000b 	lu12i.w	$r11,0
1c01a464:	0280016b 	addi.w	$r11,$r11,0
1c01a468:	0048f58a 	srai.w	$r10,$r12,0x1d
1c01a46c:	5c027d4b 	bne	$r10,$r11,636(0x27c) # 1c01a6e8 <inst_error>
1c01a470:	15f0648c 	lu12i.w	$r12,-31964(0xf8324)
1c01a474:	028b018c 	addi.w	$r12,$r12,704(0x2c0)
1c01a478:	1400000b 	lu12i.w	$r11,0
1c01a47c:	02bffd6b 	addi.w	$r11,$r11,-1(0xfff)
1c01a480:	0048f18a 	srai.w	$r10,$r12,0x1c
1c01a484:	5c02654b 	bne	$r10,$r11,612(0x264) # 1c01a6e8 <inst_error>
1c01a488:	145d6fcc 	lu12i.w	$r12,191358(0x2eb7e)
1c01a48c:	02b8018c 	addi.w	$r12,$r12,-512(0xe00)
1c01a490:	1400000b 	lu12i.w	$r11,0
1c01a494:	0280016b 	addi.w	$r11,$r11,0
1c01a498:	0048fd8a 	srai.w	$r10,$r12,0x1f
1c01a49c:	5c024d4b 	bne	$r10,$r11,588(0x24c) # 1c01a6e8 <inst_error>
1c01a4a0:	1440126c 	lu12i.w	$r12,131219(0x20093)
1c01a4a4:	028b818c 	addi.w	$r12,$r12,736(0x2e0)
1c01a4a8:	1400020b 	lu12i.w	$r11,16(0x10)
1c01a4ac:	0281256b 	addi.w	$r11,$r11,73(0x49)
1c01a4b0:	0048b58a 	srai.w	$r10,$r12,0xd
1c01a4b4:	5c02354b 	bne	$r10,$r11,564(0x234) # 1c01a6e8 <inst_error>
1c01a4b8:	14d6bfec 	lu12i.w	$r12,439807(0x6b5ff)
1c01a4bc:	02bf4d8c 	addi.w	$r12,$r12,-45(0xfd3)
1c01a4c0:	14006b6b 	lu12i.w	$r11,859(0x35b)
1c01a4c4:	02bfdd6b 	addi.w	$r11,$r11,-9(0xff7)
1c01a4c8:	0048a58a 	srai.w	$r10,$r12,0x9
1c01a4cc:	5c021d4b 	bne	$r10,$r11,540(0x21c) # 1c01a6e8 <inst_error>
1c01a4d0:	1518b08c 	lu12i.w	$r12,-473724(0x8c584)
1c01a4d4:	02bd618c 	addi.w	$r12,$r12,-168(0xf58)
1c01a4d8:	15fff18b 	lu12i.w	$r11,-116(0xfff8c)
1c01a4dc:	02960d6b 	addi.w	$r11,$r11,1411(0x583)
1c01a4e0:	0048b18a 	srai.w	$r10,$r12,0xc
1c01a4e4:	5c02054b 	bne	$r10,$r11,516(0x204) # 1c01a6e8 <inst_error>
1c01a4e8:	15ef7eec 	lu12i.w	$r12,-33801(0xf7bf7)
1c01a4ec:	02ab418c 	addi.w	$r12,$r12,-1328(0xad0)
1c01a4f0:	1400000b 	lu12i.w	$r11,0
1c01a4f4:	02bffd6b 	addi.w	$r11,$r11,-1(0xfff)
1c01a4f8:	0048f58a 	srai.w	$r10,$r12,0x1d
1c01a4fc:	5c01ed4b 	bne	$r10,$r11,492(0x1ec) # 1c01a6e8 <inst_error>
1c01a500:	147f944c 	lu12i.w	$r12,261282(0x3fca2)
1c01a504:	02be798c 	addi.w	$r12,$r12,-98(0xf9e)
1c01a508:	141fe50b 	lu12i.w	$r11,65320(0xff28)
1c01a50c:	029f9d6b 	addi.w	$r11,$r11,2023(0x7e7)
1c01a510:	0048898a 	srai.w	$r10,$r12,0x2
1c01a514:	5c01d54b 	bne	$r10,$r11,468(0x1d4) # 1c01a6e8 <inst_error>
1c01a518:	14ce69ec 	lu12i.w	$r12,422735(0x6734f)
1c01a51c:	0298918c 	addi.w	$r12,$r12,1572(0x624)
1c01a520:	140000cb 	lu12i.w	$r11,6(0x6)
1c01a524:	029cd16b 	addi.w	$r11,$r11,1844(0x734)
1c01a528:	0048c18a 	srai.w	$r10,$r12,0x10
1c01a52c:	5c01bd4b 	bne	$r10,$r11,444(0x1bc) # 1c01a6e8 <inst_error>
1c01a530:	159291ac 	lu12i.w	$r12,-224115(0xc948d)
1c01a534:	0283d58c 	addi.w	$r12,$r12,245(0xf5)
1c01a538:	15ffffab 	lu12i.w	$r11,-3(0xffffd)
1c01a53c:	02a5216b 	addi.w	$r11,$r11,-1720(0x948)
1c01a540:	0048c18a 	srai.w	$r10,$r12,0x10
1c01a544:	5c01a54b 	bne	$r10,$r11,420(0x1a4) # 1c01a6e8 <inst_error>
1c01a548:	1450390c 	lu12i.w	$r12,164296(0x281c8)
1c01a54c:	029c958c 	addi.w	$r12,$r12,1829(0x725)
1c01a550:	1400002b 	lu12i.w	$r11,1(0x1)
1c01a554:	0290396b 	addi.w	$r11,$r11,1038(0x40e)
1c01a558:	0048c58a 	srai.w	$r10,$r12,0x11
1c01a55c:	5c018d4b 	bne	$r10,$r11,396(0x18c) # 1c01a6e8 <inst_error>
1c01a560:	15933f6c 	lu12i.w	$r12,-222725(0xc99fb)
1c01a564:	02b0998c 	addi.w	$r12,$r12,-986(0xc26)
1c01a568:	1400000b 	lu12i.w	$r11,0
1c01a56c:	02be4d6b 	addi.w	$r11,$r11,-109(0xf93)
1c01a570:	0048dd8a 	srai.w	$r10,$r12,0x17
1c01a574:	5c01754b 	bne	$r10,$r11,372(0x174) # 1c01a6e8 <inst_error>
1c01a578:	1474968c 	lu12i.w	$r12,238772(0x3a4b4)
1c01a57c:	02b4798c 	addi.w	$r12,$r12,-738(0xd1e)
1c01a580:	1474968b 	lu12i.w	$r11,238772(0x3a4b4)
1c01a584:	02b4796b 	addi.w	$r11,$r11,-738(0xd1e)
1c01a588:	0048818a 	srai.w	$r10,$r12,0x0
1c01a58c:	5c015d4b 	bne	$r10,$r11,348(0x15c) # 1c01a6e8 <inst_error>
1c01a590:	1509b4ec 	lu12i.w	$r12,-504409(0x84da7)
1c01a594:	02bb018c 	addi.w	$r12,$r12,-320(0xec0)
1c01a598:	15f09b4b 	lu12i.w	$r11,-31526(0xf84da)
1c01a59c:	029bb16b 	addi.w	$r11,$r11,1772(0x6ec)
1c01a5a0:	0048918a 	srai.w	$r10,$r12,0x4
1c01a5a4:	5c01454b 	bne	$r10,$r11,324(0x144) # 1c01a6e8 <inst_error>
1c01a5a8:	144980ac 	lu12i.w	$r12,150533(0x24c05)
1c01a5ac:	02aae18c 	addi.w	$r12,$r12,-1352(0xab8)
1c01a5b0:	1400000b 	lu12i.w	$r11,0
1c01a5b4:	02824d6b 	addi.w	$r11,$r11,147(0x93)
1c01a5b8:	0048d98a 	srai.w	$r10,$r12,0x16
1c01a5bc:	5c012d4b 	bne	$r10,$r11,300(0x12c) # 1c01a6e8 <inst_error>
1c01a5c0:	140dcecc 	lu12i.w	$r12,28278(0x6e76)
1c01a5c4:	02b11d8c 	addi.w	$r12,$r12,-953(0xc47)
1c01a5c8:	1400000b 	lu12i.w	$r11,0
1c01a5cc:	0283716b 	addi.w	$r11,$r11,220(0xdc)
1c01a5d0:	0048cd8a 	srai.w	$r10,$r12,0x13
1c01a5d4:	5c01154b 	bne	$r10,$r11,276(0x114) # 1c01a6e8 <inst_error>
1c01a5d8:	15302b4c 	lu12i.w	$r12,-425638(0x9815a)
1c01a5dc:	0292d18c 	addi.w	$r12,$r12,1204(0x4b4)
1c01a5e0:	15ffffcb 	lu12i.w	$r11,-2(0xffffe)
1c01a5e4:	0298156b 	addi.w	$r11,$r11,1541(0x605)
1c01a5e8:	0048c98a 	srai.w	$r10,$r12,0x12
1c01a5ec:	5c00fd4b 	bne	$r10,$r11,252(0xfc) # 1c01a6e8 <inst_error>
1c01a5f0:	15abf44c 	lu12i.w	$r12,-172126(0xd5fa2)
1c01a5f4:	02b0898c 	addi.w	$r12,$r12,-990(0xc22)
1c01a5f8:	15ffff6b 	lu12i.w	$r11,-5(0xffffb)
1c01a5fc:	02afd16b 	addi.w	$r11,$r11,-1036(0xbf4)
1c01a600:	0048bd8a 	srai.w	$r10,$r12,0xf
1c01a604:	5c00e54b 	bne	$r10,$r11,228(0xe4) # 1c01a6e8 <inst_error>
1c01a608:	1400000c 	lu12i.w	$r12,0
1c01a60c:	0280018c 	addi.w	$r12,$r12,0
1c01a610:	1400000b 	lu12i.w	$r11,0
1c01a614:	0280016b 	addi.w	$r11,$r11,0
1c01a618:	0048d98a 	srai.w	$r10,$r12,0x16
1c01a61c:	5c00cd4b 	bne	$r10,$r11,204(0xcc) # 1c01a6e8 <inst_error>
1c01a620:	1400000c 	lu12i.w	$r12,0
1c01a624:	0280018c 	addi.w	$r12,$r12,0
1c01a628:	1400000b 	lu12i.w	$r11,0
1c01a62c:	0280016b 	addi.w	$r11,$r11,0
1c01a630:	0048d18a 	srai.w	$r10,$r12,0x14
1c01a634:	5c00b54b 	bne	$r10,$r11,180(0xb4) # 1c01a6e8 <inst_error>
1c01a638:	1400000c 	lu12i.w	$r12,0
1c01a63c:	0280018c 	addi.w	$r12,$r12,0
1c01a640:	1400000b 	lu12i.w	$r11,0
1c01a644:	0280016b 	addi.w	$r11,$r11,0
1c01a648:	0048bd8a 	srai.w	$r10,$r12,0xf
1c01a64c:	5c009d4b 	bne	$r10,$r11,156(0x9c) # 1c01a6e8 <inst_error>
1c01a650:	1400000c 	lu12i.w	$r12,0
1c01a654:	0280018c 	addi.w	$r12,$r12,0
1c01a658:	1400000b 	lu12i.w	$r11,0
1c01a65c:	0280016b 	addi.w	$r11,$r11,0
1c01a660:	0048d58a 	srai.w	$r10,$r12,0x15
1c01a664:	5c00854b 	bne	$r10,$r11,132(0x84) # 1c01a6e8 <inst_error>
1c01a668:	1400000c 	lu12i.w	$r12,0
1c01a66c:	0280018c 	addi.w	$r12,$r12,0
1c01a670:	1400000b 	lu12i.w	$r11,0
1c01a674:	0280016b 	addi.w	$r11,$r11,0
1c01a678:	0048e98a 	srai.w	$r10,$r12,0x1a
1c01a67c:	5c006d4b 	bne	$r10,$r11,108(0x6c) # 1c01a6e8 <inst_error>
1c01a680:	1400000c 	lu12i.w	$r12,0
1c01a684:	0280018c 	addi.w	$r12,$r12,0
1c01a688:	1400000b 	lu12i.w	$r11,0
1c01a68c:	0280016b 	addi.w	$r11,$r11,0
1c01a690:	0048858a 	srai.w	$r10,$r12,0x1
1c01a694:	5c00554b 	bne	$r10,$r11,84(0x54) # 1c01a6e8 <inst_error>
1c01a698:	1400000c 	lu12i.w	$r12,0
1c01a69c:	0280018c 	addi.w	$r12,$r12,0
1c01a6a0:	1400000b 	lu12i.w	$r11,0
1c01a6a4:	0280016b 	addi.w	$r11,$r11,0
1c01a6a8:	0048a58a 	srai.w	$r10,$r12,0x9
1c01a6ac:	5c003d4b 	bne	$r10,$r11,60(0x3c) # 1c01a6e8 <inst_error>
1c01a6b0:	1400000c 	lu12i.w	$r12,0
1c01a6b4:	0280018c 	addi.w	$r12,$r12,0
1c01a6b8:	1400000b 	lu12i.w	$r11,0
1c01a6bc:	0280016b 	addi.w	$r11,$r11,0
1c01a6c0:	0048d98a 	srai.w	$r10,$r12,0x16
1c01a6c4:	5c00254b 	bne	$r10,$r11,36(0x24) # 1c01a6e8 <inst_error>
1c01a6c8:	1400000c 	lu12i.w	$r12,0
1c01a6cc:	0280018c 	addi.w	$r12,$r12,0
1c01a6d0:	1400000b 	lu12i.w	$r11,0
1c01a6d4:	0280016b 	addi.w	$r11,$r11,0
1c01a6d8:	0048818a 	srai.w	$r10,$r12,0x0
1c01a6dc:	5c000d4b 	bne	$r10,$r11,12(0xc) # 1c01a6e8 <inst_error>
1c01a6e0:	5c000b20 	bne	$r25,$r0,8(0x8) # 1c01a6e8 <inst_error>
1c01a6e4:	0280075a 	addi.w	$r26,$r26,1(0x1)

1c01a6e8 <inst_error>:
1c01a6e8:	0040e2ed 	slli.w	$r13,$r23,0x18
1c01a6ec:	001569ac 	or	$r12,$r13,$r26
1c01a6f0:	2980030c 	st.w	$r12,$r24,0
1c01a6f4:	4c000020 	jirl	$r0,$r1,0

1c01a6f8 <n1_lu12i_w_test>:
n1_lu12i_w_test():
1c01a6f8:	028006f7 	addi.w	$r23,$r23,1(0x1)
1c01a6fc:	02800019 	addi.w	$r25,$r0,0
1c01a700:	1400002e 	lu12i.w	$r14,1(0x1)
1c01a704:	0280000d 	addi.w	$r13,$r0,0
1c01a708:	14000004 	lu12i.w	$r4,0
1c01a70c:	1400000c 	lu12i.w	$r12,0
1c01a710:	00103484 	add.w	$r4,$r4,$r13
1c01a714:	001039ad 	add.w	$r13,$r13,$r14
1c01a718:	5c03c184 	bne	$r12,$r4,960(0x3c0) # 1c01aad8 <inst_error>
1c01a71c:	14000004 	lu12i.w	$r4,0
1c01a720:	1400002c 	lu12i.w	$r12,1(0x1)
1c01a724:	00103484 	add.w	$r4,$r4,$r13
1c01a728:	001039ad 	add.w	$r13,$r13,$r14
1c01a72c:	5c03ad84 	bne	$r12,$r4,940(0x3ac) # 1c01aad8 <inst_error>
1c01a730:	14000004 	lu12i.w	$r4,0
1c01a734:	1400004c 	lu12i.w	$r12,2(0x2)
1c01a738:	00103484 	add.w	$r4,$r4,$r13
1c01a73c:	001039ad 	add.w	$r13,$r13,$r14
1c01a740:	5c039984 	bne	$r12,$r4,920(0x398) # 1c01aad8 <inst_error>
1c01a744:	14000004 	lu12i.w	$r4,0
1c01a748:	1400006c 	lu12i.w	$r12,3(0x3)
1c01a74c:	00103484 	add.w	$r4,$r4,$r13
1c01a750:	001039ad 	add.w	$r13,$r13,$r14
1c01a754:	5c038584 	bne	$r12,$r4,900(0x384) # 1c01aad8 <inst_error>
1c01a758:	14000004 	lu12i.w	$r4,0
1c01a75c:	1400008c 	lu12i.w	$r12,4(0x4)
1c01a760:	00103484 	add.w	$r4,$r4,$r13
1c01a764:	001039ad 	add.w	$r13,$r13,$r14
1c01a768:	5c037184 	bne	$r12,$r4,880(0x370) # 1c01aad8 <inst_error>
1c01a76c:	14000004 	lu12i.w	$r4,0
1c01a770:	140000ac 	lu12i.w	$r12,5(0x5)
1c01a774:	00103484 	add.w	$r4,$r4,$r13
1c01a778:	001039ad 	add.w	$r13,$r13,$r14
1c01a77c:	5c035d84 	bne	$r12,$r4,860(0x35c) # 1c01aad8 <inst_error>
1c01a780:	14000004 	lu12i.w	$r4,0
1c01a784:	140000cc 	lu12i.w	$r12,6(0x6)
1c01a788:	00103484 	add.w	$r4,$r4,$r13
1c01a78c:	001039ad 	add.w	$r13,$r13,$r14
1c01a790:	5c034984 	bne	$r12,$r4,840(0x348) # 1c01aad8 <inst_error>
1c01a794:	14000004 	lu12i.w	$r4,0
1c01a798:	140000ec 	lu12i.w	$r12,7(0x7)
1c01a79c:	00103484 	add.w	$r4,$r4,$r13
1c01a7a0:	001039ad 	add.w	$r13,$r13,$r14
1c01a7a4:	5c033584 	bne	$r12,$r4,820(0x334) # 1c01aad8 <inst_error>
1c01a7a8:	14000004 	lu12i.w	$r4,0
1c01a7ac:	1400010c 	lu12i.w	$r12,8(0x8)
1c01a7b0:	00103484 	add.w	$r4,$r4,$r13
1c01a7b4:	001039ad 	add.w	$r13,$r13,$r14
1c01a7b8:	5c032184 	bne	$r12,$r4,800(0x320) # 1c01aad8 <inst_error>
1c01a7bc:	14000004 	lu12i.w	$r4,0
1c01a7c0:	1400012c 	lu12i.w	$r12,9(0x9)
1c01a7c4:	00103484 	add.w	$r4,$r4,$r13
1c01a7c8:	001039ad 	add.w	$r13,$r13,$r14
1c01a7cc:	5c030d84 	bne	$r12,$r4,780(0x30c) # 1c01aad8 <inst_error>
1c01a7d0:	14000004 	lu12i.w	$r4,0
1c01a7d4:	1400014c 	lu12i.w	$r12,10(0xa)
1c01a7d8:	00103484 	add.w	$r4,$r4,$r13
1c01a7dc:	001039ad 	add.w	$r13,$r13,$r14
1c01a7e0:	5c02f984 	bne	$r12,$r4,760(0x2f8) # 1c01aad8 <inst_error>
1c01a7e4:	14000004 	lu12i.w	$r4,0
1c01a7e8:	1400016c 	lu12i.w	$r12,11(0xb)
1c01a7ec:	00103484 	add.w	$r4,$r4,$r13
1c01a7f0:	001039ad 	add.w	$r13,$r13,$r14
1c01a7f4:	5c02e584 	bne	$r12,$r4,740(0x2e4) # 1c01aad8 <inst_error>
1c01a7f8:	14000004 	lu12i.w	$r4,0
1c01a7fc:	1400018c 	lu12i.w	$r12,12(0xc)
1c01a800:	00103484 	add.w	$r4,$r4,$r13
1c01a804:	001039ad 	add.w	$r13,$r13,$r14
1c01a808:	5c02d184 	bne	$r12,$r4,720(0x2d0) # 1c01aad8 <inst_error>
1c01a80c:	14000004 	lu12i.w	$r4,0
1c01a810:	140001ac 	lu12i.w	$r12,13(0xd)
1c01a814:	00103484 	add.w	$r4,$r4,$r13
1c01a818:	001039ad 	add.w	$r13,$r13,$r14
1c01a81c:	5c02bd84 	bne	$r12,$r4,700(0x2bc) # 1c01aad8 <inst_error>
1c01a820:	14000004 	lu12i.w	$r4,0
1c01a824:	140001cc 	lu12i.w	$r12,14(0xe)
1c01a828:	00103484 	add.w	$r4,$r4,$r13
1c01a82c:	001039ad 	add.w	$r13,$r13,$r14
1c01a830:	5c02a984 	bne	$r12,$r4,680(0x2a8) # 1c01aad8 <inst_error>
1c01a834:	14000004 	lu12i.w	$r4,0
1c01a838:	140001ec 	lu12i.w	$r12,15(0xf)
1c01a83c:	00103484 	add.w	$r4,$r4,$r13
1c01a840:	001039ad 	add.w	$r13,$r13,$r14
1c01a844:	5c029584 	bne	$r12,$r4,660(0x294) # 1c01aad8 <inst_error>
1c01a848:	0280000d 	addi.w	$r13,$r0,0
1c01a84c:	14220204 	lu12i.w	$r4,69648(0x11010)
1c01a850:	1422020c 	lu12i.w	$r12,69648(0x11010)
1c01a854:	00103484 	add.w	$r4,$r4,$r13
1c01a858:	001039ad 	add.w	$r13,$r13,$r14
1c01a85c:	5c027d84 	bne	$r12,$r4,636(0x27c) # 1c01aad8 <inst_error>
1c01a860:	14220204 	lu12i.w	$r4,69648(0x11010)
1c01a864:	1422022c 	lu12i.w	$r12,69649(0x11011)
1c01a868:	00103484 	add.w	$r4,$r4,$r13
1c01a86c:	001039ad 	add.w	$r13,$r13,$r14
1c01a870:	5c026984 	bne	$r12,$r4,616(0x268) # 1c01aad8 <inst_error>
1c01a874:	14220204 	lu12i.w	$r4,69648(0x11010)
1c01a878:	1422024c 	lu12i.w	$r12,69650(0x11012)
1c01a87c:	00103484 	add.w	$r4,$r4,$r13
1c01a880:	001039ad 	add.w	$r13,$r13,$r14
1c01a884:	5c025584 	bne	$r12,$r4,596(0x254) # 1c01aad8 <inst_error>
1c01a888:	14220204 	lu12i.w	$r4,69648(0x11010)
1c01a88c:	1422026c 	lu12i.w	$r12,69651(0x11013)
1c01a890:	00103484 	add.w	$r4,$r4,$r13
1c01a894:	001039ad 	add.w	$r13,$r13,$r14
1c01a898:	5c024184 	bne	$r12,$r4,576(0x240) # 1c01aad8 <inst_error>
1c01a89c:	14220204 	lu12i.w	$r4,69648(0x11010)
1c01a8a0:	1422028c 	lu12i.w	$r12,69652(0x11014)
1c01a8a4:	00103484 	add.w	$r4,$r4,$r13
1c01a8a8:	001039ad 	add.w	$r13,$r13,$r14
1c01a8ac:	5c022d84 	bne	$r12,$r4,556(0x22c) # 1c01aad8 <inst_error>
1c01a8b0:	14220204 	lu12i.w	$r4,69648(0x11010)
1c01a8b4:	142202ac 	lu12i.w	$r12,69653(0x11015)
1c01a8b8:	00103484 	add.w	$r4,$r4,$r13
1c01a8bc:	001039ad 	add.w	$r13,$r13,$r14
1c01a8c0:	5c021984 	bne	$r12,$r4,536(0x218) # 1c01aad8 <inst_error>
1c01a8c4:	14220204 	lu12i.w	$r4,69648(0x11010)
1c01a8c8:	142202cc 	lu12i.w	$r12,69654(0x11016)
1c01a8cc:	00103484 	add.w	$r4,$r4,$r13
1c01a8d0:	001039ad 	add.w	$r13,$r13,$r14
1c01a8d4:	5c020584 	bne	$r12,$r4,516(0x204) # 1c01aad8 <inst_error>
1c01a8d8:	14220204 	lu12i.w	$r4,69648(0x11010)
1c01a8dc:	142202ec 	lu12i.w	$r12,69655(0x11017)
1c01a8e0:	00103484 	add.w	$r4,$r4,$r13
1c01a8e4:	001039ad 	add.w	$r13,$r13,$r14
1c01a8e8:	5c01f184 	bne	$r12,$r4,496(0x1f0) # 1c01aad8 <inst_error>
1c01a8ec:	14220204 	lu12i.w	$r4,69648(0x11010)
1c01a8f0:	1422030c 	lu12i.w	$r12,69656(0x11018)
1c01a8f4:	00103484 	add.w	$r4,$r4,$r13
1c01a8f8:	001039ad 	add.w	$r13,$r13,$r14
1c01a8fc:	5c01dd84 	bne	$r12,$r4,476(0x1dc) # 1c01aad8 <inst_error>
1c01a900:	14220204 	lu12i.w	$r4,69648(0x11010)
1c01a904:	1422032c 	lu12i.w	$r12,69657(0x11019)
1c01a908:	00103484 	add.w	$r4,$r4,$r13
1c01a90c:	001039ad 	add.w	$r13,$r13,$r14
1c01a910:	5c01c984 	bne	$r12,$r4,456(0x1c8) # 1c01aad8 <inst_error>
1c01a914:	14220204 	lu12i.w	$r4,69648(0x11010)
1c01a918:	1422034c 	lu12i.w	$r12,69658(0x1101a)
1c01a91c:	00103484 	add.w	$r4,$r4,$r13
1c01a920:	001039ad 	add.w	$r13,$r13,$r14
1c01a924:	5c01b584 	bne	$r12,$r4,436(0x1b4) # 1c01aad8 <inst_error>
1c01a928:	14220204 	lu12i.w	$r4,69648(0x11010)
1c01a92c:	1422036c 	lu12i.w	$r12,69659(0x1101b)
1c01a930:	00103484 	add.w	$r4,$r4,$r13
1c01a934:	001039ad 	add.w	$r13,$r13,$r14
1c01a938:	5c01a184 	bne	$r12,$r4,416(0x1a0) # 1c01aad8 <inst_error>
1c01a93c:	14220204 	lu12i.w	$r4,69648(0x11010)
1c01a940:	1422038c 	lu12i.w	$r12,69660(0x1101c)
1c01a944:	00103484 	add.w	$r4,$r4,$r13
1c01a948:	001039ad 	add.w	$r13,$r13,$r14
1c01a94c:	5c018d84 	bne	$r12,$r4,396(0x18c) # 1c01aad8 <inst_error>
1c01a950:	14220204 	lu12i.w	$r4,69648(0x11010)
1c01a954:	142203ac 	lu12i.w	$r12,69661(0x1101d)
1c01a958:	00103484 	add.w	$r4,$r4,$r13
1c01a95c:	001039ad 	add.w	$r13,$r13,$r14
1c01a960:	5c017984 	bne	$r12,$r4,376(0x178) # 1c01aad8 <inst_error>
1c01a964:	14220204 	lu12i.w	$r4,69648(0x11010)
1c01a968:	142203cc 	lu12i.w	$r12,69662(0x1101e)
1c01a96c:	00103484 	add.w	$r4,$r4,$r13
1c01a970:	001039ad 	add.w	$r13,$r13,$r14
1c01a974:	5c016584 	bne	$r12,$r4,356(0x164) # 1c01aad8 <inst_error>
1c01a978:	14220204 	lu12i.w	$r4,69648(0x11010)
1c01a97c:	142203ec 	lu12i.w	$r12,69663(0x1101f)
1c01a980:	00103484 	add.w	$r4,$r4,$r13
1c01a984:	001039ad 	add.w	$r13,$r13,$r14
1c01a988:	5c015184 	bne	$r12,$r4,336(0x150) # 1c01aad8 <inst_error>
1c01a98c:	0280000d 	addi.w	$r13,$r0,0
1c01a990:	14440404 	lu12i.w	$r4,139296(0x22020)
1c01a994:	1444040c 	lu12i.w	$r12,139296(0x22020)
1c01a998:	00103484 	add.w	$r4,$r4,$r13
1c01a99c:	001039ad 	add.w	$r13,$r13,$r14
1c01a9a0:	5c013984 	bne	$r12,$r4,312(0x138) # 1c01aad8 <inst_error>
1c01a9a4:	14440404 	lu12i.w	$r4,139296(0x22020)
1c01a9a8:	1444042c 	lu12i.w	$r12,139297(0x22021)
1c01a9ac:	00103484 	add.w	$r4,$r4,$r13
1c01a9b0:	001039ad 	add.w	$r13,$r13,$r14
1c01a9b4:	5c012584 	bne	$r12,$r4,292(0x124) # 1c01aad8 <inst_error>
1c01a9b8:	14440404 	lu12i.w	$r4,139296(0x22020)
1c01a9bc:	1444044c 	lu12i.w	$r12,139298(0x22022)
1c01a9c0:	00103484 	add.w	$r4,$r4,$r13
1c01a9c4:	001039ad 	add.w	$r13,$r13,$r14
1c01a9c8:	5c011184 	bne	$r12,$r4,272(0x110) # 1c01aad8 <inst_error>
1c01a9cc:	14440404 	lu12i.w	$r4,139296(0x22020)
1c01a9d0:	1444046c 	lu12i.w	$r12,139299(0x22023)
1c01a9d4:	00103484 	add.w	$r4,$r4,$r13
1c01a9d8:	001039ad 	add.w	$r13,$r13,$r14
1c01a9dc:	5c00fd84 	bne	$r12,$r4,252(0xfc) # 1c01aad8 <inst_error>
1c01a9e0:	14440404 	lu12i.w	$r4,139296(0x22020)
1c01a9e4:	1444048c 	lu12i.w	$r12,139300(0x22024)
1c01a9e8:	00103484 	add.w	$r4,$r4,$r13
1c01a9ec:	001039ad 	add.w	$r13,$r13,$r14
1c01a9f0:	5c00e984 	bne	$r12,$r4,232(0xe8) # 1c01aad8 <inst_error>
1c01a9f4:	14440404 	lu12i.w	$r4,139296(0x22020)
1c01a9f8:	144404ac 	lu12i.w	$r12,139301(0x22025)
1c01a9fc:	00103484 	add.w	$r4,$r4,$r13
1c01aa00:	001039ad 	add.w	$r13,$r13,$r14
1c01aa04:	5c00d584 	bne	$r12,$r4,212(0xd4) # 1c01aad8 <inst_error>
1c01aa08:	14440404 	lu12i.w	$r4,139296(0x22020)
1c01aa0c:	144404cc 	lu12i.w	$r12,139302(0x22026)
1c01aa10:	00103484 	add.w	$r4,$r4,$r13
1c01aa14:	001039ad 	add.w	$r13,$r13,$r14
1c01aa18:	5c00c184 	bne	$r12,$r4,192(0xc0) # 1c01aad8 <inst_error>
1c01aa1c:	14440404 	lu12i.w	$r4,139296(0x22020)
1c01aa20:	144404ec 	lu12i.w	$r12,139303(0x22027)
1c01aa24:	00103484 	add.w	$r4,$r4,$r13
1c01aa28:	001039ad 	add.w	$r13,$r13,$r14
1c01aa2c:	5c00ad84 	bne	$r12,$r4,172(0xac) # 1c01aad8 <inst_error>
1c01aa30:	14440404 	lu12i.w	$r4,139296(0x22020)
1c01aa34:	1444050c 	lu12i.w	$r12,139304(0x22028)
1c01aa38:	00103484 	add.w	$r4,$r4,$r13
1c01aa3c:	001039ad 	add.w	$r13,$r13,$r14
1c01aa40:	5c009984 	bne	$r12,$r4,152(0x98) # 1c01aad8 <inst_error>
1c01aa44:	14440404 	lu12i.w	$r4,139296(0x22020)
1c01aa48:	1444052c 	lu12i.w	$r12,139305(0x22029)
1c01aa4c:	00103484 	add.w	$r4,$r4,$r13
1c01aa50:	001039ad 	add.w	$r13,$r13,$r14
1c01aa54:	5c008584 	bne	$r12,$r4,132(0x84) # 1c01aad8 <inst_error>
1c01aa58:	14440404 	lu12i.w	$r4,139296(0x22020)
1c01aa5c:	1444054c 	lu12i.w	$r12,139306(0x2202a)
1c01aa60:	00103484 	add.w	$r4,$r4,$r13
1c01aa64:	001039ad 	add.w	$r13,$r13,$r14
1c01aa68:	5c007184 	bne	$r12,$r4,112(0x70) # 1c01aad8 <inst_error>
1c01aa6c:	14440404 	lu12i.w	$r4,139296(0x22020)
1c01aa70:	1444056c 	lu12i.w	$r12,139307(0x2202b)
1c01aa74:	00103484 	add.w	$r4,$r4,$r13
1c01aa78:	001039ad 	add.w	$r13,$r13,$r14
1c01aa7c:	5c005d84 	bne	$r12,$r4,92(0x5c) # 1c01aad8 <inst_error>
1c01aa80:	14440404 	lu12i.w	$r4,139296(0x22020)
1c01aa84:	1444058c 	lu12i.w	$r12,139308(0x2202c)
1c01aa88:	00103484 	add.w	$r4,$r4,$r13
1c01aa8c:	001039ad 	add.w	$r13,$r13,$r14
1c01aa90:	5c004984 	bne	$r12,$r4,72(0x48) # 1c01aad8 <inst_error>
1c01aa94:	14440404 	lu12i.w	$r4,139296(0x22020)
1c01aa98:	144405ac 	lu12i.w	$r12,139309(0x2202d)
1c01aa9c:	00103484 	add.w	$r4,$r4,$r13
1c01aaa0:	001039ad 	add.w	$r13,$r13,$r14
1c01aaa4:	5c003584 	bne	$r12,$r4,52(0x34) # 1c01aad8 <inst_error>
1c01aaa8:	14440404 	lu12i.w	$r4,139296(0x22020)
1c01aaac:	144405cc 	lu12i.w	$r12,139310(0x2202e)
1c01aab0:	00103484 	add.w	$r4,$r4,$r13
1c01aab4:	001039ad 	add.w	$r13,$r13,$r14
1c01aab8:	5c002184 	bne	$r12,$r4,32(0x20) # 1c01aad8 <inst_error>
1c01aabc:	14440404 	lu12i.w	$r4,139296(0x22020)
1c01aac0:	144405ec 	lu12i.w	$r12,139311(0x2202f)
1c01aac4:	00103484 	add.w	$r4,$r4,$r13
1c01aac8:	001039ad 	add.w	$r13,$r13,$r14
1c01aacc:	5c000d84 	bne	$r12,$r4,12(0xc) # 1c01aad8 <inst_error>
1c01aad0:	5c000b20 	bne	$r25,$r0,8(0x8) # 1c01aad8 <inst_error>
1c01aad4:	0280075a 	addi.w	$r26,$r26,1(0x1)

1c01aad8 <inst_error>:
1c01aad8:	0040e2ed 	slli.w	$r13,$r23,0x18
1c01aadc:	001569ac 	or	$r12,$r13,$r26
1c01aae0:	2980030c 	st.w	$r12,$r24,0
1c01aae4:	4c000020 	jirl	$r0,$r1,0

1c01aae8 <n19_jirl_test>:
n19_jirl_test():
1c01aae8:	028006f7 	addi.w	$r23,$r23,1(0x1)
1c01aaec:	00150019 	move	$r25,$r0
1c01aaf0:	0010041e 	add.w	$r30,$r0,$r1
1c01aaf4:	15843cf0 	lu12i.w	$r16,-253465(0xc21e7)
1c01aaf8:	02b9e210 	addi.w	$r16,$r16,-392(0xe78)
1c01aafc:	141c5d51 	lu12i.w	$r17,58090(0xe2ea)
1c01ab00:	02892231 	addi.w	$r17,$r17,584(0x248)
1c01ab04:	1400000a 	lu12i.w	$r10,0
1c01ab08:	1400000b 	lu12i.w	$r11,0
1c01ab0c:	54000400 	bl	4(0x4) # 1c01ab10 <n19_jirl_test+0x28>
1c01ab10:	0280302c 	addi.w	$r12,$r1,12(0xc)
1c01ab14:	0280902d 	addi.w	$r13,$r1,36(0x24)
1c01ab18:	50001400 	b	20(0x14) # 1c01ab2c <n19_jirl_test+0x44>
1c01ab1c:	15843cea 	lu12i.w	$r10,-253465(0xc21e7)
1c01ab20:	02b9e14a 	addi.w	$r10,$r10,-392(0xe78)
1c01ab24:	4c0001a0 	jirl	$r0,$r13,0
1c01ab28:	50001400 	b	20(0x14) # 1c01ab3c <n19_jirl_test+0x54>
1c01ab2c:	4c000180 	jirl	$r0,$r12,0
1c01ab30:	50000c00 	b	12(0xc) # 1c01ab3c <n19_jirl_test+0x54>
1c01ab34:	141c5d4b 	lu12i.w	$r11,58090(0xe2ea)
1c01ab38:	0289216b 	addi.w	$r11,$r11,584(0x248)
1c01ab3c:	15843cfc 	lu12i.w	$r28,-253465(0xc21e7)
1c01ab40:	02b9e39c 	addi.w	$r28,$r28,-392(0xe78)
1c01ab44:	141c5d5d 	lu12i.w	$r29,58090(0xe2ea)
1c01ab48:	028923bd 	addi.w	$r29,$r29,584(0x248)
1c01ab4c:	00107801 	add.w	$r1,$r0,$r30
1c01ab50:	5c1ae15c 	bne	$r10,$r28,6880(0x1ae0) # 1c01c630 <inst_error>
1c01ab54:	5c1add7d 	bne	$r11,$r29,6876(0x1adc) # 1c01c630 <inst_error>
1c01ab58:	0010041e 	add.w	$r30,$r0,$r1
1c01ab5c:	14cf2790 	lu12i.w	$r16,424252(0x6793c)
1c01ab60:	02927210 	addi.w	$r16,$r16,1180(0x49c)
1c01ab64:	14ca9671 	lu12i.w	$r17,414899(0x654b3)
1c01ab68:	02b5c231 	addi.w	$r17,$r17,-656(0xd70)
1c01ab6c:	1400000a 	lu12i.w	$r10,0
1c01ab70:	1400000b 	lu12i.w	$r11,0
1c01ab74:	54000400 	bl	4(0x4) # 1c01ab78 <n19_jirl_test+0x90>
1c01ab78:	0280302c 	addi.w	$r12,$r1,12(0xc)
1c01ab7c:	0280902d 	addi.w	$r13,$r1,36(0x24)
1c01ab80:	50001400 	b	20(0x14) # 1c01ab94 <n19_jirl_test+0xac>
1c01ab84:	14cf278a 	lu12i.w	$r10,424252(0x6793c)
1c01ab88:	0292714a 	addi.w	$r10,$r10,1180(0x49c)
1c01ab8c:	4c0001a0 	jirl	$r0,$r13,0
1c01ab90:	50001400 	b	20(0x14) # 1c01aba4 <n19_jirl_test+0xbc>
1c01ab94:	4c000180 	jirl	$r0,$r12,0
1c01ab98:	50000c00 	b	12(0xc) # 1c01aba4 <n19_jirl_test+0xbc>
1c01ab9c:	14ca966b 	lu12i.w	$r11,414899(0x654b3)
1c01aba0:	02b5c16b 	addi.w	$r11,$r11,-656(0xd70)
1c01aba4:	14cf279c 	lu12i.w	$r28,424252(0x6793c)
1c01aba8:	0292739c 	addi.w	$r28,$r28,1180(0x49c)
1c01abac:	14ca967d 	lu12i.w	$r29,414899(0x654b3)
1c01abb0:	02b5c3bd 	addi.w	$r29,$r29,-656(0xd70)
1c01abb4:	00107801 	add.w	$r1,$r0,$r30
1c01abb8:	5c1a795c 	bne	$r10,$r28,6776(0x1a78) # 1c01c630 <inst_error>
1c01abbc:	5c1a757d 	bne	$r11,$r29,6772(0x1a74) # 1c01c630 <inst_error>
1c01abc0:	0010041e 	add.w	$r30,$r0,$r1
1c01abc4:	15fe1430 	lu12i.w	$r16,-3935(0xff0a1)
1c01abc8:	02a2c210 	addi.w	$r16,$r16,-1872(0x8b0)
1c01abcc:	14a1a591 	lu12i.w	$r17,331052(0x50d2c)
1c01abd0:	02ace231 	addi.w	$r17,$r17,-1224(0xb38)
1c01abd4:	1400000a 	lu12i.w	$r10,0
1c01abd8:	1400000b 	lu12i.w	$r11,0
1c01abdc:	54000400 	bl	4(0x4) # 1c01abe0 <n19_jirl_test+0xf8>
1c01abe0:	0280302c 	addi.w	$r12,$r1,12(0xc)
1c01abe4:	0280902d 	addi.w	$r13,$r1,36(0x24)
1c01abe8:	50001400 	b	20(0x14) # 1c01abfc <n19_jirl_test+0x114>
1c01abec:	15fe142a 	lu12i.w	$r10,-3935(0xff0a1)
1c01abf0:	02a2c14a 	addi.w	$r10,$r10,-1872(0x8b0)
1c01abf4:	4c0001a0 	jirl	$r0,$r13,0
1c01abf8:	50001400 	b	20(0x14) # 1c01ac0c <n19_jirl_test+0x124>
1c01abfc:	4c000180 	jirl	$r0,$r12,0
1c01ac00:	50000c00 	b	12(0xc) # 1c01ac0c <n19_jirl_test+0x124>
1c01ac04:	14a1a58b 	lu12i.w	$r11,331052(0x50d2c)
1c01ac08:	02ace16b 	addi.w	$r11,$r11,-1224(0xb38)
1c01ac0c:	15fe143c 	lu12i.w	$r28,-3935(0xff0a1)
1c01ac10:	02a2c39c 	addi.w	$r28,$r28,-1872(0x8b0)
1c01ac14:	14a1a59d 	lu12i.w	$r29,331052(0x50d2c)
1c01ac18:	02ace3bd 	addi.w	$r29,$r29,-1224(0xb38)
1c01ac1c:	00107801 	add.w	$r1,$r0,$r30
1c01ac20:	5c1a115c 	bne	$r10,$r28,6672(0x1a10) # 1c01c630 <inst_error>
1c01ac24:	5c1a0d7d 	bne	$r11,$r29,6668(0x1a0c) # 1c01c630 <inst_error>
1c01ac28:	0010041e 	add.w	$r30,$r0,$r1
1c01ac2c:	14e0c830 	lu12i.w	$r16,460353(0x70641)
1c01ac30:	02b91210 	addi.w	$r16,$r16,-444(0xe44)
1c01ac34:	14723611 	lu12i.w	$r17,233904(0x391b0)
1c01ac38:	02af2a31 	addi.w	$r17,$r17,-1078(0xbca)
1c01ac3c:	1400000a 	lu12i.w	$r10,0
1c01ac40:	1400000b 	lu12i.w	$r11,0
1c01ac44:	54000400 	bl	4(0x4) # 1c01ac48 <n19_jirl_test+0x160>
1c01ac48:	0280302c 	addi.w	$r12,$r1,12(0xc)
1c01ac4c:	0280902d 	addi.w	$r13,$r1,36(0x24)
1c01ac50:	50001400 	b	20(0x14) # 1c01ac64 <n19_jirl_test+0x17c>
1c01ac54:	14e0c82a 	lu12i.w	$r10,460353(0x70641)
1c01ac58:	02b9114a 	addi.w	$r10,$r10,-444(0xe44)
1c01ac5c:	4c0001a0 	jirl	$r0,$r13,0
1c01ac60:	50001400 	b	20(0x14) # 1c01ac74 <n19_jirl_test+0x18c>
1c01ac64:	4c000180 	jirl	$r0,$r12,0
1c01ac68:	50000c00 	b	12(0xc) # 1c01ac74 <n19_jirl_test+0x18c>
1c01ac6c:	1472360b 	lu12i.w	$r11,233904(0x391b0)
1c01ac70:	02af296b 	addi.w	$r11,$r11,-1078(0xbca)
1c01ac74:	14e0c83c 	lu12i.w	$r28,460353(0x70641)
1c01ac78:	02b9139c 	addi.w	$r28,$r28,-444(0xe44)
1c01ac7c:	1472361d 	lu12i.w	$r29,233904(0x391b0)
1c01ac80:	02af2bbd 	addi.w	$r29,$r29,-1078(0xbca)
1c01ac84:	00107801 	add.w	$r1,$r0,$r30
1c01ac88:	5c19a95c 	bne	$r10,$r28,6568(0x19a8) # 1c01c630 <inst_error>
1c01ac8c:	5c19a57d 	bne	$r11,$r29,6564(0x19a4) # 1c01c630 <inst_error>
1c01ac90:	0010041e 	add.w	$r30,$r0,$r1
1c01ac94:	140a0c50 	lu12i.w	$r16,20578(0x5062)
1c01ac98:	028cee10 	addi.w	$r16,$r16,827(0x33b)
1c01ac9c:	15628231 	lu12i.w	$r17,-322543(0xb1411)
1c01aca0:	0296a231 	addi.w	$r17,$r17,1448(0x5a8)
1c01aca4:	1400000a 	lu12i.w	$r10,0
1c01aca8:	1400000b 	lu12i.w	$r11,0
1c01acac:	54000400 	bl	4(0x4) # 1c01acb0 <n19_jirl_test+0x1c8>
1c01acb0:	0280302c 	addi.w	$r12,$r1,12(0xc)
1c01acb4:	0280902d 	addi.w	$r13,$r1,36(0x24)
1c01acb8:	50001400 	b	20(0x14) # 1c01accc <n19_jirl_test+0x1e4>
1c01acbc:	140a0c4a 	lu12i.w	$r10,20578(0x5062)
1c01acc0:	028ced4a 	addi.w	$r10,$r10,827(0x33b)
1c01acc4:	4c0001a0 	jirl	$r0,$r13,0
1c01acc8:	50001400 	b	20(0x14) # 1c01acdc <n19_jirl_test+0x1f4>
1c01accc:	4c000180 	jirl	$r0,$r12,0
1c01acd0:	50000c00 	b	12(0xc) # 1c01acdc <n19_jirl_test+0x1f4>
1c01acd4:	1562822b 	lu12i.w	$r11,-322543(0xb1411)
1c01acd8:	0296a16b 	addi.w	$r11,$r11,1448(0x5a8)
1c01acdc:	140a0c5c 	lu12i.w	$r28,20578(0x5062)
1c01ace0:	028cef9c 	addi.w	$r28,$r28,827(0x33b)
1c01ace4:	1562823d 	lu12i.w	$r29,-322543(0xb1411)
1c01ace8:	0296a3bd 	addi.w	$r29,$r29,1448(0x5a8)
1c01acec:	00107801 	add.w	$r1,$r0,$r30
1c01acf0:	5c19415c 	bne	$r10,$r28,6464(0x1940) # 1c01c630 <inst_error>
1c01acf4:	5c193d7d 	bne	$r11,$r29,6460(0x193c) # 1c01c630 <inst_error>
1c01acf8:	0010041e 	add.w	$r30,$r0,$r1
1c01acfc:	1538f030 	lu12i.w	$r16,-407679(0x9c781)
1c01ad00:	02951e10 	addi.w	$r16,$r16,1351(0x547)
1c01ad04:	15bc2f11 	lu12i.w	$r17,-138888(0xde178)
1c01ad08:	02888231 	addi.w	$r17,$r17,544(0x220)
1c01ad0c:	1400000a 	lu12i.w	$r10,0
1c01ad10:	1400000b 	lu12i.w	$r11,0
1c01ad14:	54000400 	bl	4(0x4) # 1c01ad18 <n19_jirl_test+0x230>
1c01ad18:	0280302c 	addi.w	$r12,$r1,12(0xc)
1c01ad1c:	0280902d 	addi.w	$r13,$r1,36(0x24)
1c01ad20:	50001400 	b	20(0x14) # 1c01ad34 <n19_jirl_test+0x24c>
1c01ad24:	1538f02a 	lu12i.w	$r10,-407679(0x9c781)
1c01ad28:	02951d4a 	addi.w	$r10,$r10,1351(0x547)
1c01ad2c:	4c0001a0 	jirl	$r0,$r13,0
1c01ad30:	50001400 	b	20(0x14) # 1c01ad44 <n19_jirl_test+0x25c>
1c01ad34:	4c000180 	jirl	$r0,$r12,0
1c01ad38:	50000c00 	b	12(0xc) # 1c01ad44 <n19_jirl_test+0x25c>
1c01ad3c:	15bc2f0b 	lu12i.w	$r11,-138888(0xde178)
1c01ad40:	0288816b 	addi.w	$r11,$r11,544(0x220)
1c01ad44:	1538f03c 	lu12i.w	$r28,-407679(0x9c781)
1c01ad48:	02951f9c 	addi.w	$r28,$r28,1351(0x547)
1c01ad4c:	15bc2f1d 	lu12i.w	$r29,-138888(0xde178)
1c01ad50:	028883bd 	addi.w	$r29,$r29,544(0x220)
1c01ad54:	00107801 	add.w	$r1,$r0,$r30
1c01ad58:	5c18d95c 	bne	$r10,$r28,6360(0x18d8) # 1c01c630 <inst_error>
1c01ad5c:	5c18d57d 	bne	$r11,$r29,6356(0x18d4) # 1c01c630 <inst_error>
1c01ad60:	0010041e 	add.w	$r30,$r0,$r1
1c01ad64:	15dcc290 	lu12i.w	$r16,-72172(0xee614)
1c01ad68:	0288ee10 	addi.w	$r16,$r16,571(0x23b)
1c01ad6c:	14505c71 	lu12i.w	$r17,164579(0x282e3)
1c01ad70:	02960231 	addi.w	$r17,$r17,1408(0x580)
1c01ad74:	1400000a 	lu12i.w	$r10,0
1c01ad78:	1400000b 	lu12i.w	$r11,0
1c01ad7c:	54000400 	bl	4(0x4) # 1c01ad80 <n19_jirl_test+0x298>
1c01ad80:	0280302c 	addi.w	$r12,$r1,12(0xc)
1c01ad84:	0280902d 	addi.w	$r13,$r1,36(0x24)
1c01ad88:	50001400 	b	20(0x14) # 1c01ad9c <n19_jirl_test+0x2b4>
1c01ad8c:	15dcc28a 	lu12i.w	$r10,-72172(0xee614)
1c01ad90:	0288ed4a 	addi.w	$r10,$r10,571(0x23b)
1c01ad94:	4c0001a0 	jirl	$r0,$r13,0
1c01ad98:	50001400 	b	20(0x14) # 1c01adac <n19_jirl_test+0x2c4>
1c01ad9c:	4c000180 	jirl	$r0,$r12,0
1c01ada0:	50000c00 	b	12(0xc) # 1c01adac <n19_jirl_test+0x2c4>
1c01ada4:	14505c6b 	lu12i.w	$r11,164579(0x282e3)
1c01ada8:	0296016b 	addi.w	$r11,$r11,1408(0x580)
1c01adac:	15dcc29c 	lu12i.w	$r28,-72172(0xee614)
1c01adb0:	0288ef9c 	addi.w	$r28,$r28,571(0x23b)
1c01adb4:	14505c7d 	lu12i.w	$r29,164579(0x282e3)
1c01adb8:	029603bd 	addi.w	$r29,$r29,1408(0x580)
1c01adbc:	00107801 	add.w	$r1,$r0,$r30
1c01adc0:	5c18715c 	bne	$r10,$r28,6256(0x1870) # 1c01c630 <inst_error>
1c01adc4:	5c186d7d 	bne	$r11,$r29,6252(0x186c) # 1c01c630 <inst_error>
1c01adc8:	0010041e 	add.w	$r30,$r0,$r1
1c01adcc:	15b99fb0 	lu12i.w	$r16,-144131(0xdccfd)
1c01add0:	028a5a10 	addi.w	$r16,$r16,662(0x296)
1c01add4:	15a4dab1 	lu12i.w	$r17,-186667(0xd26d5)
1c01add8:	02920231 	addi.w	$r17,$r17,1152(0x480)
1c01addc:	1400000a 	lu12i.w	$r10,0
1c01ade0:	1400000b 	lu12i.w	$r11,0
1c01ade4:	54000400 	bl	4(0x4) # 1c01ade8 <n19_jirl_test+0x300>
1c01ade8:	0280302c 	addi.w	$r12,$r1,12(0xc)
1c01adec:	0280902d 	addi.w	$r13,$r1,36(0x24)
1c01adf0:	50001400 	b	20(0x14) # 1c01ae04 <n19_jirl_test+0x31c>
1c01adf4:	15b99faa 	lu12i.w	$r10,-144131(0xdccfd)
1c01adf8:	028a594a 	addi.w	$r10,$r10,662(0x296)
1c01adfc:	4c0001a0 	jirl	$r0,$r13,0
1c01ae00:	50001400 	b	20(0x14) # 1c01ae14 <n19_jirl_test+0x32c>
1c01ae04:	4c000180 	jirl	$r0,$r12,0
1c01ae08:	50000c00 	b	12(0xc) # 1c01ae14 <n19_jirl_test+0x32c>
1c01ae0c:	15a4daab 	lu12i.w	$r11,-186667(0xd26d5)
1c01ae10:	0292016b 	addi.w	$r11,$r11,1152(0x480)
1c01ae14:	15b99fbc 	lu12i.w	$r28,-144131(0xdccfd)
1c01ae18:	028a5b9c 	addi.w	$r28,$r28,662(0x296)
1c01ae1c:	15a4dabd 	lu12i.w	$r29,-186667(0xd26d5)
1c01ae20:	029203bd 	addi.w	$r29,$r29,1152(0x480)
1c01ae24:	00107801 	add.w	$r1,$r0,$r30
1c01ae28:	5c18095c 	bne	$r10,$r28,6152(0x1808) # 1c01c630 <inst_error>
1c01ae2c:	5c18057d 	bne	$r11,$r29,6148(0x1804) # 1c01c630 <inst_error>
1c01ae30:	0010041e 	add.w	$r30,$r0,$r1
1c01ae34:	14537d30 	lu12i.w	$r16,170985(0x29be9)
1c01ae38:	02bc0610 	addi.w	$r16,$r16,-255(0xf01)
1c01ae3c:	1492abb1 	lu12i.w	$r17,300381(0x4955d)
1c01ae40:	028fae31 	addi.w	$r17,$r17,1003(0x3eb)
1c01ae44:	1400000a 	lu12i.w	$r10,0
1c01ae48:	1400000b 	lu12i.w	$r11,0
1c01ae4c:	54000400 	bl	4(0x4) # 1c01ae50 <n19_jirl_test+0x368>
1c01ae50:	0280302c 	addi.w	$r12,$r1,12(0xc)
1c01ae54:	0280902d 	addi.w	$r13,$r1,36(0x24)
1c01ae58:	50001400 	b	20(0x14) # 1c01ae6c <n19_jirl_test+0x384>
1c01ae5c:	14537d2a 	lu12i.w	$r10,170985(0x29be9)
1c01ae60:	02bc054a 	addi.w	$r10,$r10,-255(0xf01)
1c01ae64:	4c0001a0 	jirl	$r0,$r13,0
1c01ae68:	50001400 	b	20(0x14) # 1c01ae7c <n19_jirl_test+0x394>
1c01ae6c:	4c000180 	jirl	$r0,$r12,0
1c01ae70:	50000c00 	b	12(0xc) # 1c01ae7c <n19_jirl_test+0x394>
1c01ae74:	1492abab 	lu12i.w	$r11,300381(0x4955d)
1c01ae78:	028fad6b 	addi.w	$r11,$r11,1003(0x3eb)
1c01ae7c:	14537d3c 	lu12i.w	$r28,170985(0x29be9)
1c01ae80:	02bc079c 	addi.w	$r28,$r28,-255(0xf01)
1c01ae84:	1492abbd 	lu12i.w	$r29,300381(0x4955d)
1c01ae88:	028fafbd 	addi.w	$r29,$r29,1003(0x3eb)
1c01ae8c:	00107801 	add.w	$r1,$r0,$r30
1c01ae90:	5c17a15c 	bne	$r10,$r28,6048(0x17a0) # 1c01c630 <inst_error>
1c01ae94:	5c179d7d 	bne	$r11,$r29,6044(0x179c) # 1c01c630 <inst_error>
1c01ae98:	0010041e 	add.w	$r30,$r0,$r1
1c01ae9c:	1560d270 	lu12i.w	$r16,-325997(0xb0693)
1c01aea0:	029b0210 	addi.w	$r16,$r16,1728(0x6c0)
1c01aea4:	1522cdb1 	lu12i.w	$r17,-453011(0x9166d)
1c01aea8:	02b30231 	addi.w	$r17,$r17,-832(0xcc0)
1c01aeac:	1400000a 	lu12i.w	$r10,0
1c01aeb0:	1400000b 	lu12i.w	$r11,0
1c01aeb4:	54000400 	bl	4(0x4) # 1c01aeb8 <n19_jirl_test+0x3d0>
1c01aeb8:	0280302c 	addi.w	$r12,$r1,12(0xc)
1c01aebc:	0280902d 	addi.w	$r13,$r1,36(0x24)
1c01aec0:	50001400 	b	20(0x14) # 1c01aed4 <n19_jirl_test+0x3ec>
1c01aec4:	1560d26a 	lu12i.w	$r10,-325997(0xb0693)
1c01aec8:	029b014a 	addi.w	$r10,$r10,1728(0x6c0)
1c01aecc:	4c0001a0 	jirl	$r0,$r13,0
1c01aed0:	50001400 	b	20(0x14) # 1c01aee4 <n19_jirl_test+0x3fc>
1c01aed4:	4c000180 	jirl	$r0,$r12,0
1c01aed8:	50000c00 	b	12(0xc) # 1c01aee4 <n19_jirl_test+0x3fc>
1c01aedc:	1522cdab 	lu12i.w	$r11,-453011(0x9166d)
1c01aee0:	02b3016b 	addi.w	$r11,$r11,-832(0xcc0)
1c01aee4:	1560d27c 	lu12i.w	$r28,-325997(0xb0693)
1c01aee8:	029b039c 	addi.w	$r28,$r28,1728(0x6c0)
1c01aeec:	1522cdbd 	lu12i.w	$r29,-453011(0x9166d)
1c01aef0:	02b303bd 	addi.w	$r29,$r29,-832(0xcc0)
1c01aef4:	00107801 	add.w	$r1,$r0,$r30
1c01aef8:	5c17395c 	bne	$r10,$r28,5944(0x1738) # 1c01c630 <inst_error>
1c01aefc:	5c17357d 	bne	$r11,$r29,5940(0x1734) # 1c01c630 <inst_error>
1c01af00:	0010041e 	add.w	$r30,$r0,$r1
1c01af04:	15d36bb0 	lu12i.w	$r16,-91299(0xe9b5d)
1c01af08:	02b2a210 	addi.w	$r16,$r16,-856(0xca8)
1c01af0c:	1577e131 	lu12i.w	$r17,-278775(0xbbf09)
1c01af10:	02880631 	addi.w	$r17,$r17,513(0x201)
1c01af14:	1400000a 	lu12i.w	$r10,0
1c01af18:	1400000b 	lu12i.w	$r11,0
1c01af1c:	54000400 	bl	4(0x4) # 1c01af20 <n19_jirl_test+0x438>
1c01af20:	0280302c 	addi.w	$r12,$r1,12(0xc)
1c01af24:	0280902d 	addi.w	$r13,$r1,36(0x24)
1c01af28:	50001400 	b	20(0x14) # 1c01af3c <n19_jirl_test+0x454>
1c01af2c:	15d36baa 	lu12i.w	$r10,-91299(0xe9b5d)
1c01af30:	02b2a14a 	addi.w	$r10,$r10,-856(0xca8)
1c01af34:	4c0001a0 	jirl	$r0,$r13,0
1c01af38:	50001400 	b	20(0x14) # 1c01af4c <n19_jirl_test+0x464>
1c01af3c:	4c000180 	jirl	$r0,$r12,0
1c01af40:	50000c00 	b	12(0xc) # 1c01af4c <n19_jirl_test+0x464>
1c01af44:	1577e12b 	lu12i.w	$r11,-278775(0xbbf09)
1c01af48:	0288056b 	addi.w	$r11,$r11,513(0x201)
1c01af4c:	15d36bbc 	lu12i.w	$r28,-91299(0xe9b5d)
1c01af50:	02b2a39c 	addi.w	$r28,$r28,-856(0xca8)
1c01af54:	1577e13d 	lu12i.w	$r29,-278775(0xbbf09)
1c01af58:	028807bd 	addi.w	$r29,$r29,513(0x201)
1c01af5c:	00107801 	add.w	$r1,$r0,$r30
1c01af60:	5c16d15c 	bne	$r10,$r28,5840(0x16d0) # 1c01c630 <inst_error>
1c01af64:	5c16cd7d 	bne	$r11,$r29,5836(0x16cc) # 1c01c630 <inst_error>
1c01af68:	0010041e 	add.w	$r30,$r0,$r1
1c01af6c:	14a89eb0 	lu12i.w	$r16,345333(0x544f5)
1c01af70:	028e0210 	addi.w	$r16,$r16,896(0x380)
1c01af74:	152fd091 	lu12i.w	$r17,-426364(0x97e84)
1c01af78:	02906a31 	addi.w	$r17,$r17,1050(0x41a)
1c01af7c:	1400000a 	lu12i.w	$r10,0
1c01af80:	1400000b 	lu12i.w	$r11,0
1c01af84:	54000400 	bl	4(0x4) # 1c01af88 <n19_jirl_test+0x4a0>
1c01af88:	0280302c 	addi.w	$r12,$r1,12(0xc)
1c01af8c:	0280902d 	addi.w	$r13,$r1,36(0x24)
1c01af90:	50001400 	b	20(0x14) # 1c01afa4 <n19_jirl_test+0x4bc>
1c01af94:	14a89eaa 	lu12i.w	$r10,345333(0x544f5)
1c01af98:	028e014a 	addi.w	$r10,$r10,896(0x380)
1c01af9c:	4c0001a0 	jirl	$r0,$r13,0
1c01afa0:	50001400 	b	20(0x14) # 1c01afb4 <n19_jirl_test+0x4cc>
1c01afa4:	4c000180 	jirl	$r0,$r12,0
1c01afa8:	50000c00 	b	12(0xc) # 1c01afb4 <n19_jirl_test+0x4cc>
1c01afac:	152fd08b 	lu12i.w	$r11,-426364(0x97e84)
1c01afb0:	0290696b 	addi.w	$r11,$r11,1050(0x41a)
1c01afb4:	14a89ebc 	lu12i.w	$r28,345333(0x544f5)
1c01afb8:	028e039c 	addi.w	$r28,$r28,896(0x380)
1c01afbc:	152fd09d 	lu12i.w	$r29,-426364(0x97e84)
1c01afc0:	02906bbd 	addi.w	$r29,$r29,1050(0x41a)
1c01afc4:	00107801 	add.w	$r1,$r0,$r30
1c01afc8:	5c16695c 	bne	$r10,$r28,5736(0x1668) # 1c01c630 <inst_error>
1c01afcc:	5c16657d 	bne	$r11,$r29,5732(0x1664) # 1c01c630 <inst_error>
1c01afd0:	0010041e 	add.w	$r30,$r0,$r1
1c01afd4:	1519fe70 	lu12i.w	$r16,-471053(0x8cff3)
1c01afd8:	028fde10 	addi.w	$r16,$r16,1015(0x3f7)
1c01afdc:	150bd2b1 	lu12i.w	$r17,-500075(0x85e95)
1c01afe0:	02baa231 	addi.w	$r17,$r17,-344(0xea8)
1c01afe4:	1400000a 	lu12i.w	$r10,0
1c01afe8:	1400000b 	lu12i.w	$r11,0
1c01afec:	54000400 	bl	4(0x4) # 1c01aff0 <n19_jirl_test+0x508>
1c01aff0:	0280302c 	addi.w	$r12,$r1,12(0xc)
1c01aff4:	0280902d 	addi.w	$r13,$r1,36(0x24)
1c01aff8:	50001400 	b	20(0x14) # 1c01b00c <n19_jirl_test+0x524>
1c01affc:	1519fe6a 	lu12i.w	$r10,-471053(0x8cff3)
1c01b000:	028fdd4a 	addi.w	$r10,$r10,1015(0x3f7)
1c01b004:	4c0001a0 	jirl	$r0,$r13,0
1c01b008:	50001400 	b	20(0x14) # 1c01b01c <n19_jirl_test+0x534>
1c01b00c:	4c000180 	jirl	$r0,$r12,0
1c01b010:	50000c00 	b	12(0xc) # 1c01b01c <n19_jirl_test+0x534>
1c01b014:	150bd2ab 	lu12i.w	$r11,-500075(0x85e95)
1c01b018:	02baa16b 	addi.w	$r11,$r11,-344(0xea8)
1c01b01c:	1519fe7c 	lu12i.w	$r28,-471053(0x8cff3)
1c01b020:	028fdf9c 	addi.w	$r28,$r28,1015(0x3f7)
1c01b024:	150bd2bd 	lu12i.w	$r29,-500075(0x85e95)
1c01b028:	02baa3bd 	addi.w	$r29,$r29,-344(0xea8)
1c01b02c:	00107801 	add.w	$r1,$r0,$r30
1c01b030:	5c16015c 	bne	$r10,$r28,5632(0x1600) # 1c01c630 <inst_error>
1c01b034:	5c15fd7d 	bne	$r11,$r29,5628(0x15fc) # 1c01c630 <inst_error>
1c01b038:	0010041e 	add.w	$r30,$r0,$r1
1c01b03c:	145e8590 	lu12i.w	$r16,193580(0x2f42c)
1c01b040:	029c8210 	addi.w	$r16,$r16,1824(0x720)
1c01b044:	155fe0b1 	lu12i.w	$r17,-327931(0xaff05)
1c01b048:	02837231 	addi.w	$r17,$r17,220(0xdc)
1c01b04c:	1400000a 	lu12i.w	$r10,0
1c01b050:	1400000b 	lu12i.w	$r11,0
1c01b054:	54000400 	bl	4(0x4) # 1c01b058 <n19_jirl_test+0x570>
1c01b058:	0280302c 	addi.w	$r12,$r1,12(0xc)
1c01b05c:	0280902d 	addi.w	$r13,$r1,36(0x24)
1c01b060:	50001400 	b	20(0x14) # 1c01b074 <n19_jirl_test+0x58c>
1c01b064:	145e858a 	lu12i.w	$r10,193580(0x2f42c)
1c01b068:	029c814a 	addi.w	$r10,$r10,1824(0x720)
1c01b06c:	4c0001a0 	jirl	$r0,$r13,0
1c01b070:	50001400 	b	20(0x14) # 1c01b084 <n19_jirl_test+0x59c>
1c01b074:	4c000180 	jirl	$r0,$r12,0
1c01b078:	50000c00 	b	12(0xc) # 1c01b084 <n19_jirl_test+0x59c>
1c01b07c:	155fe0ab 	lu12i.w	$r11,-327931(0xaff05)
1c01b080:	0283716b 	addi.w	$r11,$r11,220(0xdc)
1c01b084:	145e859c 	lu12i.w	$r28,193580(0x2f42c)
1c01b088:	029c839c 	addi.w	$r28,$r28,1824(0x720)
1c01b08c:	155fe0bd 	lu12i.w	$r29,-327931(0xaff05)
1c01b090:	028373bd 	addi.w	$r29,$r29,220(0xdc)
1c01b094:	00107801 	add.w	$r1,$r0,$r30
1c01b098:	5c15995c 	bne	$r10,$r28,5528(0x1598) # 1c01c630 <inst_error>
1c01b09c:	5c15957d 	bne	$r11,$r29,5524(0x1594) # 1c01c630 <inst_error>
1c01b0a0:	0010041e 	add.w	$r30,$r0,$r1
1c01b0a4:	146b0010 	lu12i.w	$r16,219136(0x35800)
1c01b0a8:	02b30210 	addi.w	$r16,$r16,-832(0xcc0)
1c01b0ac:	15c4e4d1 	lu12i.w	$r17,-121050(0xe2726)
1c01b0b0:	02b08a31 	addi.w	$r17,$r17,-990(0xc22)
1c01b0b4:	1400000a 	lu12i.w	$r10,0
1c01b0b8:	1400000b 	lu12i.w	$r11,0
1c01b0bc:	54000400 	bl	4(0x4) # 1c01b0c0 <n19_jirl_test+0x5d8>
1c01b0c0:	0280302c 	addi.w	$r12,$r1,12(0xc)
1c01b0c4:	0280902d 	addi.w	$r13,$r1,36(0x24)
1c01b0c8:	50001400 	b	20(0x14) # 1c01b0dc <n19_jirl_test+0x5f4>
1c01b0cc:	146b000a 	lu12i.w	$r10,219136(0x35800)
1c01b0d0:	02b3014a 	addi.w	$r10,$r10,-832(0xcc0)
1c01b0d4:	4c0001a0 	jirl	$r0,$r13,0
1c01b0d8:	50001400 	b	20(0x14) # 1c01b0ec <n19_jirl_test+0x604>
1c01b0dc:	4c000180 	jirl	$r0,$r12,0
1c01b0e0:	50000c00 	b	12(0xc) # 1c01b0ec <n19_jirl_test+0x604>
1c01b0e4:	15c4e4cb 	lu12i.w	$r11,-121050(0xe2726)
1c01b0e8:	02b0896b 	addi.w	$r11,$r11,-990(0xc22)
1c01b0ec:	146b001c 	lu12i.w	$r28,219136(0x35800)
1c01b0f0:	02b3039c 	addi.w	$r28,$r28,-832(0xcc0)
1c01b0f4:	15c4e4dd 	lu12i.w	$r29,-121050(0xe2726)
1c01b0f8:	02b08bbd 	addi.w	$r29,$r29,-990(0xc22)
1c01b0fc:	00107801 	add.w	$r1,$r0,$r30
1c01b100:	5c15315c 	bne	$r10,$r28,5424(0x1530) # 1c01c630 <inst_error>
1c01b104:	5c152d7d 	bne	$r11,$r29,5420(0x152c) # 1c01c630 <inst_error>
1c01b108:	0010041e 	add.w	$r30,$r0,$r1
1c01b10c:	15e0ca90 	lu12i.w	$r16,-63916(0xf0654)
1c01b110:	02b9fe10 	addi.w	$r16,$r16,-385(0xe7f)
1c01b114:	14ffccd1 	lu12i.w	$r17,523878(0x7fe66)
1c01b118:	02ace231 	addi.w	$r17,$r17,-1224(0xb38)
1c01b11c:	1400000a 	lu12i.w	$r10,0
1c01b120:	1400000b 	lu12i.w	$r11,0
1c01b124:	54000400 	bl	4(0x4) # 1c01b128 <n19_jirl_test+0x640>
1c01b128:	0280302c 	addi.w	$r12,$r1,12(0xc)
1c01b12c:	0280902d 	addi.w	$r13,$r1,36(0x24)
1c01b130:	50001400 	b	20(0x14) # 1c01b144 <n19_jirl_test+0x65c>
1c01b134:	15e0ca8a 	lu12i.w	$r10,-63916(0xf0654)
1c01b138:	02b9fd4a 	addi.w	$r10,$r10,-385(0xe7f)
1c01b13c:	4c0001a0 	jirl	$r0,$r13,0
1c01b140:	50001400 	b	20(0x14) # 1c01b154 <n19_jirl_test+0x66c>
1c01b144:	4c000180 	jirl	$r0,$r12,0
1c01b148:	50000c00 	b	12(0xc) # 1c01b154 <n19_jirl_test+0x66c>
1c01b14c:	14ffcccb 	lu12i.w	$r11,523878(0x7fe66)
1c01b150:	02ace16b 	addi.w	$r11,$r11,-1224(0xb38)
1c01b154:	15e0ca9c 	lu12i.w	$r28,-63916(0xf0654)
1c01b158:	02b9ff9c 	addi.w	$r28,$r28,-385(0xe7f)
1c01b15c:	14ffccdd 	lu12i.w	$r29,523878(0x7fe66)
1c01b160:	02ace3bd 	addi.w	$r29,$r29,-1224(0xb38)
1c01b164:	00107801 	add.w	$r1,$r0,$r30
1c01b168:	5c14c95c 	bne	$r10,$r28,5320(0x14c8) # 1c01c630 <inst_error>
1c01b16c:	5c14c57d 	bne	$r11,$r29,5316(0x14c4) # 1c01c630 <inst_error>
1c01b170:	0010041e 	add.w	$r30,$r0,$r1
1c01b174:	14eb7d30 	lu12i.w	$r16,482281(0x75be9)
1c01b178:	02947210 	addi.w	$r16,$r16,1308(0x51c)
1c01b17c:	1427da31 	lu12i.w	$r17,81617(0x13ed1)
1c01b180:	0293a231 	addi.w	$r17,$r17,1256(0x4e8)
1c01b184:	1400000a 	lu12i.w	$r10,0
1c01b188:	1400000b 	lu12i.w	$r11,0
1c01b18c:	54000400 	bl	4(0x4) # 1c01b190 <n19_jirl_test+0x6a8>
1c01b190:	0280302c 	addi.w	$r12,$r1,12(0xc)
1c01b194:	0280902d 	addi.w	$r13,$r1,36(0x24)
1c01b198:	50001400 	b	20(0x14) # 1c01b1ac <n19_jirl_test+0x6c4>
1c01b19c:	14eb7d2a 	lu12i.w	$r10,482281(0x75be9)
1c01b1a0:	0294714a 	addi.w	$r10,$r10,1308(0x51c)
1c01b1a4:	4c0001a0 	jirl	$r0,$r13,0
1c01b1a8:	50001400 	b	20(0x14) # 1c01b1bc <n19_jirl_test+0x6d4>
1c01b1ac:	4c000180 	jirl	$r0,$r12,0
1c01b1b0:	50000c00 	b	12(0xc) # 1c01b1bc <n19_jirl_test+0x6d4>
1c01b1b4:	1427da2b 	lu12i.w	$r11,81617(0x13ed1)
1c01b1b8:	0293a16b 	addi.w	$r11,$r11,1256(0x4e8)
1c01b1bc:	14eb7d3c 	lu12i.w	$r28,482281(0x75be9)
1c01b1c0:	0294739c 	addi.w	$r28,$r28,1308(0x51c)
1c01b1c4:	1427da3d 	lu12i.w	$r29,81617(0x13ed1)
1c01b1c8:	0293a3bd 	addi.w	$r29,$r29,1256(0x4e8)
1c01b1cc:	00107801 	add.w	$r1,$r0,$r30
1c01b1d0:	5c14615c 	bne	$r10,$r28,5216(0x1460) # 1c01c630 <inst_error>
1c01b1d4:	5c145d7d 	bne	$r11,$r29,5212(0x145c) # 1c01c630 <inst_error>
1c01b1d8:	0010041e 	add.w	$r30,$r0,$r1
1c01b1dc:	1492a910 	lu12i.w	$r16,300360(0x49548)
1c01b1e0:	02ac6210 	addi.w	$r16,$r16,-1256(0xb18)
1c01b1e4:	15aec5d1 	lu12i.w	$r17,-166354(0xd762e)
1c01b1e8:	02b04231 	addi.w	$r17,$r17,-1008(0xc10)
1c01b1ec:	1400000a 	lu12i.w	$r10,0
1c01b1f0:	1400000b 	lu12i.w	$r11,0
1c01b1f4:	54000400 	bl	4(0x4) # 1c01b1f8 <n19_jirl_test+0x710>
1c01b1f8:	0280302c 	addi.w	$r12,$r1,12(0xc)
1c01b1fc:	0280902d 	addi.w	$r13,$r1,36(0x24)
1c01b200:	50001400 	b	20(0x14) # 1c01b214 <n19_jirl_test+0x72c>
1c01b204:	1492a90a 	lu12i.w	$r10,300360(0x49548)
1c01b208:	02ac614a 	addi.w	$r10,$r10,-1256(0xb18)
1c01b20c:	4c0001a0 	jirl	$r0,$r13,0
1c01b210:	50001400 	b	20(0x14) # 1c01b224 <n19_jirl_test+0x73c>
1c01b214:	4c000180 	jirl	$r0,$r12,0
1c01b218:	50000c00 	b	12(0xc) # 1c01b224 <n19_jirl_test+0x73c>
1c01b21c:	15aec5cb 	lu12i.w	$r11,-166354(0xd762e)
1c01b220:	02b0416b 	addi.w	$r11,$r11,-1008(0xc10)
1c01b224:	1492a91c 	lu12i.w	$r28,300360(0x49548)
1c01b228:	02ac639c 	addi.w	$r28,$r28,-1256(0xb18)
1c01b22c:	15aec5dd 	lu12i.w	$r29,-166354(0xd762e)
1c01b230:	02b043bd 	addi.w	$r29,$r29,-1008(0xc10)
1c01b234:	00107801 	add.w	$r1,$r0,$r30
1c01b238:	5c13f95c 	bne	$r10,$r28,5112(0x13f8) # 1c01c630 <inst_error>
1c01b23c:	5c13f57d 	bne	$r11,$r29,5108(0x13f4) # 1c01c630 <inst_error>
1c01b240:	0010041e 	add.w	$r30,$r0,$r1
1c01b244:	14e1fd90 	lu12i.w	$r16,462828(0x70fec)
1c01b248:	0295ea10 	addi.w	$r16,$r16,1402(0x57a)
1c01b24c:	15209071 	lu12i.w	$r17,-457597(0x90483)
1c01b250:	02b2fa31 	addi.w	$r17,$r17,-834(0xcbe)
1c01b254:	1400000a 	lu12i.w	$r10,0
1c01b258:	1400000b 	lu12i.w	$r11,0
1c01b25c:	54000400 	bl	4(0x4) # 1c01b260 <n19_jirl_test+0x778>
1c01b260:	0280302c 	addi.w	$r12,$r1,12(0xc)
1c01b264:	0280902d 	addi.w	$r13,$r1,36(0x24)
1c01b268:	50001400 	b	20(0x14) # 1c01b27c <n19_jirl_test+0x794>
1c01b26c:	14e1fd8a 	lu12i.w	$r10,462828(0x70fec)
1c01b270:	0295e94a 	addi.w	$r10,$r10,1402(0x57a)
1c01b274:	4c0001a0 	jirl	$r0,$r13,0
1c01b278:	50001400 	b	20(0x14) # 1c01b28c <n19_jirl_test+0x7a4>
1c01b27c:	4c000180 	jirl	$r0,$r12,0
1c01b280:	50000c00 	b	12(0xc) # 1c01b28c <n19_jirl_test+0x7a4>
1c01b284:	1520906b 	lu12i.w	$r11,-457597(0x90483)
1c01b288:	02b2f96b 	addi.w	$r11,$r11,-834(0xcbe)
1c01b28c:	14e1fd9c 	lu12i.w	$r28,462828(0x70fec)
1c01b290:	0295eb9c 	addi.w	$r28,$r28,1402(0x57a)
1c01b294:	1520907d 	lu12i.w	$r29,-457597(0x90483)
1c01b298:	02b2fbbd 	addi.w	$r29,$r29,-834(0xcbe)
1c01b29c:	00107801 	add.w	$r1,$r0,$r30
1c01b2a0:	5c13915c 	bne	$r10,$r28,5008(0x1390) # 1c01c630 <inst_error>
1c01b2a4:	5c138d7d 	bne	$r11,$r29,5004(0x138c) # 1c01c630 <inst_error>
1c01b2a8:	0010041e 	add.w	$r30,$r0,$r1
1c01b2ac:	15cc3670 	lu12i.w	$r16,-106061(0xe61b3)
1c01b2b0:	02bc2210 	addi.w	$r16,$r16,-248(0xf08)
1c01b2b4:	15d41491 	lu12i.w	$r17,-89948(0xea0a4)
1c01b2b8:	02adfa31 	addi.w	$r17,$r17,-1154(0xb7e)
1c01b2bc:	1400000a 	lu12i.w	$r10,0
1c01b2c0:	1400000b 	lu12i.w	$r11,0
1c01b2c4:	54000400 	bl	4(0x4) # 1c01b2c8 <n19_jirl_test+0x7e0>
1c01b2c8:	0280302c 	addi.w	$r12,$r1,12(0xc)
1c01b2cc:	0280902d 	addi.w	$r13,$r1,36(0x24)
1c01b2d0:	50001400 	b	20(0x14) # 1c01b2e4 <n19_jirl_test+0x7fc>
1c01b2d4:	15cc366a 	lu12i.w	$r10,-106061(0xe61b3)
1c01b2d8:	02bc214a 	addi.w	$r10,$r10,-248(0xf08)
1c01b2dc:	4c0001a0 	jirl	$r0,$r13,0
1c01b2e0:	50001400 	b	20(0x14) # 1c01b2f4 <n19_jirl_test+0x80c>
1c01b2e4:	4c000180 	jirl	$r0,$r12,0
1c01b2e8:	50000c00 	b	12(0xc) # 1c01b2f4 <n19_jirl_test+0x80c>
1c01b2ec:	15d4148b 	lu12i.w	$r11,-89948(0xea0a4)
1c01b2f0:	02adf96b 	addi.w	$r11,$r11,-1154(0xb7e)
1c01b2f4:	15cc367c 	lu12i.w	$r28,-106061(0xe61b3)
1c01b2f8:	02bc239c 	addi.w	$r28,$r28,-248(0xf08)
1c01b2fc:	15d4149d 	lu12i.w	$r29,-89948(0xea0a4)
1c01b300:	02adfbbd 	addi.w	$r29,$r29,-1154(0xb7e)
1c01b304:	00107801 	add.w	$r1,$r0,$r30
1c01b308:	5c13295c 	bne	$r10,$r28,4904(0x1328) # 1c01c630 <inst_error>
1c01b30c:	5c13257d 	bne	$r11,$r29,4900(0x1324) # 1c01c630 <inst_error>
1c01b310:	0010041e 	add.w	$r30,$r0,$r1
1c01b314:	1466ca50 	lu12i.w	$r16,210514(0x33652)
1c01b318:	02bb7a10 	addi.w	$r16,$r16,-290(0xede)
1c01b31c:	144d9971 	lu12i.w	$r17,158923(0x26ccb)
1c01b320:	028d8e31 	addi.w	$r17,$r17,867(0x363)
1c01b324:	1400000a 	lu12i.w	$r10,0
1c01b328:	1400000b 	lu12i.w	$r11,0
1c01b32c:	54000400 	bl	4(0x4) # 1c01b330 <n19_jirl_test+0x848>
1c01b330:	0280302c 	addi.w	$r12,$r1,12(0xc)
1c01b334:	0280902d 	addi.w	$r13,$r1,36(0x24)
1c01b338:	50001400 	b	20(0x14) # 1c01b34c <n19_jirl_test+0x864>
1c01b33c:	1466ca4a 	lu12i.w	$r10,210514(0x33652)
1c01b340:	02bb794a 	addi.w	$r10,$r10,-290(0xede)
1c01b344:	4c0001a0 	jirl	$r0,$r13,0
1c01b348:	50001400 	b	20(0x14) # 1c01b35c <n19_jirl_test+0x874>
1c01b34c:	4c000180 	jirl	$r0,$r12,0
1c01b350:	50000c00 	b	12(0xc) # 1c01b35c <n19_jirl_test+0x874>
1c01b354:	144d996b 	lu12i.w	$r11,158923(0x26ccb)
1c01b358:	028d8d6b 	addi.w	$r11,$r11,867(0x363)
1c01b35c:	1466ca5c 	lu12i.w	$r28,210514(0x33652)
1c01b360:	02bb7b9c 	addi.w	$r28,$r28,-290(0xede)
1c01b364:	144d997d 	lu12i.w	$r29,158923(0x26ccb)
1c01b368:	028d8fbd 	addi.w	$r29,$r29,867(0x363)
1c01b36c:	00107801 	add.w	$r1,$r0,$r30
1c01b370:	5c12c15c 	bne	$r10,$r28,4800(0x12c0) # 1c01c630 <inst_error>
1c01b374:	5c12bd7d 	bne	$r11,$r29,4796(0x12bc) # 1c01c630 <inst_error>
1c01b378:	0010041e 	add.w	$r30,$r0,$r1
1c01b37c:	152bea10 	lu12i.w	$r16,-434352(0x95f50)
1c01b380:	02980210 	addi.w	$r16,$r16,1536(0x600)
1c01b384:	15237011 	lu12i.w	$r17,-451712(0x91b80)
1c01b388:	02b9c231 	addi.w	$r17,$r17,-400(0xe70)
1c01b38c:	1400000a 	lu12i.w	$r10,0
1c01b390:	1400000b 	lu12i.w	$r11,0
1c01b394:	54000400 	bl	4(0x4) # 1c01b398 <n19_jirl_test+0x8b0>
1c01b398:	0280302c 	addi.w	$r12,$r1,12(0xc)
1c01b39c:	0280902d 	addi.w	$r13,$r1,36(0x24)
1c01b3a0:	50001400 	b	20(0x14) # 1c01b3b4 <n19_jirl_test+0x8cc>
1c01b3a4:	152bea0a 	lu12i.w	$r10,-434352(0x95f50)
1c01b3a8:	0298014a 	addi.w	$r10,$r10,1536(0x600)
1c01b3ac:	4c0001a0 	jirl	$r0,$r13,0
1c01b3b0:	50001400 	b	20(0x14) # 1c01b3c4 <n19_jirl_test+0x8dc>
1c01b3b4:	4c000180 	jirl	$r0,$r12,0
1c01b3b8:	50000c00 	b	12(0xc) # 1c01b3c4 <n19_jirl_test+0x8dc>
1c01b3bc:	1523700b 	lu12i.w	$r11,-451712(0x91b80)
1c01b3c0:	02b9c16b 	addi.w	$r11,$r11,-400(0xe70)
1c01b3c4:	152bea1c 	lu12i.w	$r28,-434352(0x95f50)
1c01b3c8:	0298039c 	addi.w	$r28,$r28,1536(0x600)
1c01b3cc:	1523701d 	lu12i.w	$r29,-451712(0x91b80)
1c01b3d0:	02b9c3bd 	addi.w	$r29,$r29,-400(0xe70)
1c01b3d4:	00107801 	add.w	$r1,$r0,$r30
1c01b3d8:	5c12595c 	bne	$r10,$r28,4696(0x1258) # 1c01c630 <inst_error>
1c01b3dc:	5c12557d 	bne	$r11,$r29,4692(0x1254) # 1c01c630 <inst_error>
1c01b3e0:	0010041e 	add.w	$r30,$r0,$r1
1c01b3e4:	14db8950 	lu12i.w	$r16,449610(0x6dc4a)
1c01b3e8:	02aff210 	addi.w	$r16,$r16,-1028(0xbfc)
1c01b3ec:	15491dd1 	lu12i.w	$r17,-374546(0xa48ee)
1c01b3f0:	02940231 	addi.w	$r17,$r17,1280(0x500)
1c01b3f4:	1400000a 	lu12i.w	$r10,0
1c01b3f8:	1400000b 	lu12i.w	$r11,0
1c01b3fc:	54000400 	bl	4(0x4) # 1c01b400 <n19_jirl_test+0x918>
1c01b400:	0280302c 	addi.w	$r12,$r1,12(0xc)
1c01b404:	0280902d 	addi.w	$r13,$r1,36(0x24)
1c01b408:	50001400 	b	20(0x14) # 1c01b41c <n19_jirl_test+0x934>
1c01b40c:	14db894a 	lu12i.w	$r10,449610(0x6dc4a)
1c01b410:	02aff14a 	addi.w	$r10,$r10,-1028(0xbfc)
1c01b414:	4c0001a0 	jirl	$r0,$r13,0
1c01b418:	50001400 	b	20(0x14) # 1c01b42c <n19_jirl_test+0x944>
1c01b41c:	4c000180 	jirl	$r0,$r12,0
1c01b420:	50000c00 	b	12(0xc) # 1c01b42c <n19_jirl_test+0x944>
1c01b424:	15491dcb 	lu12i.w	$r11,-374546(0xa48ee)
1c01b428:	0294016b 	addi.w	$r11,$r11,1280(0x500)
1c01b42c:	14db895c 	lu12i.w	$r28,449610(0x6dc4a)
1c01b430:	02aff39c 	addi.w	$r28,$r28,-1028(0xbfc)
1c01b434:	15491ddd 	lu12i.w	$r29,-374546(0xa48ee)
1c01b438:	029403bd 	addi.w	$r29,$r29,1280(0x500)
1c01b43c:	00107801 	add.w	$r1,$r0,$r30
1c01b440:	5c11f15c 	bne	$r10,$r28,4592(0x11f0) # 1c01c630 <inst_error>
1c01b444:	5c11ed7d 	bne	$r11,$r29,4588(0x11ec) # 1c01c630 <inst_error>
1c01b448:	0010041e 	add.w	$r30,$r0,$r1
1c01b44c:	14477d30 	lu12i.w	$r16,146409(0x23be9)
1c01b450:	02a00210 	addi.w	$r16,$r16,-2048(0x800)
1c01b454:	147662f1 	lu12i.w	$r17,242455(0x3b317)
1c01b458:	02a59631 	addi.w	$r17,$r17,-1691(0x965)
1c01b45c:	1400000a 	lu12i.w	$r10,0
1c01b460:	1400000b 	lu12i.w	$r11,0
1c01b464:	54000400 	bl	4(0x4) # 1c01b468 <n19_jirl_test+0x980>
1c01b468:	0280302c 	addi.w	$r12,$r1,12(0xc)
1c01b46c:	0280902d 	addi.w	$r13,$r1,36(0x24)
1c01b470:	50001400 	b	20(0x14) # 1c01b484 <n19_jirl_test+0x99c>
1c01b474:	14477d2a 	lu12i.w	$r10,146409(0x23be9)
1c01b478:	02a0014a 	addi.w	$r10,$r10,-2048(0x800)
1c01b47c:	4c0001a0 	jirl	$r0,$r13,0
1c01b480:	50001400 	b	20(0x14) # 1c01b494 <n19_jirl_test+0x9ac>
1c01b484:	4c000180 	jirl	$r0,$r12,0
1c01b488:	50000c00 	b	12(0xc) # 1c01b494 <n19_jirl_test+0x9ac>
1c01b48c:	147662eb 	lu12i.w	$r11,242455(0x3b317)
1c01b490:	02a5956b 	addi.w	$r11,$r11,-1691(0x965)
1c01b494:	14477d3c 	lu12i.w	$r28,146409(0x23be9)
1c01b498:	02a0039c 	addi.w	$r28,$r28,-2048(0x800)
1c01b49c:	147662fd 	lu12i.w	$r29,242455(0x3b317)
1c01b4a0:	02a597bd 	addi.w	$r29,$r29,-1691(0x965)
1c01b4a4:	00107801 	add.w	$r1,$r0,$r30
1c01b4a8:	5c11895c 	bne	$r10,$r28,4488(0x1188) # 1c01c630 <inst_error>
1c01b4ac:	5c11857d 	bne	$r11,$r29,4484(0x1184) # 1c01c630 <inst_error>
1c01b4b0:	0010041e 	add.w	$r30,$r0,$r1
1c01b4b4:	15580750 	lu12i.w	$r16,-344006(0xac03a)
1c01b4b8:	02a7a210 	addi.w	$r16,$r16,-1560(0x9e8)
1c01b4bc:	1550a871 	lu12i.w	$r17,-359101(0xa8543)
1c01b4c0:	02824a31 	addi.w	$r17,$r17,146(0x92)
1c01b4c4:	1400000a 	lu12i.w	$r10,0
1c01b4c8:	1400000b 	lu12i.w	$r11,0
1c01b4cc:	54000400 	bl	4(0x4) # 1c01b4d0 <n19_jirl_test+0x9e8>
1c01b4d0:	0280302c 	addi.w	$r12,$r1,12(0xc)
1c01b4d4:	0280902d 	addi.w	$r13,$r1,36(0x24)
1c01b4d8:	50001400 	b	20(0x14) # 1c01b4ec <n19_jirl_test+0xa04>
1c01b4dc:	1558074a 	lu12i.w	$r10,-344006(0xac03a)
1c01b4e0:	02a7a14a 	addi.w	$r10,$r10,-1560(0x9e8)
1c01b4e4:	4c0001a0 	jirl	$r0,$r13,0
1c01b4e8:	50001400 	b	20(0x14) # 1c01b4fc <n19_jirl_test+0xa14>
1c01b4ec:	4c000180 	jirl	$r0,$r12,0
1c01b4f0:	50000c00 	b	12(0xc) # 1c01b4fc <n19_jirl_test+0xa14>
1c01b4f4:	1550a86b 	lu12i.w	$r11,-359101(0xa8543)
1c01b4f8:	0282496b 	addi.w	$r11,$r11,146(0x92)
1c01b4fc:	1558075c 	lu12i.w	$r28,-344006(0xac03a)
1c01b500:	02a7a39c 	addi.w	$r28,$r28,-1560(0x9e8)
1c01b504:	1550a87d 	lu12i.w	$r29,-359101(0xa8543)
1c01b508:	02824bbd 	addi.w	$r29,$r29,146(0x92)
1c01b50c:	00107801 	add.w	$r1,$r0,$r30
1c01b510:	5c11215c 	bne	$r10,$r28,4384(0x1120) # 1c01c630 <inst_error>
1c01b514:	5c111d7d 	bne	$r11,$r29,4380(0x111c) # 1c01c630 <inst_error>
1c01b518:	0010041e 	add.w	$r30,$r0,$r1
1c01b51c:	1578f6b0 	lu12i.w	$r16,-276555(0xbc7b5)
1c01b520:	02aa0210 	addi.w	$r16,$r16,-1408(0xa80)
1c01b524:	1549acf1 	lu12i.w	$r17,-373401(0xa4d67)
1c01b528:	02840231 	addi.w	$r17,$r17,256(0x100)
1c01b52c:	1400000a 	lu12i.w	$r10,0
1c01b530:	1400000b 	lu12i.w	$r11,0
1c01b534:	54000400 	bl	4(0x4) # 1c01b538 <n19_jirl_test+0xa50>
1c01b538:	0280302c 	addi.w	$r12,$r1,12(0xc)
1c01b53c:	0280902d 	addi.w	$r13,$r1,36(0x24)
1c01b540:	50001400 	b	20(0x14) # 1c01b554 <n19_jirl_test+0xa6c>
1c01b544:	1578f6aa 	lu12i.w	$r10,-276555(0xbc7b5)
1c01b548:	02aa014a 	addi.w	$r10,$r10,-1408(0xa80)
1c01b54c:	4c0001a0 	jirl	$r0,$r13,0
1c01b550:	50001400 	b	20(0x14) # 1c01b564 <n19_jirl_test+0xa7c>
1c01b554:	4c000180 	jirl	$r0,$r12,0
1c01b558:	50000c00 	b	12(0xc) # 1c01b564 <n19_jirl_test+0xa7c>
1c01b55c:	1549aceb 	lu12i.w	$r11,-373401(0xa4d67)
1c01b560:	0284016b 	addi.w	$r11,$r11,256(0x100)
1c01b564:	1578f6bc 	lu12i.w	$r28,-276555(0xbc7b5)
1c01b568:	02aa039c 	addi.w	$r28,$r28,-1408(0xa80)
1c01b56c:	1549acfd 	lu12i.w	$r29,-373401(0xa4d67)
1c01b570:	028403bd 	addi.w	$r29,$r29,256(0x100)
1c01b574:	00107801 	add.w	$r1,$r0,$r30
1c01b578:	5c10b95c 	bne	$r10,$r28,4280(0x10b8) # 1c01c630 <inst_error>
1c01b57c:	5c10b57d 	bne	$r11,$r29,4276(0x10b4) # 1c01c630 <inst_error>
1c01b580:	0010041e 	add.w	$r30,$r0,$r1
1c01b584:	14f03710 	lu12i.w	$r16,491960(0x781b8)
1c01b588:	02864210 	addi.w	$r16,$r16,400(0x190)
1c01b58c:	14b69b31 	lu12i.w	$r17,373977(0x5b4d9)
1c01b590:	02a8c631 	addi.w	$r17,$r17,-1487(0xa31)
1c01b594:	1400000a 	lu12i.w	$r10,0
1c01b598:	1400000b 	lu12i.w	$r11,0
1c01b59c:	54000400 	bl	4(0x4) # 1c01b5a0 <n19_jirl_test+0xab8>
1c01b5a0:	0280302c 	addi.w	$r12,$r1,12(0xc)
1c01b5a4:	0280902d 	addi.w	$r13,$r1,36(0x24)
1c01b5a8:	50001400 	b	20(0x14) # 1c01b5bc <n19_jirl_test+0xad4>
1c01b5ac:	14f0370a 	lu12i.w	$r10,491960(0x781b8)
1c01b5b0:	0286414a 	addi.w	$r10,$r10,400(0x190)
1c01b5b4:	4c0001a0 	jirl	$r0,$r13,0
1c01b5b8:	50001400 	b	20(0x14) # 1c01b5cc <n19_jirl_test+0xae4>
1c01b5bc:	4c000180 	jirl	$r0,$r12,0
1c01b5c0:	50000c00 	b	12(0xc) # 1c01b5cc <n19_jirl_test+0xae4>
1c01b5c4:	14b69b2b 	lu12i.w	$r11,373977(0x5b4d9)
1c01b5c8:	02a8c56b 	addi.w	$r11,$r11,-1487(0xa31)
1c01b5cc:	14f0371c 	lu12i.w	$r28,491960(0x781b8)
1c01b5d0:	0286439c 	addi.w	$r28,$r28,400(0x190)
1c01b5d4:	14b69b3d 	lu12i.w	$r29,373977(0x5b4d9)
1c01b5d8:	02a8c7bd 	addi.w	$r29,$r29,-1487(0xa31)
1c01b5dc:	00107801 	add.w	$r1,$r0,$r30
1c01b5e0:	5c10515c 	bne	$r10,$r28,4176(0x1050) # 1c01c630 <inst_error>
1c01b5e4:	5c104d7d 	bne	$r11,$r29,4172(0x104c) # 1c01c630 <inst_error>
1c01b5e8:	0010041e 	add.w	$r30,$r0,$r1
1c01b5ec:	15c1cc90 	lu12i.w	$r16,-127388(0xe0e64)
1c01b5f0:	02ad0210 	addi.w	$r16,$r16,-1216(0xb40)
1c01b5f4:	14985e71 	lu12i.w	$r17,312051(0x4c2f3)
1c01b5f8:	0294b231 	addi.w	$r17,$r17,1324(0x52c)
1c01b5fc:	1400000a 	lu12i.w	$r10,0
1c01b600:	1400000b 	lu12i.w	$r11,0
1c01b604:	54000400 	bl	4(0x4) # 1c01b608 <n19_jirl_test+0xb20>
1c01b608:	0280302c 	addi.w	$r12,$r1,12(0xc)
1c01b60c:	0280902d 	addi.w	$r13,$r1,36(0x24)
1c01b610:	50001400 	b	20(0x14) # 1c01b624 <n19_jirl_test+0xb3c>
1c01b614:	15c1cc8a 	lu12i.w	$r10,-127388(0xe0e64)
1c01b618:	02ad014a 	addi.w	$r10,$r10,-1216(0xb40)
1c01b61c:	4c0001a0 	jirl	$r0,$r13,0
1c01b620:	50001400 	b	20(0x14) # 1c01b634 <n19_jirl_test+0xb4c>
1c01b624:	4c000180 	jirl	$r0,$r12,0
1c01b628:	50000c00 	b	12(0xc) # 1c01b634 <n19_jirl_test+0xb4c>
1c01b62c:	14985e6b 	lu12i.w	$r11,312051(0x4c2f3)
1c01b630:	0294b16b 	addi.w	$r11,$r11,1324(0x52c)
1c01b634:	15c1cc9c 	lu12i.w	$r28,-127388(0xe0e64)
1c01b638:	02ad039c 	addi.w	$r28,$r28,-1216(0xb40)
1c01b63c:	14985e7d 	lu12i.w	$r29,312051(0x4c2f3)
1c01b640:	0294b3bd 	addi.w	$r29,$r29,1324(0x52c)
1c01b644:	00107801 	add.w	$r1,$r0,$r30
1c01b648:	5c0fe95c 	bne	$r10,$r28,4072(0xfe8) # 1c01c630 <inst_error>
1c01b64c:	5c0fe57d 	bne	$r11,$r29,4068(0xfe4) # 1c01c630 <inst_error>
1c01b650:	0010041e 	add.w	$r30,$r0,$r1
1c01b654:	15e25af0 	lu12i.w	$r16,-60713(0xf12d7)
1c01b658:	02a31210 	addi.w	$r16,$r16,-1852(0x8c4)
1c01b65c:	14839811 	lu12i.w	$r17,269504(0x41cc0)
1c01b660:	02a32231 	addi.w	$r17,$r17,-1848(0x8c8)
1c01b664:	1400000a 	lu12i.w	$r10,0
1c01b668:	1400000b 	lu12i.w	$r11,0
1c01b66c:	54000400 	bl	4(0x4) # 1c01b670 <n19_jirl_test+0xb88>
1c01b670:	0280302c 	addi.w	$r12,$r1,12(0xc)
1c01b674:	0280902d 	addi.w	$r13,$r1,36(0x24)
1c01b678:	50001400 	b	20(0x14) # 1c01b68c <n19_jirl_test+0xba4>
1c01b67c:	15e25aea 	lu12i.w	$r10,-60713(0xf12d7)
1c01b680:	02a3114a 	addi.w	$r10,$r10,-1852(0x8c4)
1c01b684:	4c0001a0 	jirl	$r0,$r13,0
1c01b688:	50001400 	b	20(0x14) # 1c01b69c <n19_jirl_test+0xbb4>
1c01b68c:	4c000180 	jirl	$r0,$r12,0
1c01b690:	50000c00 	b	12(0xc) # 1c01b69c <n19_jirl_test+0xbb4>
1c01b694:	1483980b 	lu12i.w	$r11,269504(0x41cc0)
1c01b698:	02a3216b 	addi.w	$r11,$r11,-1848(0x8c8)
1c01b69c:	15e25afc 	lu12i.w	$r28,-60713(0xf12d7)
1c01b6a0:	02a3139c 	addi.w	$r28,$r28,-1852(0x8c4)
1c01b6a4:	1483981d 	lu12i.w	$r29,269504(0x41cc0)
1c01b6a8:	02a323bd 	addi.w	$r29,$r29,-1848(0x8c8)
1c01b6ac:	00107801 	add.w	$r1,$r0,$r30
1c01b6b0:	5c0f815c 	bne	$r10,$r28,3968(0xf80) # 1c01c630 <inst_error>
1c01b6b4:	5c0f7d7d 	bne	$r11,$r29,3964(0xf7c) # 1c01c630 <inst_error>
1c01b6b8:	0010041e 	add.w	$r30,$r0,$r1
1c01b6bc:	143da3b0 	lu12i.w	$r16,126237(0x1ed1d)
1c01b6c0:	0284a210 	addi.w	$r16,$r16,296(0x128)
1c01b6c4:	14a01a91 	lu12i.w	$r17,327892(0x500d4)
1c01b6c8:	0283e231 	addi.w	$r17,$r17,248(0xf8)
1c01b6cc:	1400000a 	lu12i.w	$r10,0
1c01b6d0:	1400000b 	lu12i.w	$r11,0
1c01b6d4:	54000400 	bl	4(0x4) # 1c01b6d8 <n19_jirl_test+0xbf0>
1c01b6d8:	0280302c 	addi.w	$r12,$r1,12(0xc)
1c01b6dc:	0280902d 	addi.w	$r13,$r1,36(0x24)
1c01b6e0:	50001400 	b	20(0x14) # 1c01b6f4 <n19_jirl_test+0xc0c>
1c01b6e4:	143da3aa 	lu12i.w	$r10,126237(0x1ed1d)
1c01b6e8:	0284a14a 	addi.w	$r10,$r10,296(0x128)
1c01b6ec:	4c0001a0 	jirl	$r0,$r13,0
1c01b6f0:	50001400 	b	20(0x14) # 1c01b704 <n19_jirl_test+0xc1c>
1c01b6f4:	4c000180 	jirl	$r0,$r12,0
1c01b6f8:	50000c00 	b	12(0xc) # 1c01b704 <n19_jirl_test+0xc1c>
1c01b6fc:	14a01a8b 	lu12i.w	$r11,327892(0x500d4)
1c01b700:	0283e16b 	addi.w	$r11,$r11,248(0xf8)
1c01b704:	143da3bc 	lu12i.w	$r28,126237(0x1ed1d)
1c01b708:	0284a39c 	addi.w	$r28,$r28,296(0x128)
1c01b70c:	14a01a9d 	lu12i.w	$r29,327892(0x500d4)
1c01b710:	0283e3bd 	addi.w	$r29,$r29,248(0xf8)
1c01b714:	00107801 	add.w	$r1,$r0,$r30
1c01b718:	5c0f195c 	bne	$r10,$r28,3864(0xf18) # 1c01c630 <inst_error>
1c01b71c:	5c0f157d 	bne	$r11,$r29,3860(0xf14) # 1c01c630 <inst_error>
1c01b720:	0010041e 	add.w	$r30,$r0,$r1
1c01b724:	155d3bb0 	lu12i.w	$r16,-333347(0xae9dd)
1c01b728:	0280e210 	addi.w	$r16,$r16,56(0x38)
1c01b72c:	14d11731 	lu12i.w	$r17,428217(0x688b9)
1c01b730:	02af8a31 	addi.w	$r17,$r17,-1054(0xbe2)
1c01b734:	1400000a 	lu12i.w	$r10,0
1c01b738:	1400000b 	lu12i.w	$r11,0
1c01b73c:	54000400 	bl	4(0x4) # 1c01b740 <n19_jirl_test+0xc58>
1c01b740:	0280302c 	addi.w	$r12,$r1,12(0xc)
1c01b744:	0280902d 	addi.w	$r13,$r1,36(0x24)
1c01b748:	50001400 	b	20(0x14) # 1c01b75c <n19_jirl_test+0xc74>
1c01b74c:	155d3baa 	lu12i.w	$r10,-333347(0xae9dd)
1c01b750:	0280e14a 	addi.w	$r10,$r10,56(0x38)
1c01b754:	4c0001a0 	jirl	$r0,$r13,0
1c01b758:	50001400 	b	20(0x14) # 1c01b76c <n19_jirl_test+0xc84>
1c01b75c:	4c000180 	jirl	$r0,$r12,0
1c01b760:	50000c00 	b	12(0xc) # 1c01b76c <n19_jirl_test+0xc84>
1c01b764:	14d1172b 	lu12i.w	$r11,428217(0x688b9)
1c01b768:	02af896b 	addi.w	$r11,$r11,-1054(0xbe2)
1c01b76c:	155d3bbc 	lu12i.w	$r28,-333347(0xae9dd)
1c01b770:	0280e39c 	addi.w	$r28,$r28,56(0x38)
1c01b774:	14d1173d 	lu12i.w	$r29,428217(0x688b9)
1c01b778:	02af8bbd 	addi.w	$r29,$r29,-1054(0xbe2)
1c01b77c:	00107801 	add.w	$r1,$r0,$r30
1c01b780:	5c0eb15c 	bne	$r10,$r28,3760(0xeb0) # 1c01c630 <inst_error>
1c01b784:	5c0ead7d 	bne	$r11,$r29,3756(0xeac) # 1c01c630 <inst_error>
1c01b788:	0010041e 	add.w	$r30,$r0,$r1
1c01b78c:	15be77b0 	lu12i.w	$r16,-134211(0xdf3bd)
1c01b790:	02acf610 	addi.w	$r16,$r16,-1219(0xb3d)
1c01b794:	158e2ed1 	lu12i.w	$r17,-233098(0xc7176)
1c01b798:	02b9a231 	addi.w	$r17,$r17,-408(0xe68)
1c01b79c:	1400000a 	lu12i.w	$r10,0
1c01b7a0:	1400000b 	lu12i.w	$r11,0
1c01b7a4:	54000400 	bl	4(0x4) # 1c01b7a8 <n19_jirl_test+0xcc0>
1c01b7a8:	0280302c 	addi.w	$r12,$r1,12(0xc)
1c01b7ac:	0280902d 	addi.w	$r13,$r1,36(0x24)
1c01b7b0:	50001400 	b	20(0x14) # 1c01b7c4 <n19_jirl_test+0xcdc>
1c01b7b4:	15be77aa 	lu12i.w	$r10,-134211(0xdf3bd)
1c01b7b8:	02acf54a 	addi.w	$r10,$r10,-1219(0xb3d)
1c01b7bc:	4c0001a0 	jirl	$r0,$r13,0
1c01b7c0:	50001400 	b	20(0x14) # 1c01b7d4 <n19_jirl_test+0xcec>
1c01b7c4:	4c000180 	jirl	$r0,$r12,0
1c01b7c8:	50000c00 	b	12(0xc) # 1c01b7d4 <n19_jirl_test+0xcec>
1c01b7cc:	158e2ecb 	lu12i.w	$r11,-233098(0xc7176)
1c01b7d0:	02b9a16b 	addi.w	$r11,$r11,-408(0xe68)
1c01b7d4:	15be77bc 	lu12i.w	$r28,-134211(0xdf3bd)
1c01b7d8:	02acf79c 	addi.w	$r28,$r28,-1219(0xb3d)
1c01b7dc:	158e2edd 	lu12i.w	$r29,-233098(0xc7176)
1c01b7e0:	02b9a3bd 	addi.w	$r29,$r29,-408(0xe68)
1c01b7e4:	00107801 	add.w	$r1,$r0,$r30
1c01b7e8:	5c0e495c 	bne	$r10,$r28,3656(0xe48) # 1c01c630 <inst_error>
1c01b7ec:	5c0e457d 	bne	$r11,$r29,3652(0xe44) # 1c01c630 <inst_error>
1c01b7f0:	0010041e 	add.w	$r30,$r0,$r1
1c01b7f4:	14b02770 	lu12i.w	$r16,360763(0x5813b)
1c01b7f8:	029dfa10 	addi.w	$r16,$r16,1918(0x77e)
1c01b7fc:	15854591 	lu12i.w	$r17,-251348(0xc2a2c)
1c01b800:	028f9a31 	addi.w	$r17,$r17,998(0x3e6)
1c01b804:	1400000a 	lu12i.w	$r10,0
1c01b808:	1400000b 	lu12i.w	$r11,0
1c01b80c:	54000400 	bl	4(0x4) # 1c01b810 <n19_jirl_test+0xd28>
1c01b810:	0280302c 	addi.w	$r12,$r1,12(0xc)
1c01b814:	0280902d 	addi.w	$r13,$r1,36(0x24)
1c01b818:	50001400 	b	20(0x14) # 1c01b82c <n19_jirl_test+0xd44>
1c01b81c:	14b0276a 	lu12i.w	$r10,360763(0x5813b)
1c01b820:	029df94a 	addi.w	$r10,$r10,1918(0x77e)
1c01b824:	4c0001a0 	jirl	$r0,$r13,0
1c01b828:	50001400 	b	20(0x14) # 1c01b83c <n19_jirl_test+0xd54>
1c01b82c:	4c000180 	jirl	$r0,$r12,0
1c01b830:	50000c00 	b	12(0xc) # 1c01b83c <n19_jirl_test+0xd54>
1c01b834:	1585458b 	lu12i.w	$r11,-251348(0xc2a2c)
1c01b838:	028f996b 	addi.w	$r11,$r11,998(0x3e6)
1c01b83c:	14b0277c 	lu12i.w	$r28,360763(0x5813b)
1c01b840:	029dfb9c 	addi.w	$r28,$r28,1918(0x77e)
1c01b844:	1585459d 	lu12i.w	$r29,-251348(0xc2a2c)
1c01b848:	028f9bbd 	addi.w	$r29,$r29,998(0x3e6)
1c01b84c:	00107801 	add.w	$r1,$r0,$r30
1c01b850:	5c0de15c 	bne	$r10,$r28,3552(0xde0) # 1c01c630 <inst_error>
1c01b854:	5c0ddd7d 	bne	$r11,$r29,3548(0xddc) # 1c01c630 <inst_error>
1c01b858:	0010041e 	add.w	$r30,$r0,$r1
1c01b85c:	143d9410 	lu12i.w	$r16,126112(0x1eca0)
1c01b860:	02a24210 	addi.w	$r16,$r16,-1904(0x890)
1c01b864:	142ded11 	lu12i.w	$r17,94056(0x16f68)
1c01b868:	02a20231 	addi.w	$r17,$r17,-1920(0x880)
1c01b86c:	1400000a 	lu12i.w	$r10,0
1c01b870:	1400000b 	lu12i.w	$r11,0
1c01b874:	54000400 	bl	4(0x4) # 1c01b878 <n19_jirl_test+0xd90>
1c01b878:	0280302c 	addi.w	$r12,$r1,12(0xc)
1c01b87c:	0280902d 	addi.w	$r13,$r1,36(0x24)
1c01b880:	50001400 	b	20(0x14) # 1c01b894 <n19_jirl_test+0xdac>
1c01b884:	143d940a 	lu12i.w	$r10,126112(0x1eca0)
1c01b888:	02a2414a 	addi.w	$r10,$r10,-1904(0x890)
1c01b88c:	4c0001a0 	jirl	$r0,$r13,0
1c01b890:	50001400 	b	20(0x14) # 1c01b8a4 <n19_jirl_test+0xdbc>
1c01b894:	4c000180 	jirl	$r0,$r12,0
1c01b898:	50000c00 	b	12(0xc) # 1c01b8a4 <n19_jirl_test+0xdbc>
1c01b89c:	142ded0b 	lu12i.w	$r11,94056(0x16f68)
1c01b8a0:	02a2016b 	addi.w	$r11,$r11,-1920(0x880)
1c01b8a4:	143d941c 	lu12i.w	$r28,126112(0x1eca0)
1c01b8a8:	02a2439c 	addi.w	$r28,$r28,-1904(0x890)
1c01b8ac:	142ded1d 	lu12i.w	$r29,94056(0x16f68)
1c01b8b0:	02a203bd 	addi.w	$r29,$r29,-1920(0x880)
1c01b8b4:	00107801 	add.w	$r1,$r0,$r30
1c01b8b8:	5c0d795c 	bne	$r10,$r28,3448(0xd78) # 1c01c630 <inst_error>
1c01b8bc:	5c0d757d 	bne	$r11,$r29,3444(0xd74) # 1c01c630 <inst_error>
1c01b8c0:	0010041e 	add.w	$r30,$r0,$r1
1c01b8c4:	15fdbdf0 	lu12i.w	$r16,-4625(0xfedef)
1c01b8c8:	0286a210 	addi.w	$r16,$r16,424(0x1a8)
1c01b8cc:	15f58431 	lu12i.w	$r17,-21471(0xfac21)
1c01b8d0:	02aa6231 	addi.w	$r17,$r17,-1384(0xa98)
1c01b8d4:	1400000a 	lu12i.w	$r10,0
1c01b8d8:	1400000b 	lu12i.w	$r11,0
1c01b8dc:	54000400 	bl	4(0x4) # 1c01b8e0 <n19_jirl_test+0xdf8>
1c01b8e0:	0280302c 	addi.w	$r12,$r1,12(0xc)
1c01b8e4:	0280902d 	addi.w	$r13,$r1,36(0x24)
1c01b8e8:	50001400 	b	20(0x14) # 1c01b8fc <n19_jirl_test+0xe14>
1c01b8ec:	15fdbdea 	lu12i.w	$r10,-4625(0xfedef)
1c01b8f0:	0286a14a 	addi.w	$r10,$r10,424(0x1a8)
1c01b8f4:	4c0001a0 	jirl	$r0,$r13,0
1c01b8f8:	50001400 	b	20(0x14) # 1c01b90c <n19_jirl_test+0xe24>
1c01b8fc:	4c000180 	jirl	$r0,$r12,0
1c01b900:	50000c00 	b	12(0xc) # 1c01b90c <n19_jirl_test+0xe24>
1c01b904:	15f5842b 	lu12i.w	$r11,-21471(0xfac21)
1c01b908:	02aa616b 	addi.w	$r11,$r11,-1384(0xa98)
1c01b90c:	15fdbdfc 	lu12i.w	$r28,-4625(0xfedef)
1c01b910:	0286a39c 	addi.w	$r28,$r28,424(0x1a8)
1c01b914:	15f5843d 	lu12i.w	$r29,-21471(0xfac21)
1c01b918:	02aa63bd 	addi.w	$r29,$r29,-1384(0xa98)
1c01b91c:	00107801 	add.w	$r1,$r0,$r30
1c01b920:	5c0d115c 	bne	$r10,$r28,3344(0xd10) # 1c01c630 <inst_error>
1c01b924:	5c0d0d7d 	bne	$r11,$r29,3340(0xd0c) # 1c01c630 <inst_error>
1c01b928:	0010041e 	add.w	$r30,$r0,$r1
1c01b92c:	14e7b210 	lu12i.w	$r16,474512(0x73d90)
1c01b930:	02be7e10 	addi.w	$r16,$r16,-97(0xf9f)
1c01b934:	1536a931 	lu12i.w	$r17,-412343(0x9b549)
1c01b938:	02b63a31 	addi.w	$r17,$r17,-626(0xd8e)
1c01b93c:	1400000a 	lu12i.w	$r10,0
1c01b940:	1400000b 	lu12i.w	$r11,0
1c01b944:	54000400 	bl	4(0x4) # 1c01b948 <n19_jirl_test+0xe60>
1c01b948:	0280302c 	addi.w	$r12,$r1,12(0xc)
1c01b94c:	0280902d 	addi.w	$r13,$r1,36(0x24)
1c01b950:	50001400 	b	20(0x14) # 1c01b964 <n19_jirl_test+0xe7c>
1c01b954:	14e7b20a 	lu12i.w	$r10,474512(0x73d90)
1c01b958:	02be7d4a 	addi.w	$r10,$r10,-97(0xf9f)
1c01b95c:	4c0001a0 	jirl	$r0,$r13,0
1c01b960:	50001400 	b	20(0x14) # 1c01b974 <n19_jirl_test+0xe8c>
1c01b964:	4c000180 	jirl	$r0,$r12,0
1c01b968:	50000c00 	b	12(0xc) # 1c01b974 <n19_jirl_test+0xe8c>
1c01b96c:	1536a92b 	lu12i.w	$r11,-412343(0x9b549)
1c01b970:	02b6396b 	addi.w	$r11,$r11,-626(0xd8e)
1c01b974:	14e7b21c 	lu12i.w	$r28,474512(0x73d90)
1c01b978:	02be7f9c 	addi.w	$r28,$r28,-97(0xf9f)
1c01b97c:	1536a93d 	lu12i.w	$r29,-412343(0x9b549)
1c01b980:	02b63bbd 	addi.w	$r29,$r29,-626(0xd8e)
1c01b984:	00107801 	add.w	$r1,$r0,$r30
1c01b988:	5c0ca95c 	bne	$r10,$r28,3240(0xca8) # 1c01c630 <inst_error>
1c01b98c:	5c0ca57d 	bne	$r11,$r29,3236(0xca4) # 1c01c630 <inst_error>
1c01b990:	0010041e 	add.w	$r30,$r0,$r1
1c01b994:	15df9f30 	lu12i.w	$r16,-66311(0xefcf9)
1c01b998:	029f0210 	addi.w	$r16,$r16,1984(0x7c0)
1c01b99c:	15b48711 	lu12i.w	$r17,-154568(0xda438)
1c01b9a0:	02872a31 	addi.w	$r17,$r17,458(0x1ca)
1c01b9a4:	1400000a 	lu12i.w	$r10,0
1c01b9a8:	1400000b 	lu12i.w	$r11,0
1c01b9ac:	54000400 	bl	4(0x4) # 1c01b9b0 <n19_jirl_test+0xec8>
1c01b9b0:	0280302c 	addi.w	$r12,$r1,12(0xc)
1c01b9b4:	0280902d 	addi.w	$r13,$r1,36(0x24)
1c01b9b8:	50001400 	b	20(0x14) # 1c01b9cc <n19_jirl_test+0xee4>
1c01b9bc:	15df9f2a 	lu12i.w	$r10,-66311(0xefcf9)
1c01b9c0:	029f014a 	addi.w	$r10,$r10,1984(0x7c0)
1c01b9c4:	4c0001a0 	jirl	$r0,$r13,0
1c01b9c8:	50001400 	b	20(0x14) # 1c01b9dc <n19_jirl_test+0xef4>
1c01b9cc:	4c000180 	jirl	$r0,$r12,0
1c01b9d0:	50000c00 	b	12(0xc) # 1c01b9dc <n19_jirl_test+0xef4>
1c01b9d4:	15b4870b 	lu12i.w	$r11,-154568(0xda438)
1c01b9d8:	0287296b 	addi.w	$r11,$r11,458(0x1ca)
1c01b9dc:	15df9f3c 	lu12i.w	$r28,-66311(0xefcf9)
1c01b9e0:	029f039c 	addi.w	$r28,$r28,1984(0x7c0)
1c01b9e4:	15b4871d 	lu12i.w	$r29,-154568(0xda438)
1c01b9e8:	02872bbd 	addi.w	$r29,$r29,458(0x1ca)
1c01b9ec:	00107801 	add.w	$r1,$r0,$r30
1c01b9f0:	5c0c415c 	bne	$r10,$r28,3136(0xc40) # 1c01c630 <inst_error>
1c01b9f4:	5c0c3d7d 	bne	$r11,$r29,3132(0xc3c) # 1c01c630 <inst_error>
1c01b9f8:	0010041e 	add.w	$r30,$r0,$r1
1c01b9fc:	15f714d0 	lu12i.w	$r16,-18266(0xfb8a6)
1c01ba00:	02a3c210 	addi.w	$r16,$r16,-1808(0x8f0)
1c01ba04:	15266431 	lu12i.w	$r17,-445663(0x93321)
1c01ba08:	02b60231 	addi.w	$r17,$r17,-640(0xd80)
1c01ba0c:	1400000a 	lu12i.w	$r10,0
1c01ba10:	1400000b 	lu12i.w	$r11,0
1c01ba14:	54000400 	bl	4(0x4) # 1c01ba18 <n19_jirl_test+0xf30>
1c01ba18:	0280302c 	addi.w	$r12,$r1,12(0xc)
1c01ba1c:	0280902d 	addi.w	$r13,$r1,36(0x24)
1c01ba20:	50001400 	b	20(0x14) # 1c01ba34 <n19_jirl_test+0xf4c>
1c01ba24:	15f714ca 	lu12i.w	$r10,-18266(0xfb8a6)
1c01ba28:	02a3c14a 	addi.w	$r10,$r10,-1808(0x8f0)
1c01ba2c:	4c0001a0 	jirl	$r0,$r13,0
1c01ba30:	50001400 	b	20(0x14) # 1c01ba44 <n19_jirl_test+0xf5c>
1c01ba34:	4c000180 	jirl	$r0,$r12,0
1c01ba38:	50000c00 	b	12(0xc) # 1c01ba44 <n19_jirl_test+0xf5c>
1c01ba3c:	1526642b 	lu12i.w	$r11,-445663(0x93321)
1c01ba40:	02b6016b 	addi.w	$r11,$r11,-640(0xd80)
1c01ba44:	15f714dc 	lu12i.w	$r28,-18266(0xfb8a6)
1c01ba48:	02a3c39c 	addi.w	$r28,$r28,-1808(0x8f0)
1c01ba4c:	1526643d 	lu12i.w	$r29,-445663(0x93321)
1c01ba50:	02b603bd 	addi.w	$r29,$r29,-640(0xd80)
1c01ba54:	00107801 	add.w	$r1,$r0,$r30
1c01ba58:	5c0bd95c 	bne	$r10,$r28,3032(0xbd8) # 1c01c630 <inst_error>
1c01ba5c:	5c0bd57d 	bne	$r11,$r29,3028(0xbd4) # 1c01c630 <inst_error>
1c01ba60:	0010041e 	add.w	$r30,$r0,$r1
1c01ba64:	14e091f0 	lu12i.w	$r16,459919(0x7048f)
1c01ba68:	02a9c210 	addi.w	$r16,$r16,-1424(0xa70)
1c01ba6c:	1467a591 	lu12i.w	$r17,212268(0x33d2c)
1c01ba70:	02988231 	addi.w	$r17,$r17,1568(0x620)
1c01ba74:	1400000a 	lu12i.w	$r10,0
1c01ba78:	1400000b 	lu12i.w	$r11,0
1c01ba7c:	54000400 	bl	4(0x4) # 1c01ba80 <n19_jirl_test+0xf98>
1c01ba80:	0280302c 	addi.w	$r12,$r1,12(0xc)
1c01ba84:	0280902d 	addi.w	$r13,$r1,36(0x24)
1c01ba88:	50001400 	b	20(0x14) # 1c01ba9c <n19_jirl_test+0xfb4>
1c01ba8c:	14e091ea 	lu12i.w	$r10,459919(0x7048f)
1c01ba90:	02a9c14a 	addi.w	$r10,$r10,-1424(0xa70)
1c01ba94:	4c0001a0 	jirl	$r0,$r13,0
1c01ba98:	50001400 	b	20(0x14) # 1c01baac <n19_jirl_test+0xfc4>
1c01ba9c:	4c000180 	jirl	$r0,$r12,0
1c01baa0:	50000c00 	b	12(0xc) # 1c01baac <n19_jirl_test+0xfc4>
1c01baa4:	1467a58b 	lu12i.w	$r11,212268(0x33d2c)
1c01baa8:	0298816b 	addi.w	$r11,$r11,1568(0x620)
1c01baac:	14e091fc 	lu12i.w	$r28,459919(0x7048f)
1c01bab0:	02a9c39c 	addi.w	$r28,$r28,-1424(0xa70)
1c01bab4:	1467a59d 	lu12i.w	$r29,212268(0x33d2c)
1c01bab8:	029883bd 	addi.w	$r29,$r29,1568(0x620)
1c01babc:	00107801 	add.w	$r1,$r0,$r30
1c01bac0:	5c0b715c 	bne	$r10,$r28,2928(0xb70) # 1c01c630 <inst_error>
1c01bac4:	5c0b6d7d 	bne	$r11,$r29,2924(0xb6c) # 1c01c630 <inst_error>
1c01bac8:	0010041e 	add.w	$r30,$r0,$r1
1c01bacc:	14a6f1f0 	lu12i.w	$r16,341903(0x5378f)
1c01bad0:	0288fa10 	addi.w	$r16,$r16,574(0x23e)
1c01bad4:	15fbf311 	lu12i.w	$r17,-8296(0xfdf98)
1c01bad8:	02b08231 	addi.w	$r17,$r17,-992(0xc20)
1c01badc:	1400000a 	lu12i.w	$r10,0
1c01bae0:	1400000b 	lu12i.w	$r11,0
1c01bae4:	54000400 	bl	4(0x4) # 1c01bae8 <n19_jirl_test+0x1000>
1c01bae8:	0280302c 	addi.w	$r12,$r1,12(0xc)
1c01baec:	0280902d 	addi.w	$r13,$r1,36(0x24)
1c01baf0:	50001400 	b	20(0x14) # 1c01bb04 <n19_jirl_test+0x101c>
1c01baf4:	14a6f1ea 	lu12i.w	$r10,341903(0x5378f)
1c01baf8:	0288f94a 	addi.w	$r10,$r10,574(0x23e)
1c01bafc:	4c0001a0 	jirl	$r0,$r13,0
1c01bb00:	50001400 	b	20(0x14) # 1c01bb14 <n19_jirl_test+0x102c>
1c01bb04:	4c000180 	jirl	$r0,$r12,0
1c01bb08:	50000c00 	b	12(0xc) # 1c01bb14 <n19_jirl_test+0x102c>
1c01bb0c:	15fbf30b 	lu12i.w	$r11,-8296(0xfdf98)
1c01bb10:	02b0816b 	addi.w	$r11,$r11,-992(0xc20)
1c01bb14:	14a6f1fc 	lu12i.w	$r28,341903(0x5378f)
1c01bb18:	0288fb9c 	addi.w	$r28,$r28,574(0x23e)
1c01bb1c:	15fbf31d 	lu12i.w	$r29,-8296(0xfdf98)
1c01bb20:	02b083bd 	addi.w	$r29,$r29,-992(0xc20)
1c01bb24:	00107801 	add.w	$r1,$r0,$r30
1c01bb28:	5c0b095c 	bne	$r10,$r28,2824(0xb08) # 1c01c630 <inst_error>
1c01bb2c:	5c0b057d 	bne	$r11,$r29,2820(0xb04) # 1c01c630 <inst_error>
1c01bb30:	0010041e 	add.w	$r30,$r0,$r1
1c01bb34:	1419bfd0 	lu12i.w	$r16,52734(0xcdfe)
1c01bb38:	02b00210 	addi.w	$r16,$r16,-1024(0xc00)
1c01bb3c:	14a3a011 	lu12i.w	$r17,335104(0x51d00)
1c01bb40:	02ad9231 	addi.w	$r17,$r17,-1180(0xb64)
1c01bb44:	1400000a 	lu12i.w	$r10,0
1c01bb48:	1400000b 	lu12i.w	$r11,0
1c01bb4c:	54000400 	bl	4(0x4) # 1c01bb50 <n19_jirl_test+0x1068>
1c01bb50:	0280302c 	addi.w	$r12,$r1,12(0xc)
1c01bb54:	0280902d 	addi.w	$r13,$r1,36(0x24)
1c01bb58:	50001400 	b	20(0x14) # 1c01bb6c <n19_jirl_test+0x1084>
1c01bb5c:	1419bfca 	lu12i.w	$r10,52734(0xcdfe)
1c01bb60:	02b0014a 	addi.w	$r10,$r10,-1024(0xc00)
1c01bb64:	4c0001a0 	jirl	$r0,$r13,0
1c01bb68:	50001400 	b	20(0x14) # 1c01bb7c <n19_jirl_test+0x1094>
1c01bb6c:	4c000180 	jirl	$r0,$r12,0
1c01bb70:	50000c00 	b	12(0xc) # 1c01bb7c <n19_jirl_test+0x1094>
1c01bb74:	14a3a00b 	lu12i.w	$r11,335104(0x51d00)
1c01bb78:	02ad916b 	addi.w	$r11,$r11,-1180(0xb64)
1c01bb7c:	1419bfdc 	lu12i.w	$r28,52734(0xcdfe)
1c01bb80:	02b0039c 	addi.w	$r28,$r28,-1024(0xc00)
1c01bb84:	14a3a01d 	lu12i.w	$r29,335104(0x51d00)
1c01bb88:	02ad93bd 	addi.w	$r29,$r29,-1180(0xb64)
1c01bb8c:	00107801 	add.w	$r1,$r0,$r30
1c01bb90:	5c0aa15c 	bne	$r10,$r28,2720(0xaa0) # 1c01c630 <inst_error>
1c01bb94:	5c0a9d7d 	bne	$r11,$r29,2716(0xa9c) # 1c01c630 <inst_error>
1c01bb98:	0010041e 	add.w	$r30,$r0,$r1
1c01bb9c:	14ed6090 	lu12i.w	$r16,486148(0x76b04)
1c01bba0:	029f8210 	addi.w	$r16,$r16,2016(0x7e0)
1c01bba4:	15e49b91 	lu12i.w	$r17,-56100(0xf24dc)
1c01bba8:	02950231 	addi.w	$r17,$r17,1344(0x540)
1c01bbac:	1400000a 	lu12i.w	$r10,0
1c01bbb0:	1400000b 	lu12i.w	$r11,0
1c01bbb4:	54000400 	bl	4(0x4) # 1c01bbb8 <n19_jirl_test+0x10d0>
1c01bbb8:	0280302c 	addi.w	$r12,$r1,12(0xc)
1c01bbbc:	0280902d 	addi.w	$r13,$r1,36(0x24)
1c01bbc0:	50001400 	b	20(0x14) # 1c01bbd4 <n19_jirl_test+0x10ec>
1c01bbc4:	14ed608a 	lu12i.w	$r10,486148(0x76b04)
1c01bbc8:	029f814a 	addi.w	$r10,$r10,2016(0x7e0)
1c01bbcc:	4c0001a0 	jirl	$r0,$r13,0
1c01bbd0:	50001400 	b	20(0x14) # 1c01bbe4 <n19_jirl_test+0x10fc>
1c01bbd4:	4c000180 	jirl	$r0,$r12,0
1c01bbd8:	50000c00 	b	12(0xc) # 1c01bbe4 <n19_jirl_test+0x10fc>
1c01bbdc:	15e49b8b 	lu12i.w	$r11,-56100(0xf24dc)
1c01bbe0:	0295016b 	addi.w	$r11,$r11,1344(0x540)
1c01bbe4:	14ed609c 	lu12i.w	$r28,486148(0x76b04)
1c01bbe8:	029f839c 	addi.w	$r28,$r28,2016(0x7e0)
1c01bbec:	15e49b9d 	lu12i.w	$r29,-56100(0xf24dc)
1c01bbf0:	029503bd 	addi.w	$r29,$r29,1344(0x540)
1c01bbf4:	00107801 	add.w	$r1,$r0,$r30
1c01bbf8:	5c0a395c 	bne	$r10,$r28,2616(0xa38) # 1c01c630 <inst_error>
1c01bbfc:	5c0a357d 	bne	$r11,$r29,2612(0xa34) # 1c01c630 <inst_error>
1c01bc00:	0010041e 	add.w	$r30,$r0,$r1
1c01bc04:	14f5b930 	lu12i.w	$r16,503241(0x7adc9)
1c01bc08:	029a4210 	addi.w	$r16,$r16,1680(0x690)
1c01bc0c:	14b5bb31 	lu12i.w	$r17,372185(0x5add9)
1c01bc10:	02b82231 	addi.w	$r17,$r17,-504(0xe08)
1c01bc14:	1400000a 	lu12i.w	$r10,0
1c01bc18:	1400000b 	lu12i.w	$r11,0
1c01bc1c:	54000400 	bl	4(0x4) # 1c01bc20 <n19_jirl_test+0x1138>
1c01bc20:	0280302c 	addi.w	$r12,$r1,12(0xc)
1c01bc24:	0280902d 	addi.w	$r13,$r1,36(0x24)
1c01bc28:	50001400 	b	20(0x14) # 1c01bc3c <n19_jirl_test+0x1154>
1c01bc2c:	14f5b92a 	lu12i.w	$r10,503241(0x7adc9)
1c01bc30:	029a414a 	addi.w	$r10,$r10,1680(0x690)
1c01bc34:	4c0001a0 	jirl	$r0,$r13,0
1c01bc38:	50001400 	b	20(0x14) # 1c01bc4c <n19_jirl_test+0x1164>
1c01bc3c:	4c000180 	jirl	$r0,$r12,0
1c01bc40:	50000c00 	b	12(0xc) # 1c01bc4c <n19_jirl_test+0x1164>
1c01bc44:	14b5bb2b 	lu12i.w	$r11,372185(0x5add9)
1c01bc48:	02b8216b 	addi.w	$r11,$r11,-504(0xe08)
1c01bc4c:	14f5b93c 	lu12i.w	$r28,503241(0x7adc9)
1c01bc50:	029a439c 	addi.w	$r28,$r28,1680(0x690)
1c01bc54:	14b5bb3d 	lu12i.w	$r29,372185(0x5add9)
1c01bc58:	02b823bd 	addi.w	$r29,$r29,-504(0xe08)
1c01bc5c:	00107801 	add.w	$r1,$r0,$r30
1c01bc60:	5c09d15c 	bne	$r10,$r28,2512(0x9d0) # 1c01c630 <inst_error>
1c01bc64:	5c09cd7d 	bne	$r11,$r29,2508(0x9cc) # 1c01c630 <inst_error>
1c01bc68:	0010041e 	add.w	$r30,$r0,$r1
1c01bc6c:	15267d30 	lu12i.w	$r16,-445463(0x933e9)
1c01bc70:	02926210 	addi.w	$r16,$r16,1176(0x498)
1c01bc74:	15282e31 	lu12i.w	$r17,-441999(0x94171)
1c01bc78:	02a74231 	addi.w	$r17,$r17,-1584(0x9d0)
1c01bc7c:	1400000a 	lu12i.w	$r10,0
1c01bc80:	1400000b 	lu12i.w	$r11,0
1c01bc84:	54000400 	bl	4(0x4) # 1c01bc88 <n19_jirl_test+0x11a0>
1c01bc88:	0280302c 	addi.w	$r12,$r1,12(0xc)
1c01bc8c:	0280902d 	addi.w	$r13,$r1,36(0x24)
1c01bc90:	50001400 	b	20(0x14) # 1c01bca4 <n19_jirl_test+0x11bc>
1c01bc94:	15267d2a 	lu12i.w	$r10,-445463(0x933e9)
1c01bc98:	0292614a 	addi.w	$r10,$r10,1176(0x498)
1c01bc9c:	4c0001a0 	jirl	$r0,$r13,0
1c01bca0:	50001400 	b	20(0x14) # 1c01bcb4 <n19_jirl_test+0x11cc>
1c01bca4:	4c000180 	jirl	$r0,$r12,0
1c01bca8:	50000c00 	b	12(0xc) # 1c01bcb4 <n19_jirl_test+0x11cc>
1c01bcac:	15282e2b 	lu12i.w	$r11,-441999(0x94171)
1c01bcb0:	02a7416b 	addi.w	$r11,$r11,-1584(0x9d0)
1c01bcb4:	15267d3c 	lu12i.w	$r28,-445463(0x933e9)
1c01bcb8:	0292639c 	addi.w	$r28,$r28,1176(0x498)
1c01bcbc:	15282e3d 	lu12i.w	$r29,-441999(0x94171)
1c01bcc0:	02a743bd 	addi.w	$r29,$r29,-1584(0x9d0)
1c01bcc4:	00107801 	add.w	$r1,$r0,$r30
1c01bcc8:	5c09695c 	bne	$r10,$r28,2408(0x968) # 1c01c630 <inst_error>
1c01bccc:	5c09657d 	bne	$r11,$r29,2404(0x964) # 1c01c630 <inst_error>
1c01bcd0:	0010041e 	add.w	$r30,$r0,$r1
1c01bcd4:	155a5af0 	lu12i.w	$r16,-339241(0xad2d7)
1c01bcd8:	02be0210 	addi.w	$r16,$r16,-128(0xf80)
1c01bcdc:	15dd4651 	lu12i.w	$r17,-71118(0xeea32)
1c01bce0:	028dc231 	addi.w	$r17,$r17,880(0x370)
1c01bce4:	1400000a 	lu12i.w	$r10,0
1c01bce8:	1400000b 	lu12i.w	$r11,0
1c01bcec:	54000400 	bl	4(0x4) # 1c01bcf0 <n19_jirl_test+0x1208>
1c01bcf0:	0280302c 	addi.w	$r12,$r1,12(0xc)
1c01bcf4:	0280902d 	addi.w	$r13,$r1,36(0x24)
1c01bcf8:	50001400 	b	20(0x14) # 1c01bd0c <n19_jirl_test+0x1224>
1c01bcfc:	155a5aea 	lu12i.w	$r10,-339241(0xad2d7)
1c01bd00:	02be014a 	addi.w	$r10,$r10,-128(0xf80)
1c01bd04:	4c0001a0 	jirl	$r0,$r13,0
1c01bd08:	50001400 	b	20(0x14) # 1c01bd1c <n19_jirl_test+0x1234>
1c01bd0c:	4c000180 	jirl	$r0,$r12,0
1c01bd10:	50000c00 	b	12(0xc) # 1c01bd1c <n19_jirl_test+0x1234>
1c01bd14:	15dd464b 	lu12i.w	$r11,-71118(0xeea32)
1c01bd18:	028dc16b 	addi.w	$r11,$r11,880(0x370)
1c01bd1c:	155a5afc 	lu12i.w	$r28,-339241(0xad2d7)
1c01bd20:	02be039c 	addi.w	$r28,$r28,-128(0xf80)
1c01bd24:	15dd465d 	lu12i.w	$r29,-71118(0xeea32)
1c01bd28:	028dc3bd 	addi.w	$r29,$r29,880(0x370)
1c01bd2c:	00107801 	add.w	$r1,$r0,$r30
1c01bd30:	5c09015c 	bne	$r10,$r28,2304(0x900) # 1c01c630 <inst_error>
1c01bd34:	5c08fd7d 	bne	$r11,$r29,2300(0x8fc) # 1c01c630 <inst_error>
1c01bd38:	0010041e 	add.w	$r30,$r0,$r1
1c01bd3c:	15ca0570 	lu12i.w	$r16,-110549(0xe502b)
1c01bd40:	02b5da10 	addi.w	$r16,$r16,-650(0xd76)
1c01bd44:	1494ed71 	lu12i.w	$r17,305003(0x4a76b)
1c01bd48:	02bd7231 	addi.w	$r17,$r17,-164(0xf5c)
1c01bd4c:	1400000a 	lu12i.w	$r10,0
1c01bd50:	1400000b 	lu12i.w	$r11,0
1c01bd54:	54000400 	bl	4(0x4) # 1c01bd58 <n19_jirl_test+0x1270>
1c01bd58:	0280302c 	addi.w	$r12,$r1,12(0xc)
1c01bd5c:	0280902d 	addi.w	$r13,$r1,36(0x24)
1c01bd60:	50001400 	b	20(0x14) # 1c01bd74 <n19_jirl_test+0x128c>
1c01bd64:	15ca056a 	lu12i.w	$r10,-110549(0xe502b)
1c01bd68:	02b5d94a 	addi.w	$r10,$r10,-650(0xd76)
1c01bd6c:	4c0001a0 	jirl	$r0,$r13,0
1c01bd70:	50001400 	b	20(0x14) # 1c01bd84 <n19_jirl_test+0x129c>
1c01bd74:	4c000180 	jirl	$r0,$r12,0
1c01bd78:	50000c00 	b	12(0xc) # 1c01bd84 <n19_jirl_test+0x129c>
1c01bd7c:	1494ed6b 	lu12i.w	$r11,305003(0x4a76b)
1c01bd80:	02bd716b 	addi.w	$r11,$r11,-164(0xf5c)
1c01bd84:	15ca057c 	lu12i.w	$r28,-110549(0xe502b)
1c01bd88:	02b5db9c 	addi.w	$r28,$r28,-650(0xd76)
1c01bd8c:	1494ed7d 	lu12i.w	$r29,305003(0x4a76b)
1c01bd90:	02bd73bd 	addi.w	$r29,$r29,-164(0xf5c)
1c01bd94:	00107801 	add.w	$r1,$r0,$r30
1c01bd98:	5c08995c 	bne	$r10,$r28,2200(0x898) # 1c01c630 <inst_error>
1c01bd9c:	5c08957d 	bne	$r11,$r29,2196(0x894) # 1c01c630 <inst_error>
1c01bda0:	0010041e 	add.w	$r30,$r0,$r1
1c01bda4:	1467b110 	lu12i.w	$r16,212360(0x33d88)
1c01bda8:	02945210 	addi.w	$r16,$r16,1300(0x514)
1c01bdac:	15991c51 	lu12i.w	$r17,-210718(0xcc8e2)
1c01bdb0:	0280d231 	addi.w	$r17,$r17,52(0x34)
1c01bdb4:	1400000a 	lu12i.w	$r10,0
1c01bdb8:	1400000b 	lu12i.w	$r11,0
1c01bdbc:	54000400 	bl	4(0x4) # 1c01bdc0 <n19_jirl_test+0x12d8>
1c01bdc0:	0280302c 	addi.w	$r12,$r1,12(0xc)
1c01bdc4:	0280902d 	addi.w	$r13,$r1,36(0x24)
1c01bdc8:	50001400 	b	20(0x14) # 1c01bddc <n19_jirl_test+0x12f4>
1c01bdcc:	1467b10a 	lu12i.w	$r10,212360(0x33d88)
1c01bdd0:	0294514a 	addi.w	$r10,$r10,1300(0x514)
1c01bdd4:	4c0001a0 	jirl	$r0,$r13,0
1c01bdd8:	50001400 	b	20(0x14) # 1c01bdec <n19_jirl_test+0x1304>
1c01bddc:	4c000180 	jirl	$r0,$r12,0
1c01bde0:	50000c00 	b	12(0xc) # 1c01bdec <n19_jirl_test+0x1304>
1c01bde4:	15991c4b 	lu12i.w	$r11,-210718(0xcc8e2)
1c01bde8:	0280d16b 	addi.w	$r11,$r11,52(0x34)
1c01bdec:	1467b11c 	lu12i.w	$r28,212360(0x33d88)
1c01bdf0:	0294539c 	addi.w	$r28,$r28,1300(0x514)
1c01bdf4:	15991c5d 	lu12i.w	$r29,-210718(0xcc8e2)
1c01bdf8:	0280d3bd 	addi.w	$r29,$r29,52(0x34)
1c01bdfc:	00107801 	add.w	$r1,$r0,$r30
1c01be00:	5c08315c 	bne	$r10,$r28,2096(0x830) # 1c01c630 <inst_error>
1c01be04:	5c082d7d 	bne	$r11,$r29,2092(0x82c) # 1c01c630 <inst_error>
1c01be08:	0010041e 	add.w	$r30,$r0,$r1
1c01be0c:	15ba1870 	lu12i.w	$r16,-143165(0xdd0c3)
1c01be10:	02ac7210 	addi.w	$r16,$r16,-1252(0xb1c)
1c01be14:	155f3691 	lu12i.w	$r17,-329292(0xaf9b4)
1c01be18:	02b7c231 	addi.w	$r17,$r17,-528(0xdf0)
1c01be1c:	1400000a 	lu12i.w	$r10,0
1c01be20:	1400000b 	lu12i.w	$r11,0
1c01be24:	54000400 	bl	4(0x4) # 1c01be28 <n19_jirl_test+0x1340>
1c01be28:	0280302c 	addi.w	$r12,$r1,12(0xc)
1c01be2c:	0280902d 	addi.w	$r13,$r1,36(0x24)
1c01be30:	50001400 	b	20(0x14) # 1c01be44 <n19_jirl_test+0x135c>
1c01be34:	15ba186a 	lu12i.w	$r10,-143165(0xdd0c3)
1c01be38:	02ac714a 	addi.w	$r10,$r10,-1252(0xb1c)
1c01be3c:	4c0001a0 	jirl	$r0,$r13,0
1c01be40:	50001400 	b	20(0x14) # 1c01be54 <n19_jirl_test+0x136c>
1c01be44:	4c000180 	jirl	$r0,$r12,0
1c01be48:	50000c00 	b	12(0xc) # 1c01be54 <n19_jirl_test+0x136c>
1c01be4c:	155f368b 	lu12i.w	$r11,-329292(0xaf9b4)
1c01be50:	02b7c16b 	addi.w	$r11,$r11,-528(0xdf0)
1c01be54:	15ba187c 	lu12i.w	$r28,-143165(0xdd0c3)
1c01be58:	02ac739c 	addi.w	$r28,$r28,-1252(0xb1c)
1c01be5c:	155f369d 	lu12i.w	$r29,-329292(0xaf9b4)
1c01be60:	02b7c3bd 	addi.w	$r29,$r29,-528(0xdf0)
1c01be64:	00107801 	add.w	$r1,$r0,$r30
1c01be68:	5c07c95c 	bne	$r10,$r28,1992(0x7c8) # 1c01c630 <inst_error>
1c01be6c:	5c07c57d 	bne	$r11,$r29,1988(0x7c4) # 1c01c630 <inst_error>
1c01be70:	0010041e 	add.w	$r30,$r0,$r1
1c01be74:	1495ce30 	lu12i.w	$r16,306801(0x4ae71)
1c01be78:	029a0210 	addi.w	$r16,$r16,1664(0x680)
1c01be7c:	15bf4e11 	lu12i.w	$r17,-132496(0xdfa70)
1c01be80:	02b50231 	addi.w	$r17,$r17,-704(0xd40)
1c01be84:	1400000a 	lu12i.w	$r10,0
1c01be88:	1400000b 	lu12i.w	$r11,0
1c01be8c:	54000400 	bl	4(0x4) # 1c01be90 <n19_jirl_test+0x13a8>
1c01be90:	0280302c 	addi.w	$r12,$r1,12(0xc)
1c01be94:	0280902d 	addi.w	$r13,$r1,36(0x24)
1c01be98:	50001400 	b	20(0x14) # 1c01beac <n19_jirl_test+0x13c4>
1c01be9c:	1495ce2a 	lu12i.w	$r10,306801(0x4ae71)
1c01bea0:	029a014a 	addi.w	$r10,$r10,1664(0x680)
1c01bea4:	4c0001a0 	jirl	$r0,$r13,0
1c01bea8:	50001400 	b	20(0x14) # 1c01bebc <n19_jirl_test+0x13d4>
1c01beac:	4c000180 	jirl	$r0,$r12,0
1c01beb0:	50000c00 	b	12(0xc) # 1c01bebc <n19_jirl_test+0x13d4>
1c01beb4:	15bf4e0b 	lu12i.w	$r11,-132496(0xdfa70)
1c01beb8:	02b5016b 	addi.w	$r11,$r11,-704(0xd40)
1c01bebc:	1495ce3c 	lu12i.w	$r28,306801(0x4ae71)
1c01bec0:	029a039c 	addi.w	$r28,$r28,1664(0x680)
1c01bec4:	15bf4e1d 	lu12i.w	$r29,-132496(0xdfa70)
1c01bec8:	02b503bd 	addi.w	$r29,$r29,-704(0xd40)
1c01becc:	00107801 	add.w	$r1,$r0,$r30
1c01bed0:	5c07615c 	bne	$r10,$r28,1888(0x760) # 1c01c630 <inst_error>
1c01bed4:	5c075d7d 	bne	$r11,$r29,1884(0x75c) # 1c01c630 <inst_error>
1c01bed8:	0010041e 	add.w	$r30,$r0,$r1
1c01bedc:	158dee50 	lu12i.w	$r16,-233614(0xc6f72)
1c01bee0:	02977a10 	addi.w	$r16,$r16,1502(0x5de)
1c01bee4:	14f59ad1 	lu12i.w	$r17,502998(0x7acd6)
1c01bee8:	028de231 	addi.w	$r17,$r17,888(0x378)
1c01beec:	1400000a 	lu12i.w	$r10,0
1c01bef0:	1400000b 	lu12i.w	$r11,0
1c01bef4:	54000400 	bl	4(0x4) # 1c01bef8 <n19_jirl_test+0x1410>
1c01bef8:	0280302c 	addi.w	$r12,$r1,12(0xc)
1c01befc:	0280902d 	addi.w	$r13,$r1,36(0x24)
1c01bf00:	50001400 	b	20(0x14) # 1c01bf14 <n19_jirl_test+0x142c>
1c01bf04:	158dee4a 	lu12i.w	$r10,-233614(0xc6f72)
1c01bf08:	0297794a 	addi.w	$r10,$r10,1502(0x5de)
1c01bf0c:	4c0001a0 	jirl	$r0,$r13,0
1c01bf10:	50001400 	b	20(0x14) # 1c01bf24 <n19_jirl_test+0x143c>
1c01bf14:	4c000180 	jirl	$r0,$r12,0
1c01bf18:	50000c00 	b	12(0xc) # 1c01bf24 <n19_jirl_test+0x143c>
1c01bf1c:	14f59acb 	lu12i.w	$r11,502998(0x7acd6)
1c01bf20:	028de16b 	addi.w	$r11,$r11,888(0x378)
1c01bf24:	158dee5c 	lu12i.w	$r28,-233614(0xc6f72)
1c01bf28:	02977b9c 	addi.w	$r28,$r28,1502(0x5de)
1c01bf2c:	14f59add 	lu12i.w	$r29,502998(0x7acd6)
1c01bf30:	028de3bd 	addi.w	$r29,$r29,888(0x378)
1c01bf34:	00107801 	add.w	$r1,$r0,$r30
1c01bf38:	5c06f95c 	bne	$r10,$r28,1784(0x6f8) # 1c01c630 <inst_error>
1c01bf3c:	5c06f57d 	bne	$r11,$r29,1780(0x6f4) # 1c01c630 <inst_error>
1c01bf40:	0010041e 	add.w	$r30,$r0,$r1
1c01bf44:	15b7c9b0 	lu12i.w	$r16,-147891(0xdbe4d)
1c01bf48:	02acd210 	addi.w	$r16,$r16,-1228(0xb34)
1c01bf4c:	156cdd51 	lu12i.w	$r17,-301334(0xb66ea)
1c01bf50:	02ae1231 	addi.w	$r17,$r17,-1148(0xb84)
1c01bf54:	1400000a 	lu12i.w	$r10,0
1c01bf58:	1400000b 	lu12i.w	$r11,0
1c01bf5c:	54000400 	bl	4(0x4) # 1c01bf60 <n19_jirl_test+0x1478>
1c01bf60:	0280302c 	addi.w	$r12,$r1,12(0xc)
1c01bf64:	0280902d 	addi.w	$r13,$r1,36(0x24)
1c01bf68:	50001400 	b	20(0x14) # 1c01bf7c <n19_jirl_test+0x1494>
1c01bf6c:	15b7c9aa 	lu12i.w	$r10,-147891(0xdbe4d)
1c01bf70:	02acd14a 	addi.w	$r10,$r10,-1228(0xb34)
1c01bf74:	4c0001a0 	jirl	$r0,$r13,0
1c01bf78:	50001400 	b	20(0x14) # 1c01bf8c <n19_jirl_test+0x14a4>
1c01bf7c:	4c000180 	jirl	$r0,$r12,0
1c01bf80:	50000c00 	b	12(0xc) # 1c01bf8c <n19_jirl_test+0x14a4>
1c01bf84:	156cdd4b 	lu12i.w	$r11,-301334(0xb66ea)
1c01bf88:	02ae116b 	addi.w	$r11,$r11,-1148(0xb84)
1c01bf8c:	15b7c9bc 	lu12i.w	$r28,-147891(0xdbe4d)
1c01bf90:	02acd39c 	addi.w	$r28,$r28,-1228(0xb34)
1c01bf94:	156cdd5d 	lu12i.w	$r29,-301334(0xb66ea)
1c01bf98:	02ae13bd 	addi.w	$r29,$r29,-1148(0xb84)
1c01bf9c:	00107801 	add.w	$r1,$r0,$r30
1c01bfa0:	5c06915c 	bne	$r10,$r28,1680(0x690) # 1c01c630 <inst_error>
1c01bfa4:	5c068d7d 	bne	$r11,$r29,1676(0x68c) # 1c01c630 <inst_error>
1c01bfa8:	0010041e 	add.w	$r30,$r0,$r1
1c01bfac:	14b697d0 	lu12i.w	$r16,373950(0x5b4be)
1c01bfb0:	028e1210 	addi.w	$r16,$r16,900(0x384)
1c01bfb4:	15dbb271 	lu12i.w	$r17,-74349(0xedd93)
1c01bfb8:	02b75231 	addi.w	$r17,$r17,-556(0xdd4)
1c01bfbc:	1400000a 	lu12i.w	$r10,0
1c01bfc0:	1400000b 	lu12i.w	$r11,0
1c01bfc4:	54000400 	bl	4(0x4) # 1c01bfc8 <n19_jirl_test+0x14e0>
1c01bfc8:	0280302c 	addi.w	$r12,$r1,12(0xc)
1c01bfcc:	0280902d 	addi.w	$r13,$r1,36(0x24)
1c01bfd0:	50001400 	b	20(0x14) # 1c01bfe4 <n19_jirl_test+0x14fc>
1c01bfd4:	14b697ca 	lu12i.w	$r10,373950(0x5b4be)
1c01bfd8:	028e114a 	addi.w	$r10,$r10,900(0x384)
1c01bfdc:	4c0001a0 	jirl	$r0,$r13,0
1c01bfe0:	50001400 	b	20(0x14) # 1c01bff4 <n19_jirl_test+0x150c>
1c01bfe4:	4c000180 	jirl	$r0,$r12,0
1c01bfe8:	50000c00 	b	12(0xc) # 1c01bff4 <n19_jirl_test+0x150c>
1c01bfec:	15dbb26b 	lu12i.w	$r11,-74349(0xedd93)
1c01bff0:	02b7516b 	addi.w	$r11,$r11,-556(0xdd4)
1c01bff4:	14b697dc 	lu12i.w	$r28,373950(0x5b4be)
1c01bff8:	028e139c 	addi.w	$r28,$r28,900(0x384)
1c01bffc:	15dbb27d 	lu12i.w	$r29,-74349(0xedd93)
1c01c000:	02b753bd 	addi.w	$r29,$r29,-556(0xdd4)
1c01c004:	00107801 	add.w	$r1,$r0,$r30
1c01c008:	5c06295c 	bne	$r10,$r28,1576(0x628) # 1c01c630 <inst_error>
1c01c00c:	5c06257d 	bne	$r11,$r29,1572(0x624) # 1c01c630 <inst_error>
1c01c010:	0010041e 	add.w	$r30,$r0,$r1
1c01c014:	15ed2eb0 	lu12i.w	$r16,-38539(0xf6975)
1c01c018:	02b8c210 	addi.w	$r16,$r16,-464(0xe30)
1c01c01c:	15763a51 	lu12i.w	$r17,-282158(0xbb1d2)
1c01c020:	02984231 	addi.w	$r17,$r17,1552(0x610)
1c01c024:	1400000a 	lu12i.w	$r10,0
1c01c028:	1400000b 	lu12i.w	$r11,0
1c01c02c:	54000400 	bl	4(0x4) # 1c01c030 <n19_jirl_test+0x1548>
1c01c030:	0280302c 	addi.w	$r12,$r1,12(0xc)
1c01c034:	0280902d 	addi.w	$r13,$r1,36(0x24)
1c01c038:	50001400 	b	20(0x14) # 1c01c04c <n19_jirl_test+0x1564>
1c01c03c:	15ed2eaa 	lu12i.w	$r10,-38539(0xf6975)
1c01c040:	02b8c14a 	addi.w	$r10,$r10,-464(0xe30)
1c01c044:	4c0001a0 	jirl	$r0,$r13,0
1c01c048:	50001400 	b	20(0x14) # 1c01c05c <n19_jirl_test+0x1574>
1c01c04c:	4c000180 	jirl	$r0,$r12,0
1c01c050:	50000c00 	b	12(0xc) # 1c01c05c <n19_jirl_test+0x1574>
1c01c054:	15763a4b 	lu12i.w	$r11,-282158(0xbb1d2)
1c01c058:	0298416b 	addi.w	$r11,$r11,1552(0x610)
1c01c05c:	15ed2ebc 	lu12i.w	$r28,-38539(0xf6975)
1c01c060:	02b8c39c 	addi.w	$r28,$r28,-464(0xe30)
1c01c064:	15763a5d 	lu12i.w	$r29,-282158(0xbb1d2)
1c01c068:	029843bd 	addi.w	$r29,$r29,1552(0x610)
1c01c06c:	00107801 	add.w	$r1,$r0,$r30
1c01c070:	5c05c15c 	bne	$r10,$r28,1472(0x5c0) # 1c01c630 <inst_error>
1c01c074:	5c05bd7d 	bne	$r11,$r29,1468(0x5bc) # 1c01c630 <inst_error>
1c01c078:	0010041e 	add.w	$r30,$r0,$r1
1c01c07c:	157d52f0 	lu12i.w	$r16,-267625(0xbea97)
1c01c080:	02ba6210 	addi.w	$r16,$r16,-360(0xe98)
1c01c084:	15890cf1 	lu12i.w	$r17,-243609(0xc4867)
1c01c088:	02973231 	addi.w	$r17,$r17,1484(0x5cc)
1c01c08c:	1400000a 	lu12i.w	$r10,0
1c01c090:	1400000b 	lu12i.w	$r11,0
1c01c094:	54000400 	bl	4(0x4) # 1c01c098 <n19_jirl_test+0x15b0>
1c01c098:	0280302c 	addi.w	$r12,$r1,12(0xc)
1c01c09c:	0280902d 	addi.w	$r13,$r1,36(0x24)
1c01c0a0:	50001400 	b	20(0x14) # 1c01c0b4 <n19_jirl_test+0x15cc>
1c01c0a4:	157d52ea 	lu12i.w	$r10,-267625(0xbea97)
1c01c0a8:	02ba614a 	addi.w	$r10,$r10,-360(0xe98)
1c01c0ac:	4c0001a0 	jirl	$r0,$r13,0
1c01c0b0:	50001400 	b	20(0x14) # 1c01c0c4 <n19_jirl_test+0x15dc>
1c01c0b4:	4c000180 	jirl	$r0,$r12,0
1c01c0b8:	50000c00 	b	12(0xc) # 1c01c0c4 <n19_jirl_test+0x15dc>
1c01c0bc:	15890ceb 	lu12i.w	$r11,-243609(0xc4867)
1c01c0c0:	0297316b 	addi.w	$r11,$r11,1484(0x5cc)
1c01c0c4:	157d52fc 	lu12i.w	$r28,-267625(0xbea97)
1c01c0c8:	02ba639c 	addi.w	$r28,$r28,-360(0xe98)
1c01c0cc:	15890cfd 	lu12i.w	$r29,-243609(0xc4867)
1c01c0d0:	029733bd 	addi.w	$r29,$r29,1484(0x5cc)
1c01c0d4:	00107801 	add.w	$r1,$r0,$r30
1c01c0d8:	5c05595c 	bne	$r10,$r28,1368(0x558) # 1c01c630 <inst_error>
1c01c0dc:	5c05557d 	bne	$r11,$r29,1364(0x554) # 1c01c630 <inst_error>
1c01c0e0:	0010041e 	add.w	$r30,$r0,$r1
1c01c0e4:	14f9e370 	lu12i.w	$r16,511771(0x7cf1b)
1c01c0e8:	02866210 	addi.w	$r16,$r16,408(0x198)
1c01c0ec:	15826ef1 	lu12i.w	$r17,-257161(0xc1377)
1c01c0f0:	02b9ca31 	addi.w	$r17,$r17,-398(0xe72)
1c01c0f4:	1400000a 	lu12i.w	$r10,0
1c01c0f8:	1400000b 	lu12i.w	$r11,0
1c01c0fc:	54000400 	bl	4(0x4) # 1c01c100 <n19_jirl_test+0x1618>
1c01c100:	0280302c 	addi.w	$r12,$r1,12(0xc)
1c01c104:	0280902d 	addi.w	$r13,$r1,36(0x24)
1c01c108:	50001400 	b	20(0x14) # 1c01c11c <n19_jirl_test+0x1634>
1c01c10c:	14f9e36a 	lu12i.w	$r10,511771(0x7cf1b)
1c01c110:	0286614a 	addi.w	$r10,$r10,408(0x198)
1c01c114:	4c0001a0 	jirl	$r0,$r13,0
1c01c118:	50001400 	b	20(0x14) # 1c01c12c <n19_jirl_test+0x1644>
1c01c11c:	4c000180 	jirl	$r0,$r12,0
1c01c120:	50000c00 	b	12(0xc) # 1c01c12c <n19_jirl_test+0x1644>
1c01c124:	15826eeb 	lu12i.w	$r11,-257161(0xc1377)
1c01c128:	02b9c96b 	addi.w	$r11,$r11,-398(0xe72)
1c01c12c:	14f9e37c 	lu12i.w	$r28,511771(0x7cf1b)
1c01c130:	0286639c 	addi.w	$r28,$r28,408(0x198)
1c01c134:	15826efd 	lu12i.w	$r29,-257161(0xc1377)
1c01c138:	02b9cbbd 	addi.w	$r29,$r29,-398(0xe72)
1c01c13c:	00107801 	add.w	$r1,$r0,$r30
1c01c140:	5c04f15c 	bne	$r10,$r28,1264(0x4f0) # 1c01c630 <inst_error>
1c01c144:	5c04ed7d 	bne	$r11,$r29,1260(0x4ec) # 1c01c630 <inst_error>
1c01c148:	0010041e 	add.w	$r30,$r0,$r1
1c01c14c:	153adb70 	lu12i.w	$r16,-403749(0x9d6db)
1c01c150:	02b60210 	addi.w	$r16,$r16,-640(0xd80)
1c01c154:	156f1851 	lu12i.w	$r17,-296766(0xb78c2)
1c01c158:	02862e31 	addi.w	$r17,$r17,395(0x18b)
1c01c15c:	1400000a 	lu12i.w	$r10,0
1c01c160:	1400000b 	lu12i.w	$r11,0
1c01c164:	54000400 	bl	4(0x4) # 1c01c168 <n19_jirl_test+0x1680>
1c01c168:	0280302c 	addi.w	$r12,$r1,12(0xc)
1c01c16c:	0280902d 	addi.w	$r13,$r1,36(0x24)
1c01c170:	50001400 	b	20(0x14) # 1c01c184 <n19_jirl_test+0x169c>
1c01c174:	153adb6a 	lu12i.w	$r10,-403749(0x9d6db)
1c01c178:	02b6014a 	addi.w	$r10,$r10,-640(0xd80)
1c01c17c:	4c0001a0 	jirl	$r0,$r13,0
1c01c180:	50001400 	b	20(0x14) # 1c01c194 <n19_jirl_test+0x16ac>
1c01c184:	4c000180 	jirl	$r0,$r12,0
1c01c188:	50000c00 	b	12(0xc) # 1c01c194 <n19_jirl_test+0x16ac>
1c01c18c:	156f184b 	lu12i.w	$r11,-296766(0xb78c2)
1c01c190:	02862d6b 	addi.w	$r11,$r11,395(0x18b)
1c01c194:	153adb7c 	lu12i.w	$r28,-403749(0x9d6db)
1c01c198:	02b6039c 	addi.w	$r28,$r28,-640(0xd80)
1c01c19c:	156f185d 	lu12i.w	$r29,-296766(0xb78c2)
1c01c1a0:	02862fbd 	addi.w	$r29,$r29,395(0x18b)
1c01c1a4:	00107801 	add.w	$r1,$r0,$r30
1c01c1a8:	5c04895c 	bne	$r10,$r28,1160(0x488) # 1c01c630 <inst_error>
1c01c1ac:	5c04857d 	bne	$r11,$r29,1156(0x484) # 1c01c630 <inst_error>
1c01c1b0:	0010041e 	add.w	$r30,$r0,$r1
1c01c1b4:	14252d70 	lu12i.w	$r16,76139(0x1296b)
1c01c1b8:	02887a10 	addi.w	$r16,$r16,542(0x21e)
1c01c1bc:	144d0bd1 	lu12i.w	$r17,157790(0x2685e)
1c01c1c0:	02937231 	addi.w	$r17,$r17,1244(0x4dc)
1c01c1c4:	1400000a 	lu12i.w	$r10,0
1c01c1c8:	1400000b 	lu12i.w	$r11,0
1c01c1cc:	54000400 	bl	4(0x4) # 1c01c1d0 <n19_jirl_test+0x16e8>
1c01c1d0:	0280302c 	addi.w	$r12,$r1,12(0xc)
1c01c1d4:	0280902d 	addi.w	$r13,$r1,36(0x24)
1c01c1d8:	50001400 	b	20(0x14) # 1c01c1ec <n19_jirl_test+0x1704>
1c01c1dc:	14252d6a 	lu12i.w	$r10,76139(0x1296b)
1c01c1e0:	0288794a 	addi.w	$r10,$r10,542(0x21e)
1c01c1e4:	4c0001a0 	jirl	$r0,$r13,0
1c01c1e8:	50001400 	b	20(0x14) # 1c01c1fc <n19_jirl_test+0x1714>
1c01c1ec:	4c000180 	jirl	$r0,$r12,0
1c01c1f0:	50000c00 	b	12(0xc) # 1c01c1fc <n19_jirl_test+0x1714>
1c01c1f4:	144d0bcb 	lu12i.w	$r11,157790(0x2685e)
1c01c1f8:	0293716b 	addi.w	$r11,$r11,1244(0x4dc)
1c01c1fc:	14252d7c 	lu12i.w	$r28,76139(0x1296b)
1c01c200:	02887b9c 	addi.w	$r28,$r28,542(0x21e)
1c01c204:	144d0bdd 	lu12i.w	$r29,157790(0x2685e)
1c01c208:	029373bd 	addi.w	$r29,$r29,1244(0x4dc)
1c01c20c:	00107801 	add.w	$r1,$r0,$r30
1c01c210:	5c04215c 	bne	$r10,$r28,1056(0x420) # 1c01c630 <inst_error>
1c01c214:	5c041d7d 	bne	$r11,$r29,1052(0x41c) # 1c01c630 <inst_error>
1c01c218:	0010041e 	add.w	$r30,$r0,$r1
1c01c21c:	14cb7f30 	lu12i.w	$r16,416761(0x65bf9)
1c01c220:	028e6210 	addi.w	$r16,$r16,920(0x398)
1c01c224:	15819b71 	lu12i.w	$r17,-258853(0xc0cdb)
1c01c228:	02a8e231 	addi.w	$r17,$r17,-1480(0xa38)
1c01c22c:	1400000a 	lu12i.w	$r10,0
1c01c230:	1400000b 	lu12i.w	$r11,0
1c01c234:	54000400 	bl	4(0x4) # 1c01c238 <n19_jirl_test+0x1750>
1c01c238:	0280302c 	addi.w	$r12,$r1,12(0xc)
1c01c23c:	0280902d 	addi.w	$r13,$r1,36(0x24)
1c01c240:	50001400 	b	20(0x14) # 1c01c254 <n19_jirl_test+0x176c>
1c01c244:	14cb7f2a 	lu12i.w	$r10,416761(0x65bf9)
1c01c248:	028e614a 	addi.w	$r10,$r10,920(0x398)
1c01c24c:	4c0001a0 	jirl	$r0,$r13,0
1c01c250:	50001400 	b	20(0x14) # 1c01c264 <n19_jirl_test+0x177c>
1c01c254:	4c000180 	jirl	$r0,$r12,0
1c01c258:	50000c00 	b	12(0xc) # 1c01c264 <n19_jirl_test+0x177c>
1c01c25c:	15819b6b 	lu12i.w	$r11,-258853(0xc0cdb)
1c01c260:	02a8e16b 	addi.w	$r11,$r11,-1480(0xa38)
1c01c264:	14cb7f3c 	lu12i.w	$r28,416761(0x65bf9)
1c01c268:	028e639c 	addi.w	$r28,$r28,920(0x398)
1c01c26c:	15819b7d 	lu12i.w	$r29,-258853(0xc0cdb)
1c01c270:	02a8e3bd 	addi.w	$r29,$r29,-1480(0xa38)
1c01c274:	00107801 	add.w	$r1,$r0,$r30
1c01c278:	5c03b95c 	bne	$r10,$r28,952(0x3b8) # 1c01c630 <inst_error>
1c01c27c:	5c03b57d 	bne	$r11,$r29,948(0x3b4) # 1c01c630 <inst_error>
1c01c280:	0010041e 	add.w	$r30,$r0,$r1
1c01c284:	140d88d0 	lu12i.w	$r16,27718(0x6c46)
1c01c288:	02a7ea10 	addi.w	$r16,$r16,-1542(0x9fa)
1c01c28c:	142a69f1 	lu12i.w	$r17,86863(0x1534f)
1c01c290:	02b14231 	addi.w	$r17,$r17,-944(0xc50)
1c01c294:	1400000a 	lu12i.w	$r10,0
1c01c298:	1400000b 	lu12i.w	$r11,0
1c01c29c:	54000400 	bl	4(0x4) # 1c01c2a0 <n19_jirl_test+0x17b8>
1c01c2a0:	0280302c 	addi.w	$r12,$r1,12(0xc)
1c01c2a4:	0280902d 	addi.w	$r13,$r1,36(0x24)
1c01c2a8:	50001400 	b	20(0x14) # 1c01c2bc <n19_jirl_test+0x17d4>
1c01c2ac:	140d88ca 	lu12i.w	$r10,27718(0x6c46)
1c01c2b0:	02a7e94a 	addi.w	$r10,$r10,-1542(0x9fa)
1c01c2b4:	4c0001a0 	jirl	$r0,$r13,0
1c01c2b8:	50001400 	b	20(0x14) # 1c01c2cc <n19_jirl_test+0x17e4>
1c01c2bc:	4c000180 	jirl	$r0,$r12,0
1c01c2c0:	50000c00 	b	12(0xc) # 1c01c2cc <n19_jirl_test+0x17e4>
1c01c2c4:	142a69eb 	lu12i.w	$r11,86863(0x1534f)
1c01c2c8:	02b1416b 	addi.w	$r11,$r11,-944(0xc50)
1c01c2cc:	140d88dc 	lu12i.w	$r28,27718(0x6c46)
1c01c2d0:	02a7eb9c 	addi.w	$r28,$r28,-1542(0x9fa)
1c01c2d4:	142a69fd 	lu12i.w	$r29,86863(0x1534f)
1c01c2d8:	02b143bd 	addi.w	$r29,$r29,-944(0xc50)
1c01c2dc:	00107801 	add.w	$r1,$r0,$r30
1c01c2e0:	5c03515c 	bne	$r10,$r28,848(0x350) # 1c01c630 <inst_error>
1c01c2e4:	5c034d7d 	bne	$r11,$r29,844(0x34c) # 1c01c630 <inst_error>
1c01c2e8:	0010041e 	add.w	$r30,$r0,$r1
1c01c2ec:	14f1f6d0 	lu12i.w	$r16,495542(0x78fb6)
1c01c2f0:	02b5e210 	addi.w	$r16,$r16,-648(0xd78)
1c01c2f4:	15c93751 	lu12i.w	$r17,-112198(0xe49ba)
1c01c2f8:	02b89231 	addi.w	$r17,$r17,-476(0xe24)
1c01c2fc:	1400000a 	lu12i.w	$r10,0
1c01c300:	1400000b 	lu12i.w	$r11,0
1c01c304:	54000400 	bl	4(0x4) # 1c01c308 <n19_jirl_test+0x1820>
1c01c308:	0280302c 	addi.w	$r12,$r1,12(0xc)
1c01c30c:	0280902d 	addi.w	$r13,$r1,36(0x24)
1c01c310:	50001400 	b	20(0x14) # 1c01c324 <n19_jirl_test+0x183c>
1c01c314:	14f1f6ca 	lu12i.w	$r10,495542(0x78fb6)
1c01c318:	02b5e14a 	addi.w	$r10,$r10,-648(0xd78)
1c01c31c:	4c0001a0 	jirl	$r0,$r13,0
1c01c320:	50001400 	b	20(0x14) # 1c01c334 <n19_jirl_test+0x184c>
1c01c324:	4c000180 	jirl	$r0,$r12,0
1c01c328:	50000c00 	b	12(0xc) # 1c01c334 <n19_jirl_test+0x184c>
1c01c32c:	15c9374b 	lu12i.w	$r11,-112198(0xe49ba)
1c01c330:	02b8916b 	addi.w	$r11,$r11,-476(0xe24)
1c01c334:	14f1f6dc 	lu12i.w	$r28,495542(0x78fb6)
1c01c338:	02b5e39c 	addi.w	$r28,$r28,-648(0xd78)
1c01c33c:	15c9375d 	lu12i.w	$r29,-112198(0xe49ba)
1c01c340:	02b893bd 	addi.w	$r29,$r29,-476(0xe24)
1c01c344:	00107801 	add.w	$r1,$r0,$r30
1c01c348:	5c02e95c 	bne	$r10,$r28,744(0x2e8) # 1c01c630 <inst_error>
1c01c34c:	5c02e57d 	bne	$r11,$r29,740(0x2e4) # 1c01c630 <inst_error>
1c01c350:	0010041e 	add.w	$r30,$r0,$r1
1c01c354:	15031f10 	lu12i.w	$r16,-517896(0x818f8)
1c01c358:	02ab0210 	addi.w	$r16,$r16,-1344(0xac0)
1c01c35c:	140bb651 	lu12i.w	$r17,23986(0x5db2)
1c01c360:	02be4231 	addi.w	$r17,$r17,-112(0xf90)
1c01c364:	1400000a 	lu12i.w	$r10,0
1c01c368:	1400000b 	lu12i.w	$r11,0
1c01c36c:	54000400 	bl	4(0x4) # 1c01c370 <n19_jirl_test+0x1888>
1c01c370:	0280302c 	addi.w	$r12,$r1,12(0xc)
1c01c374:	0280902d 	addi.w	$r13,$r1,36(0x24)
1c01c378:	50001400 	b	20(0x14) # 1c01c38c <n19_jirl_test+0x18a4>
1c01c37c:	15031f0a 	lu12i.w	$r10,-517896(0x818f8)
1c01c380:	02ab014a 	addi.w	$r10,$r10,-1344(0xac0)
1c01c384:	4c0001a0 	jirl	$r0,$r13,0
1c01c388:	50001400 	b	20(0x14) # 1c01c39c <n19_jirl_test+0x18b4>
1c01c38c:	4c000180 	jirl	$r0,$r12,0
1c01c390:	50000c00 	b	12(0xc) # 1c01c39c <n19_jirl_test+0x18b4>
1c01c394:	140bb64b 	lu12i.w	$r11,23986(0x5db2)
1c01c398:	02be416b 	addi.w	$r11,$r11,-112(0xf90)
1c01c39c:	15031f1c 	lu12i.w	$r28,-517896(0x818f8)
1c01c3a0:	02ab039c 	addi.w	$r28,$r28,-1344(0xac0)
1c01c3a4:	140bb65d 	lu12i.w	$r29,23986(0x5db2)
1c01c3a8:	02be43bd 	addi.w	$r29,$r29,-112(0xf90)
1c01c3ac:	00107801 	add.w	$r1,$r0,$r30
1c01c3b0:	5c02815c 	bne	$r10,$r28,640(0x280) # 1c01c630 <inst_error>
1c01c3b4:	5c027d7d 	bne	$r11,$r29,636(0x27c) # 1c01c630 <inst_error>
1c01c3b8:	0010041e 	add.w	$r30,$r0,$r1
1c01c3bc:	15193270 	lu12i.w	$r16,-472685(0x8c993)
1c01c3c0:	02838a10 	addi.w	$r16,$r16,226(0xe2)
1c01c3c4:	1541b2f1 	lu12i.w	$r17,-389737(0xa0d97)
1c01c3c8:	02905a31 	addi.w	$r17,$r17,1046(0x416)
1c01c3cc:	1400000a 	lu12i.w	$r10,0
1c01c3d0:	1400000b 	lu12i.w	$r11,0
1c01c3d4:	54000400 	bl	4(0x4) # 1c01c3d8 <n19_jirl_test+0x18f0>
1c01c3d8:	0280302c 	addi.w	$r12,$r1,12(0xc)
1c01c3dc:	0280902d 	addi.w	$r13,$r1,36(0x24)
1c01c3e0:	50001400 	b	20(0x14) # 1c01c3f4 <n19_jirl_test+0x190c>
1c01c3e4:	1519326a 	lu12i.w	$r10,-472685(0x8c993)
1c01c3e8:	0283894a 	addi.w	$r10,$r10,226(0xe2)
1c01c3ec:	4c0001a0 	jirl	$r0,$r13,0
1c01c3f0:	50001400 	b	20(0x14) # 1c01c404 <n19_jirl_test+0x191c>
1c01c3f4:	4c000180 	jirl	$r0,$r12,0
1c01c3f8:	50000c00 	b	12(0xc) # 1c01c404 <n19_jirl_test+0x191c>
1c01c3fc:	1541b2eb 	lu12i.w	$r11,-389737(0xa0d97)
1c01c400:	0290596b 	addi.w	$r11,$r11,1046(0x416)
1c01c404:	1519327c 	lu12i.w	$r28,-472685(0x8c993)
1c01c408:	02838b9c 	addi.w	$r28,$r28,226(0xe2)
1c01c40c:	1541b2fd 	lu12i.w	$r29,-389737(0xa0d97)
1c01c410:	02905bbd 	addi.w	$r29,$r29,1046(0x416)
1c01c414:	00107801 	add.w	$r1,$r0,$r30
1c01c418:	5c02195c 	bne	$r10,$r28,536(0x218) # 1c01c630 <inst_error>
1c01c41c:	5c02157d 	bne	$r11,$r29,532(0x214) # 1c01c630 <inst_error>
1c01c420:	0010041e 	add.w	$r30,$r0,$r1
1c01c424:	154fe210 	lu12i.w	$r16,-360688(0xa7f10)
1c01c428:	02a08a10 	addi.w	$r16,$r16,-2014(0x822)
1c01c42c:	15116e71 	lu12i.w	$r17,-488589(0x88b73)
1c01c430:	02b90a31 	addi.w	$r17,$r17,-446(0xe42)
1c01c434:	1400000a 	lu12i.w	$r10,0
1c01c438:	1400000b 	lu12i.w	$r11,0
1c01c43c:	54000400 	bl	4(0x4) # 1c01c440 <n19_jirl_test+0x1958>
1c01c440:	0280302c 	addi.w	$r12,$r1,12(0xc)
1c01c444:	0280902d 	addi.w	$r13,$r1,36(0x24)
1c01c448:	50001400 	b	20(0x14) # 1c01c45c <n19_jirl_test+0x1974>
1c01c44c:	154fe20a 	lu12i.w	$r10,-360688(0xa7f10)
1c01c450:	02a0894a 	addi.w	$r10,$r10,-2014(0x822)
1c01c454:	4c0001a0 	jirl	$r0,$r13,0
1c01c458:	50001400 	b	20(0x14) # 1c01c46c <n19_jirl_test+0x1984>
1c01c45c:	4c000180 	jirl	$r0,$r12,0
1c01c460:	50000c00 	b	12(0xc) # 1c01c46c <n19_jirl_test+0x1984>
1c01c464:	15116e6b 	lu12i.w	$r11,-488589(0x88b73)
1c01c468:	02b9096b 	addi.w	$r11,$r11,-446(0xe42)
1c01c46c:	154fe21c 	lu12i.w	$r28,-360688(0xa7f10)
1c01c470:	02a08b9c 	addi.w	$r28,$r28,-2014(0x822)
1c01c474:	15116e7d 	lu12i.w	$r29,-488589(0x88b73)
1c01c478:	02b90bbd 	addi.w	$r29,$r29,-446(0xe42)
1c01c47c:	00107801 	add.w	$r1,$r0,$r30
1c01c480:	5c01b15c 	bne	$r10,$r28,432(0x1b0) # 1c01c630 <inst_error>
1c01c484:	5c01ad7d 	bne	$r11,$r29,428(0x1ac) # 1c01c630 <inst_error>
1c01c488:	0010041e 	add.w	$r30,$r0,$r1
1c01c48c:	145596b0 	lu12i.w	$r16,175285(0x2acb5)
1c01c490:	02810210 	addi.w	$r16,$r16,64(0x40)
1c01c494:	14d2c751 	lu12i.w	$r17,431674(0x6963a)
1c01c498:	02906231 	addi.w	$r17,$r17,1048(0x418)
1c01c49c:	1400000a 	lu12i.w	$r10,0
1c01c4a0:	1400000b 	lu12i.w	$r11,0
1c01c4a4:	54000400 	bl	4(0x4) # 1c01c4a8 <n19_jirl_test+0x19c0>
1c01c4a8:	0280302c 	addi.w	$r12,$r1,12(0xc)
1c01c4ac:	0280902d 	addi.w	$r13,$r1,36(0x24)
1c01c4b0:	50001400 	b	20(0x14) # 1c01c4c4 <n19_jirl_test+0x19dc>
1c01c4b4:	145596aa 	lu12i.w	$r10,175285(0x2acb5)
1c01c4b8:	0281014a 	addi.w	$r10,$r10,64(0x40)
1c01c4bc:	4c0001a0 	jirl	$r0,$r13,0
1c01c4c0:	50001400 	b	20(0x14) # 1c01c4d4 <n19_jirl_test+0x19ec>
1c01c4c4:	4c000180 	jirl	$r0,$r12,0
1c01c4c8:	50000c00 	b	12(0xc) # 1c01c4d4 <n19_jirl_test+0x19ec>
1c01c4cc:	14d2c74b 	lu12i.w	$r11,431674(0x6963a)
1c01c4d0:	0290616b 	addi.w	$r11,$r11,1048(0x418)
1c01c4d4:	145596bc 	lu12i.w	$r28,175285(0x2acb5)
1c01c4d8:	0281039c 	addi.w	$r28,$r28,64(0x40)
1c01c4dc:	14d2c75d 	lu12i.w	$r29,431674(0x6963a)
1c01c4e0:	029063bd 	addi.w	$r29,$r29,1048(0x418)
1c01c4e4:	00107801 	add.w	$r1,$r0,$r30
1c01c4e8:	5c01495c 	bne	$r10,$r28,328(0x148) # 1c01c630 <inst_error>
1c01c4ec:	5c01457d 	bne	$r11,$r29,324(0x144) # 1c01c630 <inst_error>
1c01c4f0:	0010041e 	add.w	$r30,$r0,$r1
1c01c4f4:	156b0dd0 	lu12i.w	$r16,-305042(0xb586e)
1c01c4f8:	029ec210 	addi.w	$r16,$r16,1968(0x7b0)
1c01c4fc:	15cfb891 	lu12i.w	$r17,-98876(0xe7dc4)
1c01c500:	0288a231 	addi.w	$r17,$r17,552(0x228)
1c01c504:	1400000a 	lu12i.w	$r10,0
1c01c508:	1400000b 	lu12i.w	$r11,0
1c01c50c:	54000400 	bl	4(0x4) # 1c01c510 <n19_jirl_test+0x1a28>
1c01c510:	0280302c 	addi.w	$r12,$r1,12(0xc)
1c01c514:	0280902d 	addi.w	$r13,$r1,36(0x24)
1c01c518:	50001400 	b	20(0x14) # 1c01c52c <n19_jirl_test+0x1a44>
1c01c51c:	156b0dca 	lu12i.w	$r10,-305042(0xb586e)
1c01c520:	029ec14a 	addi.w	$r10,$r10,1968(0x7b0)
1c01c524:	4c0001a0 	jirl	$r0,$r13,0
1c01c528:	50001400 	b	20(0x14) # 1c01c53c <n19_jirl_test+0x1a54>
1c01c52c:	4c000180 	jirl	$r0,$r12,0
1c01c530:	50000c00 	b	12(0xc) # 1c01c53c <n19_jirl_test+0x1a54>
1c01c534:	15cfb88b 	lu12i.w	$r11,-98876(0xe7dc4)
1c01c538:	0288a16b 	addi.w	$r11,$r11,552(0x228)
1c01c53c:	156b0ddc 	lu12i.w	$r28,-305042(0xb586e)
1c01c540:	029ec39c 	addi.w	$r28,$r28,1968(0x7b0)
1c01c544:	15cfb89d 	lu12i.w	$r29,-98876(0xe7dc4)
1c01c548:	0288a3bd 	addi.w	$r29,$r29,552(0x228)
1c01c54c:	00107801 	add.w	$r1,$r0,$r30
1c01c550:	5c00e15c 	bne	$r10,$r28,224(0xe0) # 1c01c630 <inst_error>
1c01c554:	5c00dd7d 	bne	$r11,$r29,220(0xdc) # 1c01c630 <inst_error>
1c01c558:	0010041e 	add.w	$r30,$r0,$r1
1c01c55c:	14e4f850 	lu12i.w	$r16,468930(0x727c2)
1c01c560:	0298fa10 	addi.w	$r16,$r16,1598(0x63e)
1c01c564:	14ddabf1 	lu12i.w	$r17,453983(0x6ed5f)
1c01c568:	029dd231 	addi.w	$r17,$r17,1908(0x774)
1c01c56c:	1400000a 	lu12i.w	$r10,0
1c01c570:	1400000b 	lu12i.w	$r11,0
1c01c574:	54000400 	bl	4(0x4) # 1c01c578 <n19_jirl_test+0x1a90>
1c01c578:	0280302c 	addi.w	$r12,$r1,12(0xc)
1c01c57c:	0280902d 	addi.w	$r13,$r1,36(0x24)
1c01c580:	50001400 	b	20(0x14) # 1c01c594 <n19_jirl_test+0x1aac>
1c01c584:	14e4f84a 	lu12i.w	$r10,468930(0x727c2)
1c01c588:	0298f94a 	addi.w	$r10,$r10,1598(0x63e)
1c01c58c:	4c0001a0 	jirl	$r0,$r13,0
1c01c590:	50001400 	b	20(0x14) # 1c01c5a4 <n19_jirl_test+0x1abc>
1c01c594:	4c000180 	jirl	$r0,$r12,0
1c01c598:	50000c00 	b	12(0xc) # 1c01c5a4 <n19_jirl_test+0x1abc>
1c01c59c:	14ddabeb 	lu12i.w	$r11,453983(0x6ed5f)
1c01c5a0:	029dd16b 	addi.w	$r11,$r11,1908(0x774)
1c01c5a4:	14e4f85c 	lu12i.w	$r28,468930(0x727c2)
1c01c5a8:	0298fb9c 	addi.w	$r28,$r28,1598(0x63e)
1c01c5ac:	14ddabfd 	lu12i.w	$r29,453983(0x6ed5f)
1c01c5b0:	029dd3bd 	addi.w	$r29,$r29,1908(0x774)
1c01c5b4:	00107801 	add.w	$r1,$r0,$r30
1c01c5b8:	5c00795c 	bne	$r10,$r28,120(0x78) # 1c01c630 <inst_error>
1c01c5bc:	5c00757d 	bne	$r11,$r29,116(0x74) # 1c01c630 <inst_error>
1c01c5c0:	0010041e 	add.w	$r30,$r0,$r1
1c01c5c4:	150e2a50 	lu12i.w	$r16,-495278(0x87152)
1c01c5c8:	02a61210 	addi.w	$r16,$r16,-1660(0x984)
1c01c5cc:	14703fb1 	lu12i.w	$r17,229885(0x381fd)
1c01c5d0:	029dc231 	addi.w	$r17,$r17,1904(0x770)
1c01c5d4:	1400000a 	lu12i.w	$r10,0
1c01c5d8:	1400000b 	lu12i.w	$r11,0
1c01c5dc:	54000400 	bl	4(0x4) # 1c01c5e0 <n19_jirl_test+0x1af8>
1c01c5e0:	0280302c 	addi.w	$r12,$r1,12(0xc)
1c01c5e4:	0280902d 	addi.w	$r13,$r1,36(0x24)
1c01c5e8:	50001400 	b	20(0x14) # 1c01c5fc <n19_jirl_test+0x1b14>
1c01c5ec:	150e2a4a 	lu12i.w	$r10,-495278(0x87152)
1c01c5f0:	02a6114a 	addi.w	$r10,$r10,-1660(0x984)
1c01c5f4:	4c0001a0 	jirl	$r0,$r13,0
1c01c5f8:	50001400 	b	20(0x14) # 1c01c60c <n19_jirl_test+0x1b24>
1c01c5fc:	4c000180 	jirl	$r0,$r12,0
1c01c600:	50000c00 	b	12(0xc) # 1c01c60c <n19_jirl_test+0x1b24>
1c01c604:	14703fab 	lu12i.w	$r11,229885(0x381fd)
1c01c608:	029dc16b 	addi.w	$r11,$r11,1904(0x770)
1c01c60c:	150e2a5c 	lu12i.w	$r28,-495278(0x87152)
1c01c610:	02a6139c 	addi.w	$r28,$r28,-1660(0x984)
1c01c614:	14703fbd 	lu12i.w	$r29,229885(0x381fd)
1c01c618:	029dc3bd 	addi.w	$r29,$r29,1904(0x770)
1c01c61c:	00107801 	add.w	$r1,$r0,$r30
1c01c620:	5c00115c 	bne	$r10,$r28,16(0x10) # 1c01c630 <inst_error>
1c01c624:	5c000d7d 	bne	$r11,$r29,12(0xc) # 1c01c630 <inst_error>
1c01c628:	5c000b20 	bne	$r25,$r0,8(0x8) # 1c01c630 <inst_error>
1c01c62c:	0280075a 	addi.w	$r26,$r26,1(0x1)

1c01c630 <inst_error>:
1c01c630:	0040e2ed 	slli.w	$r13,$r23,0x18
1c01c634:	001569ac 	or	$r12,$r13,$r26
1c01c638:	2980030c 	st.w	$r12,$r24,0
1c01c63c:	4c000020 	jirl	$r0,$r1,0

1c01c640 <n3_addi_w_test>:
n3_addi_w_test():
1c01c640:	028006f7 	addi.w	$r23,$r23,1(0x1)
1c01c644:	00150019 	move	$r25,$r0
1c01c648:	15f64c8c 	lu12i.w	$r12,-19868(0xfb264)
1c01c64c:	02b4418c 	addi.w	$r12,$r12,-752(0xd10)
1c01c650:	15f64c8b 	lu12i.w	$r11,-19868(0xfb264)
1c01c654:	02a6996b 	addi.w	$r11,$r11,-1626(0x9a6)
1c01c658:	02b2598a 	addi.w	$r10,$r12,-874(0xc96)
1c01c65c:	5c063d4b 	bne	$r10,$r11,1596(0x63c) # 1c01cc98 <inst_error>
1c01c660:	14fd820c 	lu12i.w	$r12,519184(0x7ec10)
1c01c664:	0294e18c 	addi.w	$r12,$r12,1336(0x538)
1c01c668:	14fd820b 	lu12i.w	$r11,519184(0x7ec10)
1c01c66c:	02bb396b 	addi.w	$r11,$r11,-306(0xece)
1c01c670:	02a6598a 	addi.w	$r10,$r12,-1642(0x996)
1c01c674:	5c06254b 	bne	$r10,$r11,1572(0x624) # 1c01cc98 <inst_error>
1c01c678:	141ca0cc 	lu12i.w	$r12,58630(0xe506)
1c01c67c:	02a8018c 	addi.w	$r12,$r12,-1536(0xa00)
1c01c680:	141ca0cb 	lu12i.w	$r11,58630(0xe506)
1c01c684:	0284616b 	addi.w	$r11,$r11,280(0x118)
1c01c688:	029c618a 	addi.w	$r10,$r12,1816(0x718)
1c01c68c:	5c060d4b 	bne	$r10,$r11,1548(0x60c) # 1c01cc98 <inst_error>
1c01c690:	154a458c 	lu12i.w	$r12,-372180(0xa522c)
1c01c694:	02a75d8c 	addi.w	$r12,$r12,-1577(0x9d7)
1c01c698:	154a458b 	lu12i.w	$r11,-372180(0xa522c)
1c01c69c:	02856d6b 	addi.w	$r11,$r11,347(0x15b)
1c01c6a0:	029e118a 	addi.w	$r10,$r12,1924(0x784)
1c01c6a4:	5c05f54b 	bne	$r10,$r11,1524(0x5f4) # 1c01cc98 <inst_error>
1c01c6a8:	15368bac 	lu12i.w	$r12,-412579(0x9b45d)
1c01c6ac:	029f018c 	addi.w	$r12,$r12,1984(0x7c0)
1c01c6b0:	15368bcb 	lu12i.w	$r11,-412578(0x9b45e)
1c01c6b4:	02ba496b 	addi.w	$r11,$r11,-366(0xe92)
1c01c6b8:	029b498a 	addi.w	$r10,$r12,1746(0x6d2)
1c01c6bc:	5c05dd4b 	bne	$r10,$r11,1500(0x5dc) # 1c01cc98 <inst_error>
1c01c6c0:	15498cac 	lu12i.w	$r12,-373659(0xa4c65)
1c01c6c4:	0296e18c 	addi.w	$r12,$r12,1464(0x5b8)
1c01c6c8:	15498cab 	lu12i.w	$r11,-373659(0xa4c65)
1c01c6cc:	0288696b 	addi.w	$r11,$r11,538(0x21a)
1c01c6d0:	02b1898a 	addi.w	$r10,$r12,-926(0xc62)
1c01c6d4:	5c05c54b 	bne	$r10,$r11,1476(0x5c4) # 1c01cc98 <inst_error>
1c01c6d8:	154a56ec 	lu12i.w	$r12,-372041(0xa52b7)
1c01c6dc:	02a5e98c 	addi.w	$r12,$r12,-1670(0x97a)
1c01c6e0:	154a56eb 	lu12i.w	$r11,-372041(0xa52b7)
1c01c6e4:	02ab4d6b 	addi.w	$r11,$r11,-1325(0xad3)
1c01c6e8:	0285658a 	addi.w	$r10,$r12,345(0x159)
1c01c6ec:	5c05ad4b 	bne	$r10,$r11,1452(0x5ac) # 1c01cc98 <inst_error>
1c01c6f0:	15b9904c 	lu12i.w	$r12,-144254(0xdcc82)
1c01c6f4:	0299998c 	addi.w	$r12,$r12,1638(0x666)
1c01c6f8:	15b9906b 	lu12i.w	$r11,-144253(0xdcc83)
1c01c6fc:	02b7056b 	addi.w	$r11,$r11,-575(0xdc1)
1c01c700:	029d6d8a 	addi.w	$r10,$r12,1883(0x75b)
1c01c704:	5c05954b 	bne	$r10,$r11,1428(0x594) # 1c01cc98 <inst_error>
1c01c708:	1556494c 	lu12i.w	$r12,-347574(0xab24a)
1c01c70c:	028f0d8c 	addi.w	$r12,$r12,963(0x3c3)
1c01c710:	1556494b 	lu12i.w	$r11,-347574(0xab24a)
1c01c714:	02bb496b 	addi.w	$r11,$r11,-302(0xed2)
1c01c718:	02ac3d8a 	addi.w	$r10,$r12,-1265(0xb0f)
1c01c71c:	5c057d4b 	bne	$r10,$r11,1404(0x57c) # 1c01cc98 <inst_error>
1c01c720:	15b6ca0c 	lu12i.w	$r12,-149936(0xdb650)
1c01c724:	0298118c 	addi.w	$r12,$r12,1540(0x604)
1c01c728:	15b6ca0b 	lu12i.w	$r11,-149936(0xdb650)
1c01c72c:	02bfcd6b 	addi.w	$r11,$r11,-13(0xff3)
1c01c730:	02a7bd8a 	addi.w	$r10,$r12,-1553(0x9ef)
1c01c734:	5c05654b 	bne	$r10,$r11,1380(0x564) # 1c01cc98 <inst_error>
1c01c738:	14f460ac 	lu12i.w	$r12,500485(0x7a305)
1c01c73c:	028e018c 	addi.w	$r12,$r12,896(0x380)
1c01c740:	14f460ab 	lu12i.w	$r11,500485(0x7a305)
1c01c744:	02b3d16b 	addi.w	$r11,$r11,-780(0xcf4)
1c01c748:	02a5d18a 	addi.w	$r10,$r12,-1676(0x974)
1c01c74c:	5c054d4b 	bne	$r10,$r11,1356(0x54c) # 1c01cc98 <inst_error>
1c01c750:	14d75fec 	lu12i.w	$r12,441087(0x6baff)
1c01c754:	02b4618c 	addi.w	$r12,$r12,-744(0xd18)
1c01c758:	14d75feb 	lu12i.w	$r11,441087(0x6baff)
1c01c75c:	0282d96b 	addi.w	$r11,$r11,182(0xb6)
1c01c760:	028e798a 	addi.w	$r10,$r12,926(0x39e)
1c01c764:	5c05354b 	bne	$r10,$r11,1332(0x534) # 1c01cc98 <inst_error>
1c01c768:	14edbc4c 	lu12i.w	$r12,486882(0x76de2)
1c01c76c:	02af418c 	addi.w	$r12,$r12,-1072(0xbd0)
1c01c770:	14edbc4b 	lu12i.w	$r11,486882(0x76de2)
1c01c774:	02b8b56b 	addi.w	$r11,$r11,-467(0xe2d)
1c01c778:	0289758a 	addi.w	$r10,$r12,605(0x25d)
1c01c77c:	5c051d4b 	bne	$r10,$r11,1308(0x51c) # 1c01cc98 <inst_error>
1c01c780:	158661ac 	lu12i.w	$r12,-249075(0xc330d)
1c01c784:	0289a18c 	addi.w	$r12,$r12,616(0x268)
1c01c788:	158661ab 	lu12i.w	$r11,-249075(0xc330d)
1c01c78c:	02ade96b 	addi.w	$r11,$r11,-1158(0xb7a)
1c01c790:	02a4498a 	addi.w	$r10,$r12,-1774(0x912)
1c01c794:	5c05054b 	bne	$r10,$r11,1284(0x504) # 1c01cc98 <inst_error>
1c01c798:	145a4e0c 	lu12i.w	$r12,184944(0x2d270)
1c01c79c:	0287c58c 	addi.w	$r12,$r12,497(0x1f1)
1c01c7a0:	145a4e0b 	lu12i.w	$r11,184944(0x2d270)
1c01c7a4:	028b816b 	addi.w	$r11,$r11,736(0x2e0)
1c01c7a8:	0283bd8a 	addi.w	$r10,$r12,239(0xef)
1c01c7ac:	5c04ed4b 	bne	$r10,$r11,1260(0x4ec) # 1c01cc98 <inst_error>
1c01c7b0:	14a8a94c 	lu12i.w	$r12,345418(0x5454a)
1c01c7b4:	02a4298c 	addi.w	$r12,$r12,-1782(0x90a)
1c01c7b8:	14a8a94b 	lu12i.w	$r11,345418(0x5454a)
1c01c7bc:	02820d6b 	addi.w	$r11,$r11,131(0x83)
1c01c7c0:	029de58a 	addi.w	$r10,$r12,1913(0x779)
1c01c7c4:	5c04d54b 	bne	$r10,$r11,1236(0x4d4) # 1c01cc98 <inst_error>
1c01c7c8:	144371ac 	lu12i.w	$r12,138125(0x21b8d)
1c01c7cc:	02bc018c 	addi.w	$r12,$r12,-256(0xf00)
1c01c7d0:	1443718b 	lu12i.w	$r11,138124(0x21b8c)
1c01c7d4:	029fe16b 	addi.w	$r11,$r11,2040(0x7f8)
1c01c7d8:	02a3e18a 	addi.w	$r10,$r12,-1800(0x8f8)
1c01c7dc:	5c04bd4b 	bne	$r10,$r11,1212(0x4bc) # 1c01cc98 <inst_error>
1c01c7e0:	1489c64c 	lu12i.w	$r12,282162(0x44e32)
1c01c7e4:	02bc498c 	addi.w	$r12,$r12,-238(0xf12)
1c01c7e8:	1489c64b 	lu12i.w	$r11,282162(0x44e32)
1c01c7ec:	028a496b 	addi.w	$r11,$r11,658(0x292)
1c01c7f0:	028e018a 	addi.w	$r10,$r12,896(0x380)
1c01c7f4:	5c04a54b 	bne	$r10,$r11,1188(0x4a4) # 1c01cc98 <inst_error>
1c01c7f8:	1481f20c 	lu12i.w	$r12,266128(0x40f90)
1c01c7fc:	02a3e18c 	addi.w	$r12,$r12,-1800(0x8f8)
1c01c800:	1481f20b 	lu12i.w	$r11,266128(0x40f90)
1c01c804:	0282a16b 	addi.w	$r11,$r11,168(0xa8)
1c01c808:	029ec18a 	addi.w	$r10,$r12,1968(0x7b0)
1c01c80c:	5c048d4b 	bne	$r10,$r11,1164(0x48c) # 1c01cc98 <inst_error>
1c01c810:	15aa00ec 	lu12i.w	$r12,-176121(0xd5007)
1c01c814:	028f418c 	addi.w	$r12,$r12,976(0x3d0)
1c01c818:	15aa00eb 	lu12i.w	$r11,-176121(0xd5007)
1c01c81c:	029b1d6b 	addi.w	$r11,$r11,1735(0x6c7)
1c01c820:	028bdd8a 	addi.w	$r10,$r12,759(0x2f7)
1c01c824:	5c04754b 	bne	$r10,$r11,1140(0x474) # 1c01cc98 <inst_error>
1c01c828:	14a44dcc 	lu12i.w	$r12,336494(0x5226e)
1c01c82c:	0286c18c 	addi.w	$r12,$r12,432(0x1b0)
1c01c830:	14a44dcb 	lu12i.w	$r11,336494(0x5226e)
1c01c834:	029b316b 	addi.w	$r11,$r11,1740(0x6cc)
1c01c838:	0294718a 	addi.w	$r10,$r12,1308(0x51c)
1c01c83c:	5c045d4b 	bne	$r10,$r11,1116(0x45c) # 1c01cc98 <inst_error>
1c01c840:	144a290c 	lu12i.w	$r12,151880(0x25148)
1c01c844:	029a018c 	addi.w	$r12,$r12,1664(0x680)
1c01c848:	144a290b 	lu12i.w	$r11,151880(0x25148)
1c01c84c:	028f016b 	addi.w	$r11,$r11,960(0x3c0)
1c01c850:	02b5018a 	addi.w	$r10,$r12,-704(0xd40)
1c01c854:	5c04454b 	bne	$r10,$r11,1092(0x444) # 1c01cc98 <inst_error>
1c01c858:	155faacc 	lu12i.w	$r12,-328362(0xafd56)
1c01c85c:	02a8d58c 	addi.w	$r12,$r12,-1483(0xa35)
1c01c860:	155faacb 	lu12i.w	$r11,-328362(0xafd56)
1c01c864:	02a1c56b 	addi.w	$r11,$r11,-1935(0x871)
1c01c868:	02b8f18a 	addi.w	$r10,$r12,-452(0xe3c)
1c01c86c:	5c042d4b 	bne	$r10,$r11,1068(0x42c) # 1c01cc98 <inst_error>
1c01c870:	15f5736c 	lu12i.w	$r12,-21605(0xfab9b)
1c01c874:	029afd8c 	addi.w	$r12,$r12,1727(0x6bf)
1c01c878:	15f5738b 	lu12i.w	$r11,-21604(0xfab9c)
1c01c87c:	02b22d6b 	addi.w	$r11,$r11,-885(0xc8b)
1c01c880:	0297318a 	addi.w	$r10,$r12,1484(0x5cc)
1c01c884:	5c04154b 	bne	$r10,$r11,1044(0x414) # 1c01cc98 <inst_error>
1c01c888:	155681cc 	lu12i.w	$r12,-347122(0xab40e)
1c01c88c:	0290018c 	addi.w	$r12,$r12,1024(0x400)
1c01c890:	155681cb 	lu12i.w	$r11,-347122(0xab40e)
1c01c894:	029ee16b 	addi.w	$r11,$r11,1976(0x7b8)
1c01c898:	028ee18a 	addi.w	$r10,$r12,952(0x3b8)
1c01c89c:	5c03fd4b 	bne	$r10,$r11,1020(0x3fc) # 1c01cc98 <inst_error>
1c01c8a0:	147dd0ec 	lu12i.w	$r12,257671(0x3ee87)
1c01c8a4:	028e018c 	addi.w	$r12,$r12,896(0x380)
1c01c8a8:	147dd0eb 	lu12i.w	$r11,257671(0x3ee87)
1c01c8ac:	02b0996b 	addi.w	$r11,$r11,-986(0xc26)
1c01c8b0:	02a2998a 	addi.w	$r10,$r12,-1882(0x8a6)
1c01c8b4:	5c03e54b 	bne	$r10,$r11,996(0x3e4) # 1c01cc98 <inst_error>
1c01c8b8:	145617ec 	lu12i.w	$r12,176319(0x2b0bf)
1c01c8bc:	0286e98c 	addi.w	$r12,$r12,442(0x1ba)
1c01c8c0:	145617eb 	lu12i.w	$r11,176319(0x2b0bf)
1c01c8c4:	02baa96b 	addi.w	$r11,$r11,-342(0xeaa)
1c01c8c8:	02b3c18a 	addi.w	$r10,$r12,-784(0xcf0)
1c01c8cc:	5c03cd4b 	bne	$r10,$r11,972(0x3cc) # 1c01cc98 <inst_error>
1c01c8d0:	14056b6c 	lu12i.w	$r12,11099(0x2b5b)
1c01c8d4:	0298818c 	addi.w	$r12,$r12,1568(0x620)
1c01c8d8:	14056b8b 	lu12i.w	$r11,11100(0x2b5c)
1c01c8dc:	02b1ad6b 	addi.w	$r11,$r11,-917(0xc6b)
1c01c8e0:	02992d8a 	addi.w	$r10,$r12,1611(0x64b)
1c01c8e4:	5c03b54b 	bne	$r10,$r11,948(0x3b4) # 1c01cc98 <inst_error>
1c01c8e8:	15cc3bec 	lu12i.w	$r12,-106017(0xe61df)
1c01c8ec:	0295e98c 	addi.w	$r12,$r12,1402(0x57a)
1c01c8f0:	15cc3beb 	lu12i.w	$r11,-106017(0xe61df)
1c01c8f4:	0297896b 	addi.w	$r11,$r11,1506(0x5e2)
1c01c8f8:	0281a18a 	addi.w	$r10,$r12,104(0x68)
1c01c8fc:	5c039d4b 	bne	$r10,$r11,924(0x39c) # 1c01cc98 <inst_error>
1c01c900:	15325f4c 	lu12i.w	$r12,-421126(0x992fa)
1c01c904:	02a0b18c 	addi.w	$r12,$r12,-2004(0x82c)
1c01c908:	15325f4b 	lu12i.w	$r11,-421126(0x992fa)
1c01c90c:	02a7d16b 	addi.w	$r11,$r11,-1548(0x9f4)
1c01c910:	0287218a 	addi.w	$r10,$r12,456(0x1c8)
1c01c914:	5c03854b 	bne	$r10,$r11,900(0x384) # 1c01cc98 <inst_error>
1c01c918:	143275cc 	lu12i.w	$r12,103342(0x193ae)
1c01c91c:	0291e18c 	addi.w	$r12,$r12,1144(0x478)
1c01c920:	143275eb 	lu12i.w	$r11,103343(0x193af)
1c01c924:	02aead6b 	addi.w	$r11,$r11,-1109(0xbab)
1c01c928:	029ccd8a 	addi.w	$r10,$r12,1843(0x733)
1c01c92c:	5c036d4b 	bne	$r10,$r11,876(0x36c) # 1c01cc98 <inst_error>
1c01c930:	156eaaac 	lu12i.w	$r12,-297643(0xb7555)
1c01c934:	02a9c18c 	addi.w	$r12,$r12,-1424(0xa70)
1c01c938:	156eaaab 	lu12i.w	$r11,-297643(0xb7555)
1c01c93c:	0282a96b 	addi.w	$r11,$r11,170(0xaa)
1c01c940:	0298e98a 	addi.w	$r10,$r12,1594(0x63a)
1c01c944:	5c03554b 	bne	$r10,$r11,852(0x354) # 1c01cc98 <inst_error>
1c01c948:	15ccc8ac 	lu12i.w	$r12,-104891(0xe6645)
1c01c94c:	02be818c 	addi.w	$r12,$r12,-96(0xfa0)
1c01c950:	15ccc8ab 	lu12i.w	$r11,-104891(0xe6645)
1c01c954:	02bc616b 	addi.w	$r11,$r11,-232(0xf18)
1c01c958:	02bde18a 	addi.w	$r10,$r12,-136(0xf78)
1c01c95c:	5c033d4b 	bne	$r10,$r11,828(0x33c) # 1c01cc98 <inst_error>
1c01c960:	15bdfe2c 	lu12i.w	$r12,-135183(0xdeff1)
1c01c964:	028f518c 	addi.w	$r12,$r12,980(0x3d4)
1c01c968:	15bdfe2b 	lu12i.w	$r11,-135183(0xdeff1)
1c01c96c:	02866d6b 	addi.w	$r11,$r11,411(0x19b)
1c01c970:	02b71d8a 	addi.w	$r10,$r12,-569(0xdc7)
1c01c974:	5c03254b 	bne	$r10,$r11,804(0x324) # 1c01cc98 <inst_error>
1c01c978:	14b80e0c 	lu12i.w	$r12,376944(0x5c070)
1c01c97c:	028df18c 	addi.w	$r12,$r12,892(0x37c)
1c01c980:	14b80e0b 	lu12i.w	$r11,376944(0x5c070)
1c01c984:	0287496b 	addi.w	$r11,$r11,466(0x1d2)
1c01c988:	02b9598a 	addi.w	$r10,$r12,-426(0xe56)
1c01c98c:	5c030d4b 	bne	$r10,$r11,780(0x30c) # 1c01cc98 <inst_error>
1c01c990:	1580d8ac 	lu12i.w	$r12,-260411(0xc06c5)
1c01c994:	0293c18c 	addi.w	$r12,$r12,1264(0x4f0)
1c01c998:	1580d8ab 	lu12i.w	$r11,-260411(0xc06c5)
1c01c99c:	029e816b 	addi.w	$r11,$r11,1952(0x7a0)
1c01c9a0:	028ac18a 	addi.w	$r10,$r12,688(0x2b0)
1c01c9a4:	5c02f54b 	bne	$r10,$r11,756(0x2f4) # 1c01cc98 <inst_error>
1c01c9a8:	15ebed4c 	lu12i.w	$r12,-41110(0xf5f6a)
1c01c9ac:	028c718c 	addi.w	$r12,$r12,796(0x31c)
1c01c9b0:	15ebed6b 	lu12i.w	$r11,-41109(0xf5f6b)
1c01c9b4:	02a8716b 	addi.w	$r11,$r11,-1508(0xa1c)
1c01c9b8:	029c018a 	addi.w	$r10,$r12,1792(0x700)
1c01c9bc:	5c02dd4b 	bne	$r10,$r11,732(0x2dc) # 1c01cc98 <inst_error>
1c01c9c0:	151b412c 	lu12i.w	$r12,-468471(0x8da09)
1c01c9c4:	02b5918c 	addi.w	$r12,$r12,-668(0xd64)
1c01c9c8:	151b412b 	lu12i.w	$r11,-468471(0x8da09)
1c01c9cc:	0281a16b 	addi.w	$r11,$r11,104(0x68)
1c01c9d0:	028c118a 	addi.w	$r10,$r12,772(0x304)
1c01c9d4:	5c02c54b 	bne	$r10,$r11,708(0x2c4) # 1c01cc98 <inst_error>
1c01c9d8:	145e730c 	lu12i.w	$r12,193432(0x2f398)
1c01c9dc:	028cc18c 	addi.w	$r12,$r12,816(0x330)
1c01c9e0:	145e732b 	lu12i.w	$r11,193433(0x2f399)
1c01c9e4:	02a6c16b 	addi.w	$r11,$r11,-1616(0x9b0)
1c01c9e8:	029a018a 	addi.w	$r10,$r12,1664(0x680)
1c01c9ec:	5c02ad4b 	bne	$r10,$r11,684(0x2ac) # 1c01cc98 <inst_error>
1c01c9f0:	142d68ac 	lu12i.w	$r12,92997(0x16b45)
1c01c9f4:	02b5b98c 	addi.w	$r12,$r12,-658(0xd6e)
1c01c9f8:	142d68ab 	lu12i.w	$r11,92997(0x16b45)
1c01c9fc:	02ab196b 	addi.w	$r11,$r11,-1338(0xac6)
1c01ca00:	02b5618a 	addi.w	$r10,$r12,-680(0xd58)
1c01ca04:	5c02954b 	bne	$r10,$r11,660(0x294) # 1c01cc98 <inst_error>
1c01ca08:	154f3f0c 	lu12i.w	$r12,-361992(0xa79f8)
1c01ca0c:	029ec98c 	addi.w	$r12,$r12,1970(0x7b2)
1c01ca10:	154f3f2b 	lu12i.w	$r11,-361991(0xa79f9)
1c01ca14:	02a5056b 	addi.w	$r11,$r11,-1727(0x941)
1c01ca18:	02863d8a 	addi.w	$r10,$r12,399(0x18f)
1c01ca1c:	5c027d4b 	bne	$r10,$r11,636(0x27c) # 1c01cc98 <inst_error>
1c01ca20:	14a5506c 	lu12i.w	$r12,338563(0x52a83)
1c01ca24:	029a698c 	addi.w	$r12,$r12,1690(0x69a)
1c01ca28:	14a5508b 	lu12i.w	$r11,338564(0x52a84)
1c01ca2c:	02b4e96b 	addi.w	$r11,$r11,-710(0xd3a)
1c01ca30:	029a818a 	addi.w	$r10,$r12,1696(0x6a0)
1c01ca34:	5c02654b 	bne	$r10,$r11,612(0x264) # 1c01cc98 <inst_error>
1c01ca38:	143181ec 	lu12i.w	$r12,101391(0x18c0f)
1c01ca3c:	0280398c 	addi.w	$r12,$r12,14(0xe)
1c01ca40:	143181eb 	lu12i.w	$r11,101391(0x18c0f)
1c01ca44:	02be716b 	addi.w	$r11,$r11,-100(0xf9c)
1c01ca48:	02be398a 	addi.w	$r10,$r12,-114(0xf8e)
1c01ca4c:	5c024d4b 	bne	$r10,$r11,588(0x24c) # 1c01cc98 <inst_error>
1c01ca50:	1467f78c 	lu12i.w	$r12,212924(0x33fbc)
1c01ca54:	02a7018c 	addi.w	$r12,$r12,-1600(0x9c0)
1c01ca58:	1467f76b 	lu12i.w	$r11,212923(0x33fbb)
1c01ca5c:	028c956b 	addi.w	$r11,$r11,805(0x325)
1c01ca60:	02a5958a 	addi.w	$r10,$r12,-1691(0x965)
1c01ca64:	5c02354b 	bne	$r10,$r11,564(0x234) # 1c01cc98 <inst_error>
1c01ca68:	14e1916c 	lu12i.w	$r12,461963(0x70c8b)
1c01ca6c:	0283dd8c 	addi.w	$r12,$r12,247(0xf7)
1c01ca70:	14e1916b 	lu12i.w	$r11,461963(0x70c8b)
1c01ca74:	02bd656b 	addi.w	$r11,$r11,-167(0xf59)
1c01ca78:	02b9898a 	addi.w	$r10,$r12,-414(0xe62)
1c01ca7c:	5c021d4b 	bne	$r10,$r11,540(0x21c) # 1c01cc98 <inst_error>
1c01ca80:	147e032c 	lu12i.w	$r12,258073(0x3f019)
1c01ca84:	0292d18c 	addi.w	$r12,$r12,1204(0x4b4)
1c01ca88:	147e032b 	lu12i.w	$r11,258073(0x3f019)
1c01ca8c:	028e216b 	addi.w	$r11,$r11,904(0x388)
1c01ca90:	02bb518a 	addi.w	$r10,$r12,-300(0xed4)
1c01ca94:	5c02054b 	bne	$r10,$r11,516(0x204) # 1c01cc98 <inst_error>
1c01ca98:	158b82cc 	lu12i.w	$r12,-238570(0xc5c16)
1c01ca9c:	029b018c 	addi.w	$r12,$r12,1728(0x6c0)
1c01caa0:	158b82eb 	lu12i.w	$r11,-238569(0xc5c17)
1c01caa4:	02b3596b 	addi.w	$r11,$r11,-810(0xcd6)
1c01caa8:	0298598a 	addi.w	$r10,$r12,1558(0x616)
1c01caac:	5c01ed4b 	bne	$r10,$r11,492(0x1ec) # 1c01cc98 <inst_error>
1c01cab0:	1424240c 	lu12i.w	$r12,74016(0x12120)
1c01cab4:	0291818c 	addi.w	$r12,$r12,1120(0x460)
1c01cab8:	1424242b 	lu12i.w	$r11,74017(0x12121)
1c01cabc:	02a5016b 	addi.w	$r11,$r11,-1728(0x940)
1c01cac0:	0293818a 	addi.w	$r10,$r12,1248(0x4e0)
1c01cac4:	5c01d54b 	bne	$r10,$r11,468(0x1d4) # 1c01cc98 <inst_error>
1c01cac8:	145b7bcc 	lu12i.w	$r12,187358(0x2dbde)
1c01cacc:	0293198c 	addi.w	$r12,$r12,1222(0x4c6)
1c01cad0:	145b7beb 	lu12i.w	$r11,187359(0x2dbdf)
1c01cad4:	02a3756b 	addi.w	$r11,$r11,-1827(0x8dd)
1c01cad8:	02905d8a 	addi.w	$r10,$r12,1047(0x417)
1c01cadc:	5c01bd4b 	bne	$r10,$r11,444(0x1bc) # 1c01cc98 <inst_error>
1c01cae0:	15f73dac 	lu12i.w	$r12,-17939(0xfb9ed)
1c01cae4:	028d498c 	addi.w	$r12,$r12,850(0x352)
1c01cae8:	15f73dab 	lu12i.w	$r11,-17939(0xfb9ed)
1c01caec:	02bdd16b 	addi.w	$r11,$r11,-140(0xf74)
1c01caf0:	02b0898a 	addi.w	$r10,$r12,-990(0xc22)
1c01caf4:	5c01a54b 	bne	$r10,$r11,420(0x1a4) # 1c01cc98 <inst_error>
1c01caf8:	1515ccec 	lu12i.w	$r12,-479641(0x8ae67)
1c01cafc:	02b6818c 	addi.w	$r12,$r12,-608(0xda0)
1c01cb00:	1515cceb 	lu12i.w	$r11,-479641(0x8ae67)
1c01cb04:	02a4816b 	addi.w	$r11,$r11,-1760(0x920)
1c01cb08:	02ae018a 	addi.w	$r10,$r12,-1152(0xb80)
1c01cb0c:	5c018d4b 	bne	$r10,$r11,396(0x18c) # 1c01cc98 <inst_error>
1c01cb10:	1492456c 	lu12i.w	$r12,299563(0x4922b)
1c01cb14:	02a4a18c 	addi.w	$r12,$r12,-1752(0x928)
1c01cb18:	1492456b 	lu12i.w	$r11,299563(0x4922b)
1c01cb1c:	02a7816b 	addi.w	$r11,$r11,-1568(0x9e0)
1c01cb20:	0282e18a 	addi.w	$r10,$r12,184(0xb8)
1c01cb24:	5c01754b 	bne	$r10,$r11,372(0x174) # 1c01cc98 <inst_error>
1c01cb28:	1510686c 	lu12i.w	$r12,-490685(0x88343)
1c01cb2c:	02bafd8c 	addi.w	$r12,$r12,-321(0xebf)
1c01cb30:	1510686b 	lu12i.w	$r11,-490685(0x88343)
1c01cb34:	02bb196b 	addi.w	$r11,$r11,-314(0xec6)
1c01cb38:	02801d8a 	addi.w	$r10,$r12,7(0x7)
1c01cb3c:	5c015d4b 	bne	$r10,$r11,348(0x15c) # 1c01cc98 <inst_error>
1c01cb40:	1462f6ac 	lu12i.w	$r12,202677(0x317b5)
1c01cb44:	0280818c 	addi.w	$r12,$r12,32(0x20)
1c01cb48:	1462f6ab 	lu12i.w	$r11,202677(0x317b5)
1c01cb4c:	02b5416b 	addi.w	$r11,$r11,-688(0xd50)
1c01cb50:	02b4c18a 	addi.w	$r10,$r12,-720(0xd30)
1c01cb54:	5c01454b 	bne	$r10,$r11,324(0x144) # 1c01cc98 <inst_error>
1c01cb58:	14ad83cc 	lu12i.w	$r12,355358(0x56c1e)
1c01cb5c:	02a0ad8c 	addi.w	$r12,$r12,-2005(0x82b)
1c01cb60:	14ad83ab 	lu12i.w	$r11,355357(0x56c1d)
1c01cb64:	02919d6b 	addi.w	$r11,$r11,1127(0x467)
1c01cb68:	02b0f18a 	addi.w	$r10,$r12,-964(0xc3c)
1c01cb6c:	5c012d4b 	bne	$r10,$r11,300(0x12c) # 1c01cc98 <inst_error>
1c01cb70:	1579b86c 	lu12i.w	$r12,-275005(0xbcdc3)
1c01cb74:	0290c18c 	addi.w	$r12,$r12,1072(0x430)
1c01cb78:	1579b86b 	lu12i.w	$r11,-275005(0xbcdc3)
1c01cb7c:	0284496b 	addi.w	$r11,$r11,274(0x112)
1c01cb80:	02b3898a 	addi.w	$r10,$r12,-798(0xce2)
1c01cb84:	5c01154b 	bne	$r10,$r11,276(0x114) # 1c01cc98 <inst_error>
1c01cb88:	143f2eac 	lu12i.w	$r12,129397(0x1f975)
1c01cb8c:	0292258c 	addi.w	$r12,$r12,1161(0x489)
1c01cb90:	143f2eab 	lu12i.w	$r11,129397(0x1f975)
1c01cb94:	029aa56b 	addi.w	$r11,$r11,1705(0x6a9)
1c01cb98:	0288818a 	addi.w	$r10,$r12,544(0x220)
1c01cb9c:	5c00fd4b 	bne	$r10,$r11,252(0xfc) # 1c01cc98 <inst_error>
1c01cba0:	153517cc 	lu12i.w	$r12,-415554(0x9a8be)
1c01cba4:	02a3018c 	addi.w	$r12,$r12,-1856(0x8c0)
1c01cba8:	153517ab 	lu12i.w	$r11,-415555(0x9a8bd)
1c01cbac:	028ddd6b 	addi.w	$r11,$r11,887(0x377)
1c01cbb0:	02aadd8a 	addi.w	$r10,$r12,-1353(0xab7)
1c01cbb4:	5c00e54b 	bne	$r10,$r11,228(0xe4) # 1c01cc98 <inst_error>
1c01cbb8:	14e4d7ac 	lu12i.w	$r12,468669(0x726bd)
1c01cbbc:	02b8a18c 	addi.w	$r12,$r12,-472(0xe28)
1c01cbc0:	14e4d7ab 	lu12i.w	$r11,468669(0x726bd)
1c01cbc4:	02ad316b 	addi.w	$r11,$r11,-1204(0xb4c)
1c01cbc8:	02b4918a 	addi.w	$r10,$r12,-732(0xd24)
1c01cbcc:	5c00cd4b 	bne	$r10,$r11,204(0xcc) # 1c01cc98 <inst_error>
1c01cbd0:	1427418c 	lu12i.w	$r12,80396(0x13a0c)
1c01cbd4:	02ad418c 	addi.w	$r12,$r12,-1200(0xb50)
1c01cbd8:	1427418b 	lu12i.w	$r11,80396(0x13a0c)
1c01cbdc:	0280616b 	addi.w	$r11,$r11,24(0x18)
1c01cbe0:	0293218a 	addi.w	$r10,$r12,1224(0x4c8)
1c01cbe4:	5c00b54b 	bne	$r10,$r11,180(0xb4) # 1c01cc98 <inst_error>
1c01cbe8:	1414a52c 	lu12i.w	$r12,42281(0xa529)
1c01cbec:	02bf818c 	addi.w	$r12,$r12,-32(0xfe0)
1c01cbf0:	1414a52b 	lu12i.w	$r11,42281(0xa529)
1c01cbf4:	02b9c16b 	addi.w	$r11,$r11,-400(0xe70)
1c01cbf8:	02ba418a 	addi.w	$r10,$r12,-368(0xe90)
1c01cbfc:	5c009d4b 	bne	$r10,$r11,156(0x9c) # 1c01cc98 <inst_error>
1c01cc00:	14e0670c 	lu12i.w	$r12,459576(0x70338)
1c01cc04:	029a598c 	addi.w	$r12,$r12,1686(0x696)
1c01cc08:	14e0672b 	lu12i.w	$r11,459577(0x70339)
1c01cc0c:	02a85d6b 	addi.w	$r11,$r11,-1513(0xa17)
1c01cc10:	028e058a 	addi.w	$r10,$r12,897(0x381)
1c01cc14:	5c00854b 	bne	$r10,$r11,132(0x84) # 1c01cc98 <inst_error>
1c01cc18:	152c258c 	lu12i.w	$r12,-433876(0x9612c)
1c01cc1c:	02bda18c 	addi.w	$r12,$r12,-152(0xf68)
1c01cc20:	152c258b 	lu12i.w	$r11,-433876(0x9612c)
1c01cc24:	0299516b 	addi.w	$r11,$r11,1620(0x654)
1c01cc28:	029bb18a 	addi.w	$r10,$r12,1772(0x6ec)
1c01cc2c:	5c006d4b 	bne	$r10,$r11,108(0x6c) # 1c01cc98 <inst_error>
1c01cc30:	1400000c 	lu12i.w	$r12,0
1c01cc34:	0280018c 	addi.w	$r12,$r12,0
1c01cc38:	1400000b 	lu12i.w	$r11,0
1c01cc3c:	0292816b 	addi.w	$r11,$r11,1184(0x4a0)
1c01cc40:	0292818a 	addi.w	$r10,$r12,1184(0x4a0)
1c01cc44:	5c00554b 	bne	$r10,$r11,84(0x54) # 1c01cc98 <inst_error>
1c01cc48:	1400000c 	lu12i.w	$r12,0
1c01cc4c:	0280018c 	addi.w	$r12,$r12,0
1c01cc50:	1400000b 	lu12i.w	$r11,0
1c01cc54:	029b656b 	addi.w	$r11,$r11,1753(0x6d9)
1c01cc58:	029b658a 	addi.w	$r10,$r12,1753(0x6d9)
1c01cc5c:	5c003d4b 	bne	$r10,$r11,60(0x3c) # 1c01cc98 <inst_error>
1c01cc60:	1400000c 	lu12i.w	$r12,0
1c01cc64:	0280018c 	addi.w	$r12,$r12,0
1c01cc68:	1400000b 	lu12i.w	$r11,0
1c01cc6c:	02b7216b 	addi.w	$r11,$r11,-568(0xdc8)
1c01cc70:	02b7218a 	addi.w	$r10,$r12,-568(0xdc8)
1c01cc74:	5c00254b 	bne	$r10,$r11,36(0x24) # 1c01cc98 <inst_error>
1c01cc78:	1400000c 	lu12i.w	$r12,0
1c01cc7c:	0280018c 	addi.w	$r12,$r12,0
1c01cc80:	1400000b 	lu12i.w	$r11,0
1c01cc84:	0280016b 	addi.w	$r11,$r11,0
1c01cc88:	0280018a 	addi.w	$r10,$r12,0
1c01cc8c:	5c000d4b 	bne	$r10,$r11,12(0xc) # 1c01cc98 <inst_error>
1c01cc90:	5c000b20 	bne	$r25,$r0,8(0x8) # 1c01cc98 <inst_error>
1c01cc94:	0280075a 	addi.w	$r26,$r26,1(0x1)

1c01cc98 <inst_error>:
1c01cc98:	0040e2ed 	slli.w	$r13,$r23,0x18
1c01cc9c:	001569ac 	or	$r12,$r13,$r26
1c01cca0:	2980030c 	st.w	$r12,$r24,0
1c01cca4:	4c000020 	jirl	$r0,$r1,0

1c01cca8 <n5_slt_test>:
n5_slt_test():
1c01cca8:	028006f7 	addi.w	$r23,$r23,1(0x1)
1c01ccac:	14000019 	lu12i.w	$r25,0
1c01ccb0:	14e48a6c 	lu12i.w	$r12,468051(0x72453)
1c01ccb4:	0285a98c 	addi.w	$r12,$r12,362(0x16a)
1c01ccb8:	14f06a0d 	lu12i.w	$r13,492368(0x78350)
1c01ccbc:	029bc1ad 	addi.w	$r13,$r13,1776(0x6f0)
1c01ccc0:	1400000b 	lu12i.w	$r11,0
1c01ccc4:	0280056b 	addi.w	$r11,$r11,1(0x1)
1c01ccc8:	0012358a 	slt	$r10,$r12,$r13
1c01cccc:	5c016d4b 	bne	$r10,$r11,364(0x16c) # 1c01ce38 <inst_error>
1c01ccd0:	15f2744c 	lu12i.w	$r12,-27742(0xf93a2)
1c01ccd4:	0281f98c 	addi.w	$r12,$r12,126(0x7e)
1c01ccd8:	15225dad 	lu12i.w	$r13,-453907(0x912ed)
1c01ccdc:	028821ad 	addi.w	$r13,$r13,520(0x208)
1c01cce0:	1400000b 	lu12i.w	$r11,0
1c01cce4:	0280016b 	addi.w	$r11,$r11,0
1c01cce8:	0012358a 	slt	$r10,$r12,$r13
1c01ccec:	5c014d4b 	bne	$r10,$r11,332(0x14c) # 1c01ce38 <inst_error>
1c01ccf0:	148f2e8c 	lu12i.w	$r12,293236(0x47974)
1c01ccf4:	0294598c 	addi.w	$r12,$r12,1302(0x516)
1c01ccf8:	1571faad 	lu12i.w	$r13,-290859(0xb8fd5)
1c01ccfc:	02b471ad 	addi.w	$r13,$r13,-740(0xd1c)
1c01cd00:	1400000b 	lu12i.w	$r11,0
1c01cd04:	0280016b 	addi.w	$r11,$r11,0
1c01cd08:	0012358a 	slt	$r10,$r12,$r13
1c01cd0c:	5c012d4b 	bne	$r10,$r11,300(0x12c) # 1c01ce38 <inst_error>
1c01cd10:	1471260c 	lu12i.w	$r12,231728(0x38930)
1c01cd14:	02b8818c 	addi.w	$r12,$r12,-480(0xe20)
1c01cd18:	15807a2d 	lu12i.w	$r13,-261167(0xc03d1)
1c01cd1c:	0297c1ad 	addi.w	$r13,$r13,1520(0x5f0)
1c01cd20:	1400000b 	lu12i.w	$r11,0
1c01cd24:	0280016b 	addi.w	$r11,$r11,0
1c01cd28:	0012358a 	slt	$r10,$r12,$r13
1c01cd2c:	5c010d4b 	bne	$r10,$r11,268(0x10c) # 1c01ce38 <inst_error>
1c01cd30:	14fcab4c 	lu12i.w	$r12,517466(0x7e55a)
1c01cd34:	02bac18c 	addi.w	$r12,$r12,-336(0xeb0)
1c01cd38:	144c520d 	lu12i.w	$r13,156304(0x26290)
1c01cd3c:	02b001ad 	addi.w	$r13,$r13,-1024(0xc00)
1c01cd40:	1400000b 	lu12i.w	$r11,0
1c01cd44:	0280016b 	addi.w	$r11,$r11,0
1c01cd48:	0012358a 	slt	$r10,$r12,$r13
1c01cd4c:	5c00ed4b 	bne	$r10,$r11,236(0xec) # 1c01ce38 <inst_error>
1c01cd50:	15e0c66c 	lu12i.w	$r12,-63949(0xf0633)
1c01cd54:	028e118c 	addi.w	$r12,$r12,900(0x384)
1c01cd58:	1471c9ad 	lu12i.w	$r13,233037(0x38e4d)
1c01cd5c:	02a8c9ad 	addi.w	$r13,$r13,-1486(0xa32)
1c01cd60:	1400000b 	lu12i.w	$r11,0
1c01cd64:	0280056b 	addi.w	$r11,$r11,1(0x1)
1c01cd68:	0012358a 	slt	$r10,$r12,$r13
1c01cd6c:	5c00cd4b 	bne	$r10,$r11,204(0xcc) # 1c01ce38 <inst_error>
1c01cd70:	1454150c 	lu12i.w	$r12,172200(0x2a0a8)
1c01cd74:	029f418c 	addi.w	$r12,$r12,2000(0x7d0)
1c01cd78:	15134d8d 	lu12i.w	$r13,-484756(0x89a6c)
1c01cd7c:	02a901ad 	addi.w	$r13,$r13,-1472(0xa40)
1c01cd80:	1400000b 	lu12i.w	$r11,0
1c01cd84:	0280016b 	addi.w	$r11,$r11,0
1c01cd88:	0012358a 	slt	$r10,$r12,$r13
1c01cd8c:	5c00ad4b 	bne	$r10,$r11,172(0xac) # 1c01ce38 <inst_error>
1c01cd90:	144aee8c 	lu12i.w	$r12,153460(0x25774)
1c01cd94:	028be18c 	addi.w	$r12,$r12,760(0x2f8)
1c01cd98:	1520e60d 	lu12i.w	$r13,-456912(0x90730)
1c01cd9c:	028081ad 	addi.w	$r13,$r13,32(0x20)
1c01cda0:	1400000b 	lu12i.w	$r11,0
1c01cda4:	0280016b 	addi.w	$r11,$r11,0
1c01cda8:	0012358a 	slt	$r10,$r12,$r13
1c01cdac:	5c008d4b 	bne	$r10,$r11,140(0x8c) # 1c01ce38 <inst_error>
1c01cdb0:	14ec8f0c 	lu12i.w	$r12,484472(0x76478)
1c01cdb4:	02a4d18c 	addi.w	$r12,$r12,-1740(0x934)
1c01cdb8:	148c9f4d 	lu12i.w	$r13,287994(0x464fa)
1c01cdbc:	0285d9ad 	addi.w	$r13,$r13,374(0x176)
1c01cdc0:	1400000b 	lu12i.w	$r11,0
1c01cdc4:	0280016b 	addi.w	$r11,$r11,0
1c01cdc8:	0012358a 	slt	$r10,$r12,$r13
1c01cdcc:	5c006d4b 	bne	$r10,$r11,108(0x6c) # 1c01ce38 <inst_error>
1c01cdd0:	140094ac 	lu12i.w	$r12,1189(0x4a5)
1c01cdd4:	028ce98c 	addi.w	$r12,$r12,826(0x33a)
1c01cdd8:	1553b5cd 	lu12i.w	$r13,-352850(0xa9dae)
1c01cddc:	02a981ad 	addi.w	$r13,$r13,-1440(0xa60)
1c01cde0:	1400000b 	lu12i.w	$r11,0
1c01cde4:	0280016b 	addi.w	$r11,$r11,0
1c01cde8:	0012358a 	slt	$r10,$r12,$r13
1c01cdec:	5c004d4b 	bne	$r10,$r11,76(0x4c) # 1c01ce38 <inst_error>
1c01cdf0:	1400000c 	lu12i.w	$r12,0
1c01cdf4:	0280018c 	addi.w	$r12,$r12,0
1c01cdf8:	156acccd 	lu12i.w	$r13,-305562(0xb5666)
1c01cdfc:	0298adad 	addi.w	$r13,$r13,1579(0x62b)
1c01ce00:	1400000b 	lu12i.w	$r11,0
1c01ce04:	0280016b 	addi.w	$r11,$r11,0
1c01ce08:	0012358a 	slt	$r10,$r12,$r13
1c01ce0c:	5c002d4b 	bne	$r10,$r11,44(0x2c) # 1c01ce38 <inst_error>
1c01ce10:	1400000c 	lu12i.w	$r12,0
1c01ce14:	0280018c 	addi.w	$r12,$r12,0
1c01ce18:	1400000d 	lu12i.w	$r13,0
1c01ce1c:	028001ad 	addi.w	$r13,$r13,0
1c01ce20:	1400000b 	lu12i.w	$r11,0
1c01ce24:	0280016b 	addi.w	$r11,$r11,0
1c01ce28:	0012358a 	slt	$r10,$r12,$r13
1c01ce2c:	5c000d4b 	bne	$r10,$r11,12(0xc) # 1c01ce38 <inst_error>
1c01ce30:	5c000b20 	bne	$r25,$r0,8(0x8) # 1c01ce38 <inst_error>
1c01ce34:	0280075a 	addi.w	$r26,$r26,1(0x1)

1c01ce38 <inst_error>:
1c01ce38:	0040e2ed 	slli.w	$r13,$r23,0x18
1c01ce3c:	001569ac 	or	$r12,$r13,$r26
1c01ce40:	2980030c 	st.w	$r12,$r24,0
1c01ce44:	4c000020 	jirl	$r0,$r1,0

1c01ce48 <n9_xor_test>:
n9_xor_test():
1c01ce48:	028006f7 	addi.w	$r23,$r23,1(0x1)
1c01ce4c:	00150019 	move	$r25,$r0
1c01ce50:	142ee7cc 	lu12i.w	$r12,96062(0x1773e)
1c01ce54:	02be018c 	addi.w	$r12,$r12,-128(0xf80)
1c01ce58:	156b5ead 	lu12i.w	$r13,-304395(0xb5af5)
1c01ce5c:	028749ad 	addi.w	$r13,$r13,466(0x1d2)
1c01ce60:	1545b92b 	lu12i.w	$r11,-381495(0xa2dc9)
1c01ce64:	02b9496b 	addi.w	$r11,$r11,-430(0xe52)
1c01ce68:	0015b58a 	xor	$r10,$r12,$r13
1c01ce6c:	5c056d4b 	bne	$r10,$r11,1388(0x56c) # 1c01d3d8 <inst_error>
1c01ce70:	15cc446c 	lu12i.w	$r12,-105949(0xe6223)
1c01ce74:	0295418c 	addi.w	$r12,$r12,1360(0x550)
1c01ce78:	1521394d 	lu12i.w	$r13,-456246(0x909ca)
1c01ce7c:	02a369ad 	addi.w	$r13,$r13,-1830(0x8da)
1c01ce80:	14ed7d6b 	lu12i.w	$r11,486379(0x76beb)
1c01ce84:	02b6296b 	addi.w	$r11,$r11,-630(0xd8a)
1c01ce88:	0015b58a 	xor	$r10,$r12,$r13
1c01ce8c:	5c054d4b 	bne	$r10,$r11,1356(0x54c) # 1c01d3d8 <inst_error>
1c01ce90:	15eb914c 	lu12i.w	$r12,-41846(0xf5c8a)
1c01ce94:	0296618c 	addi.w	$r12,$r12,1432(0x598)
1c01ce98:	144bfa0d 	lu12i.w	$r13,155600(0x25fd0)
1c01ce9c:	028901ad 	addi.w	$r13,$r13,576(0x240)
1c01cea0:	15a06b4b 	lu12i.w	$r11,-195750(0xd035a)
1c01cea4:	029f616b 	addi.w	$r11,$r11,2008(0x7d8)
1c01cea8:	0015b58a 	xor	$r10,$r12,$r13
1c01ceac:	5c052d4b 	bne	$r10,$r11,1324(0x52c) # 1c01d3d8 <inst_error>
1c01ceb0:	14496a8c 	lu12i.w	$r12,150356(0x24b54)
1c01ceb4:	02bc818c 	addi.w	$r12,$r12,-224(0xf20)
1c01ceb8:	1429a76d 	lu12i.w	$r13,85307(0x14d3b)
1c01cebc:	02aba1ad 	addi.w	$r13,$r13,-1304(0xae8)
1c01cec0:	1460cd2b 	lu12i.w	$r11,198249(0x30669)
1c01cec4:	0297216b 	addi.w	$r11,$r11,1480(0x5c8)
1c01cec8:	0015b58a 	xor	$r10,$r12,$r13
1c01cecc:	5c050d4b 	bne	$r10,$r11,1292(0x50c) # 1c01d3d8 <inst_error>
1c01ced0:	14b28a4c 	lu12i.w	$r12,365650(0x59452)
1c01ced4:	02bce18c 	addi.w	$r12,$r12,-200(0xf38)
1c01ced8:	15d155ed 	lu12i.w	$r13,-95569(0xe8aaf)
1c01cedc:	0290adad 	addi.w	$r13,$r13,1067(0x42b)
1c01cee0:	1563dfeb 	lu12i.w	$r11,-319745(0xb1eff)
1c01cee4:	02ac4d6b 	addi.w	$r11,$r11,-1261(0xb13)
1c01cee8:	0015b58a 	xor	$r10,$r12,$r13
1c01ceec:	5c04ed4b 	bne	$r10,$r11,1260(0x4ec) # 1c01d3d8 <inst_error>
1c01cef0:	1594b62c 	lu12i.w	$r12,-219727(0xca5b1)
1c01cef4:	029e818c 	addi.w	$r12,$r12,1952(0x7a0)
1c01cef8:	159d8e2d 	lu12i.w	$r13,-201615(0xcec71)
1c01cefc:	02b561ad 	addi.w	$r13,$r13,-680(0xd58)
1c01cf00:	1409384b 	lu12i.w	$r11,18882(0x49c2)
1c01cf04:	02abe16b 	addi.w	$r11,$r11,-1288(0xaf8)
1c01cf08:	0015b58a 	xor	$r10,$r12,$r13
1c01cf0c:	5c04cd4b 	bne	$r10,$r11,1228(0x4cc) # 1c01d3d8 <inst_error>
1c01cf10:	1516d44c 	lu12i.w	$r12,-477534(0x8b6a2)
1c01cf14:	02b9e18c 	addi.w	$r12,$r12,-392(0xe78)
1c01cf18:	15513ccd 	lu12i.w	$r13,-357914(0xa89e6)
1c01cf1c:	02bb49ad 	addi.w	$r13,$r13,-302(0xed2)
1c01cf20:	1447e88b 	lu12i.w	$r11,147268(0x23f44)
1c01cf24:	0282a96b 	addi.w	$r11,$r11,170(0xaa)
1c01cf28:	0015b58a 	xor	$r10,$r12,$r13
1c01cf2c:	5c04ad4b 	bne	$r10,$r11,1196(0x4ac) # 1c01d3d8 <inst_error>
1c01cf30:	1514b00c 	lu12i.w	$r12,-481920(0x8a580)
1c01cf34:	0286418c 	addi.w	$r12,$r12,400(0x190)
1c01cf38:	155c73cd 	lu12i.w	$r13,-334946(0xae39e)
1c01cf3c:	029981ad 	addi.w	$r13,$r13,1632(0x660)
1c01cf40:	1448c3cb 	lu12i.w	$r11,149022(0x2461e)
1c01cf44:	029fc16b 	addi.w	$r11,$r11,2032(0x7f0)
1c01cf48:	0015b58a 	xor	$r10,$r12,$r13
1c01cf4c:	5c048d4b 	bne	$r10,$r11,1164(0x48c) # 1c01d3d8 <inst_error>
1c01cf50:	15ba68ec 	lu12i.w	$r12,-142521(0xdd347)
1c01cf54:	028bc18c 	addi.w	$r12,$r12,752(0x2f0)
1c01cf58:	158291cd 	lu12i.w	$r13,-256882(0xc148e)
1c01cf5c:	02b421ad 	addi.w	$r13,$r13,-760(0xd08)
1c01cf60:	1438f96b 	lu12i.w	$r11,116683(0x1c7cb)
1c01cf64:	02bfe16b 	addi.w	$r11,$r11,-8(0xff8)
1c01cf68:	0015b58a 	xor	$r10,$r12,$r13
1c01cf6c:	5c046d4b 	bne	$r10,$r11,1132(0x46c) # 1c01d3d8 <inst_error>
1c01cf70:	14a4b0ac 	lu12i.w	$r12,337285(0x52585)
1c01cf74:	029f818c 	addi.w	$r12,$r12,2016(0x7e0)
1c01cf78:	1529ad0d 	lu12i.w	$r13,-438936(0x94d68)
1c01cf7c:	02a181ad 	addi.w	$r13,$r13,-1952(0x860)
1c01cf80:	158d1c6b 	lu12i.w	$r11,-235293(0xc68e3)
1c01cf84:	02be016b 	addi.w	$r11,$r11,-128(0xf80)
1c01cf88:	0015b58a 	xor	$r10,$r12,$r13
1c01cf8c:	5c044d4b 	bne	$r10,$r11,1100(0x44c) # 1c01d3d8 <inst_error>
1c01cf90:	156c386c 	lu12i.w	$r12,-302653(0xb61c3)
1c01cf94:	02b1018c 	addi.w	$r12,$r12,-960(0xc40)
1c01cf98:	1582b42d 	lu12i.w	$r13,-256607(0xc15a1)
1c01cf9c:	02aea9ad 	addi.w	$r13,$r13,-1110(0xbaa)
1c01cfa0:	14ee8c4b 	lu12i.w	$r11,488546(0x77462)
1c01cfa4:	029fa96b 	addi.w	$r11,$r11,2026(0x7ea)
1c01cfa8:	0015b58a 	xor	$r10,$r12,$r13
1c01cfac:	5c042d4b 	bne	$r10,$r11,1068(0x42c) # 1c01d3d8 <inst_error>
1c01cfb0:	14069a4c 	lu12i.w	$r12,13522(0x34d2)
1c01cfb4:	02bba18c 	addi.w	$r12,$r12,-280(0xee8)
1c01cfb8:	145724ed 	lu12i.w	$r13,178471(0x2b927)
1c01cfbc:	029001ad 	addi.w	$r13,$r13,1024(0x400)
1c01cfc0:	1451beeb 	lu12i.w	$r11,167415(0x28df7)
1c01cfc4:	02aba16b 	addi.w	$r11,$r11,-1304(0xae8)
1c01cfc8:	0015b58a 	xor	$r10,$r12,$r13
1c01cfcc:	5c040d4b 	bne	$r10,$r11,1036(0x40c) # 1c01d3d8 <inst_error>
1c01cfd0:	15919c0c 	lu12i.w	$r12,-226080(0xc8ce0)
1c01cfd4:	02ac518c 	addi.w	$r12,$r12,-1260(0xb14)
1c01cfd8:	14e03bad 	lu12i.w	$r13,459229(0x701dd)
1c01cfdc:	0294f9ad 	addi.w	$r13,$r13,1342(0x53e)
1c01cfe0:	1571a06b 	lu12i.w	$r11,-291581(0xb8d03)
1c01cfe4:	02b8a96b 	addi.w	$r11,$r11,-470(0xe2a)
1c01cfe8:	0015b58a 	xor	$r10,$r12,$r13
1c01cfec:	5c03ed4b 	bne	$r10,$r11,1004(0x3ec) # 1c01d3d8 <inst_error>
1c01cff0:	148a0acc 	lu12i.w	$r12,282710(0x45056)
1c01cff4:	0292658c 	addi.w	$r12,$r12,1177(0x499)
1c01cff8:	15b4868d 	lu12i.w	$r13,-154572(0xda434)
1c01cffc:	0296c1ad 	addi.w	$r13,$r13,1456(0x5b0)
1c01d000:	153e8c4b 	lu12i.w	$r11,-396190(0x9f462)
1c01d004:	0284a56b 	addi.w	$r11,$r11,297(0x129)
1c01d008:	0015b58a 	xor	$r10,$r12,$r13
1c01d00c:	5c03cd4b 	bne	$r10,$r11,972(0x3cc) # 1c01d3d8 <inst_error>
1c01d010:	1408124c 	lu12i.w	$r12,16530(0x4092)
1c01d014:	0281418c 	addi.w	$r12,$r12,80(0x50)
1c01d018:	14a078cd 	lu12i.w	$r13,328646(0x503c6)
1c01d01c:	02a721ad 	addi.w	$r13,$r13,-1592(0x9c8)
1c01d020:	14a86b0b 	lu12i.w	$r11,344920(0x54358)
1c01d024:	02a6616b 	addi.w	$r11,$r11,-1640(0x998)
1c01d028:	0015b58a 	xor	$r10,$r12,$r13
1c01d02c:	5c03ad4b 	bne	$r10,$r11,940(0x3ac) # 1c01d3d8 <inst_error>
1c01d030:	147b11ac 	lu12i.w	$r12,252045(0x3d88d)
1c01d034:	029c018c 	addi.w	$r12,$r12,1792(0x700)
1c01d038:	150ebb8d 	lu12i.w	$r13,-494116(0x875dc)
1c01d03c:	029141ad 	addi.w	$r13,$r13,1104(0x450)
1c01d040:	1575aa2b 	lu12i.w	$r11,-283311(0xbad51)
1c01d044:	028d416b 	addi.w	$r11,$r11,848(0x350)
1c01d048:	0015b58a 	xor	$r10,$r12,$r13
1c01d04c:	5c038d4b 	bne	$r10,$r11,908(0x38c) # 1c01d3d8 <inst_error>
1c01d050:	157b036c 	lu12i.w	$r12,-272357(0xbd81b)
1c01d054:	0286018c 	addi.w	$r12,$r12,384(0x180)
1c01d058:	1448c12d 	lu12i.w	$r13,149001(0x24609)
1c01d05c:	02ae5dad 	addi.w	$r13,$r13,-1129(0xb97)
1c01d060:	1533c28b 	lu12i.w	$r11,-418284(0x99e14)
1c01d064:	02a85d6b 	addi.w	$r11,$r11,-1513(0xa17)
1c01d068:	0015b58a 	xor	$r10,$r12,$r13
1c01d06c:	5c036d4b 	bne	$r10,$r11,876(0x36c) # 1c01d3d8 <inst_error>
1c01d070:	15f42fcc 	lu12i.w	$r12,-24194(0xfa17e)
1c01d074:	0297118c 	addi.w	$r12,$r12,1476(0x5c4)
1c01d078:	15e343cd 	lu12i.w	$r13,-58850(0xf1a1e)
1c01d07c:	028a01ad 	addi.w	$r13,$r13,640(0x280)
1c01d080:	14176c0b 	lu12i.w	$r11,47968(0xbb60)
1c01d084:	029d116b 	addi.w	$r11,$r11,1860(0x744)
1c01d088:	0015b58a 	xor	$r10,$r12,$r13
1c01d08c:	5c034d4b 	bne	$r10,$r11,844(0x34c) # 1c01d3d8 <inst_error>
1c01d090:	143e4c0c 	lu12i.w	$r12,127584(0x1f260)
1c01d094:	0285c18c 	addi.w	$r12,$r12,368(0x170)
1c01d098:	15d1a6ed 	lu12i.w	$r13,-94921(0xe8d37)
1c01d09c:	028dc1ad 	addi.w	$r13,$r13,880(0x370)
1c01d0a0:	15efeaeb 	lu12i.w	$r11,-32937(0xf7f57)
1c01d0a4:	0288016b 	addi.w	$r11,$r11,512(0x200)
1c01d0a8:	0015b58a 	xor	$r10,$r12,$r13
1c01d0ac:	5c032d4b 	bne	$r10,$r11,812(0x32c) # 1c01d3d8 <inst_error>
1c01d0b0:	15876bcc 	lu12i.w	$r12,-246946(0xc3b5e)
1c01d0b4:	02ac198c 	addi.w	$r12,$r12,-1274(0xb06)
1c01d0b8:	146507ad 	lu12i.w	$r13,206909(0x3283d)
1c01d0bc:	0292e1ad 	addi.w	$r13,$r13,1208(0x4b8)
1c01d0c0:	15e26c2b 	lu12i.w	$r11,-60575(0xf1361)
1c01d0c4:	02bef96b 	addi.w	$r11,$r11,-66(0xfbe)
1c01d0c8:	0015b58a 	xor	$r10,$r12,$r13
1c01d0cc:	5c030d4b 	bne	$r10,$r11,780(0x30c) # 1c01d3d8 <inst_error>
1c01d0d0:	149a5c8c 	lu12i.w	$r12,316132(0x4d2e4)
1c01d0d4:	02b3d58c 	addi.w	$r12,$r12,-779(0xcf5)
1c01d0d8:	146191ed 	lu12i.w	$r13,199823(0x30c8f)
1c01d0dc:	028d31ad 	addi.w	$r13,$r13,844(0x34c)
1c01d0e0:	14fbcdab 	lu12i.w	$r11,515693(0x7de6d)
1c01d0e4:	02bee56b 	addi.w	$r11,$r11,-71(0xfb9)
1c01d0e8:	0015b58a 	xor	$r10,$r12,$r13
1c01d0ec:	5c02ed4b 	bne	$r10,$r11,748(0x2ec) # 1c01d3d8 <inst_error>
1c01d0f0:	1402a1ec 	lu12i.w	$r12,5391(0x150f)
1c01d0f4:	0294b18c 	addi.w	$r12,$r12,1324(0x52c)
1c01d0f8:	152400ed 	lu12i.w	$r13,-450553(0x92007)
1c01d0fc:	02b681ad 	addi.w	$r13,$r13,-608(0xda0)
1c01d100:	1526a14b 	lu12i.w	$r11,-445174(0x9350a)
1c01d104:	02a2316b 	addi.w	$r11,$r11,-1908(0x88c)
1c01d108:	0015b58a 	xor	$r10,$r12,$r13
1c01d10c:	5c02cd4b 	bne	$r10,$r11,716(0x2cc) # 1c01d3d8 <inst_error>
1c01d110:	143fc26c 	lu12i.w	$r12,130579(0x1fe13)
1c01d114:	02af558c 	addi.w	$r12,$r12,-1067(0xbd5)
1c01d118:	15fdf7ed 	lu12i.w	$r13,-4161(0xfefbf)
1c01d11c:	02b315ad 	addi.w	$r13,$r13,-827(0xcc5)
1c01d120:	15c2358b 	lu12i.w	$r11,-126548(0xe11ac)
1c01d124:	029c416b 	addi.w	$r11,$r11,1808(0x710)
1c01d128:	0015b58a 	xor	$r10,$r12,$r13
1c01d12c:	5c02ad4b 	bne	$r10,$r11,684(0x2ac) # 1c01d3d8 <inst_error>
1c01d130:	15aa2b0c 	lu12i.w	$r12,-175784(0xd5158)
1c01d134:	0290f18c 	addi.w	$r12,$r12,1084(0x43c)
1c01d138:	14feda4d 	lu12i.w	$r13,521938(0x7f6d2)
1c01d13c:	0292d1ad 	addi.w	$r13,$r13,1204(0x4b4)
1c01d140:	1554f14b 	lu12i.w	$r11,-350326(0xaa78a)
1c01d144:	0282216b 	addi.w	$r11,$r11,136(0x88)
1c01d148:	0015b58a 	xor	$r10,$r12,$r13
1c01d14c:	5c028d4b 	bne	$r10,$r11,652(0x28c) # 1c01d3d8 <inst_error>
1c01d150:	1595602c 	lu12i.w	$r12,-218367(0xcab01)
1c01d154:	0296c18c 	addi.w	$r12,$r12,1456(0x5b0)
1c01d158:	14c7c02d 	lu12i.w	$r13,409089(0x63e01)
1c01d15c:	02b901ad 	addi.w	$r13,$r13,-448(0xe40)
1c01d160:	1552a04b 	lu12i.w	$r11,-355070(0xa9502)
1c01d164:	02afc16b 	addi.w	$r11,$r11,-1040(0xbf0)
1c01d168:	0015b58a 	xor	$r10,$r12,$r13
1c01d16c:	5c026d4b 	bne	$r10,$r11,620(0x26c) # 1c01d3d8 <inst_error>
1c01d170:	14a4030c 	lu12i.w	$r12,335896(0x52018)
1c01d174:	029d018c 	addi.w	$r12,$r12,1856(0x740)
1c01d178:	15dedc4d 	lu12i.w	$r13,-67870(0xef6e2)
1c01d17c:	028331ad 	addi.w	$r13,$r13,204(0xcc)
1c01d180:	157adf4b 	lu12i.w	$r11,-272646(0xbd6fa)
1c01d184:	029e316b 	addi.w	$r11,$r11,1932(0x78c)
1c01d188:	0015b58a 	xor	$r10,$r12,$r13
1c01d18c:	5c024d4b 	bne	$r10,$r11,588(0x24c) # 1c01d3d8 <inst_error>
1c01d190:	1525eccc 	lu12i.w	$r12,-446618(0x92f66)
1c01d194:	02b4e18c 	addi.w	$r12,$r12,-712(0xd38)
1c01d198:	155264ad 	lu12i.w	$r13,-355547(0xa9325)
1c01d19c:	02aa01ad 	addi.w	$r13,$r13,-1408(0xa80)
1c01d1a0:	1477882b 	lu12i.w	$r11,244801(0x3bc41)
1c01d1a4:	029ee16b 	addi.w	$r11,$r11,1976(0x7b8)
1c01d1a8:	0015b58a 	xor	$r10,$r12,$r13
1c01d1ac:	5c022d4b 	bne	$r10,$r11,556(0x22c) # 1c01d3d8 <inst_error>
1c01d1b0:	1407264c 	lu12i.w	$r12,14642(0x3932)
1c01d1b4:	0286898c 	addi.w	$r12,$r12,418(0x1a2)
1c01d1b8:	14cad4ed 	lu12i.w	$r13,415399(0x656a7)
1c01d1bc:	02a4a5ad 	addi.w	$r13,$r13,-1751(0x929)
1c01d1c0:	14cdf2ab 	lu12i.w	$r11,421781(0x66f95)
1c01d1c4:	02a22d6b 	addi.w	$r11,$r11,-1909(0x88b)
1c01d1c8:	0015b58a 	xor	$r10,$r12,$r13
1c01d1cc:	5c020d4b 	bne	$r10,$r11,524(0x20c) # 1c01d3d8 <inst_error>
1c01d1d0:	152f35cc 	lu12i.w	$r12,-427602(0x979ae)
1c01d1d4:	0285d98c 	addi.w	$r12,$r12,374(0x176)
1c01d1d8:	1411500d 	lu12i.w	$r13,35456(0x8a80)
1c01d1dc:	02a691ad 	addi.w	$r13,$r13,-1628(0x9a4)
1c01d1e0:	153e7a4b 	lu12i.w	$r11,-396334(0x9f3d2)
1c01d1e4:	02a3496b 	addi.w	$r11,$r11,-1838(0x8d2)
1c01d1e8:	0015b58a 	xor	$r10,$r12,$r13
1c01d1ec:	5c01ed4b 	bne	$r10,$r11,492(0x1ec) # 1c01d3d8 <inst_error>
1c01d1f0:	15b17bac 	lu12i.w	$r12,-160803(0xd8bdd)
1c01d1f4:	02b9618c 	addi.w	$r12,$r12,-424(0xe58)
1c01d1f8:	1550314d 	lu12i.w	$r13,-360054(0xa818a)
1c01d1fc:	029991ad 	addi.w	$r13,$r13,1636(0x664)
1c01d200:	14e14aeb 	lu12i.w	$r11,461399(0x70a57)
1c01d204:	02a0f16b 	addi.w	$r11,$r11,-1988(0x83c)
1c01d208:	0015b58a 	xor	$r10,$r12,$r13
1c01d20c:	5c01cd4b 	bne	$r10,$r11,460(0x1cc) # 1c01d3d8 <inst_error>
1c01d210:	15d9ca6c 	lu12i.w	$r12,-78253(0xece53)
1c01d214:	028fc18c 	addi.w	$r12,$r12,1008(0x3f0)
1c01d218:	152645ed 	lu12i.w	$r13,-445905(0x9322f)
1c01d21c:	028aa1ad 	addi.w	$r13,$r13,680(0x2a8)
1c01d220:	14ff8f8b 	lu12i.w	$r11,523388(0x7fc7c)
1c01d224:	0285616b 	addi.w	$r11,$r11,344(0x158)
1c01d228:	0015b58a 	xor	$r10,$r12,$r13
1c01d22c:	5c01ad4b 	bne	$r10,$r11,428(0x1ac) # 1c01d3d8 <inst_error>
1c01d230:	153454cc 	lu12i.w	$r12,-417114(0x9a2a6)
1c01d234:	02ae2d8c 	addi.w	$r12,$r12,-1141(0xb8b)
1c01d238:	1588072d 	lu12i.w	$r13,-245703(0xc4039)
1c01d23c:	02ba39ad 	addi.w	$r13,$r13,-370(0xe8e)
1c01d240:	14bc53ab 	lu12i.w	$r11,385693(0x5e29d)
1c01d244:	0294156b 	addi.w	$r11,$r11,1285(0x505)
1c01d248:	0015b58a 	xor	$r10,$r12,$r13
1c01d24c:	5c018d4b 	bne	$r10,$r11,396(0x18c) # 1c01d3d8 <inst_error>
1c01d250:	1489ca0c 	lu12i.w	$r12,282192(0x44e50)
1c01d254:	02b2618c 	addi.w	$r12,$r12,-872(0xc98)
1c01d258:	1528deed 	lu12i.w	$r13,-440585(0x946f7)
1c01d25c:	02b2c9ad 	addi.w	$r13,$r13,-846(0xcb2)
1c01d260:	15a1172b 	lu12i.w	$r11,-194375(0xd08b9)
1c01d264:	0280a96b 	addi.w	$r11,$r11,42(0x2a)
1c01d268:	0015b58a 	xor	$r10,$r12,$r13
1c01d26c:	5c016d4b 	bne	$r10,$r11,364(0x16c) # 1c01d3d8 <inst_error>
1c01d270:	1479d8ac 	lu12i.w	$r12,249541(0x3cec5)
1c01d274:	028bf18c 	addi.w	$r12,$r12,764(0x2fc)
1c01d278:	150da10d 	lu12i.w	$r13,-496376(0x86d08)
1c01d27c:	02a67dad 	addi.w	$r13,$r13,-1633(0x99f)
1c01d280:	1574786b 	lu12i.w	$r11,-285757(0xba3c3)
1c01d284:	02ad8d6b 	addi.w	$r11,$r11,-1181(0xb63)
1c01d288:	0015b58a 	xor	$r10,$r12,$r13
1c01d28c:	5c014d4b 	bne	$r10,$r11,332(0x14c) # 1c01d3d8 <inst_error>
1c01d290:	143d8f6c 	lu12i.w	$r12,126075(0x1ec7b)
1c01d294:	02b9c18c 	addi.w	$r12,$r12,-400(0xe70)
1c01d298:	146b8ded 	lu12i.w	$r13,220271(0x35c6f)
1c01d29c:	02a469ad 	addi.w	$r13,$r13,-1766(0x91a)
1c01d2a0:	1456028b 	lu12i.w	$r11,176148(0x2b014)
1c01d2a4:	029da96b 	addi.w	$r11,$r11,1898(0x76a)
1c01d2a8:	0015b58a 	xor	$r10,$r12,$r13
1c01d2ac:	5c012d4b 	bne	$r10,$r11,300(0x12c) # 1c01d3d8 <inst_error>
1c01d2b0:	149b528c 	lu12i.w	$r12,318100(0x4da94)
1c01d2b4:	02ad798c 	addi.w	$r12,$r12,-1186(0xb5e)
1c01d2b8:	15d9c6ed 	lu12i.w	$r13,-78281(0xece37)
1c01d2bc:	02b811ad 	addi.w	$r13,$r13,-508(0xe04)
1c01d2c0:	154294ab 	lu12i.w	$r11,-387931(0xa14a5)
1c01d2c4:	0295696b 	addi.w	$r11,$r11,1370(0x55a)
1c01d2c8:	0015b58a 	xor	$r10,$r12,$r13
1c01d2cc:	5c010d4b 	bne	$r10,$r11,268(0x10c) # 1c01d3d8 <inst_error>
1c01d2d0:	1584e44c 	lu12i.w	$r12,-252126(0xc2722)
1c01d2d4:	02b1ed8c 	addi.w	$r12,$r12,-901(0xc7b)
1c01d2d8:	1468a76d 	lu12i.w	$r13,214331(0x3453b)
1c01d2dc:	028cb9ad 	addi.w	$r13,$r13,814(0x32e)
1c01d2e0:	15ec436b 	lu12i.w	$r11,-40421(0xf621b)
1c01d2e4:	02bd556b 	addi.w	$r11,$r11,-171(0xf55)
1c01d2e8:	0015b58a 	xor	$r10,$r12,$r13
1c01d2ec:	5c00ed4b 	bne	$r10,$r11,236(0xec) # 1c01d3d8 <inst_error>
1c01d2f0:	155ef42c 	lu12i.w	$r12,-329823(0xaf7a1)
1c01d2f4:	028b618c 	addi.w	$r12,$r12,728(0x2d8)
1c01d2f8:	1480420d 	lu12i.w	$r13,262672(0x40210)
1c01d2fc:	028231ad 	addi.w	$r13,$r13,140(0x8c)
1c01d300:	15deb62b 	lu12i.w	$r11,-68175(0xef5b1)
1c01d304:	0289516b 	addi.w	$r11,$r11,596(0x254)
1c01d308:	0015b58a 	xor	$r10,$r12,$r13
1c01d30c:	5c00cd4b 	bne	$r10,$r11,204(0xcc) # 1c01d3d8 <inst_error>
1c01d310:	1436b3ec 	lu12i.w	$r12,112031(0x1b59f)
1c01d314:	02b7c18c 	addi.w	$r12,$r12,-528(0xdf0)
1c01d318:	1595f82d 	lu12i.w	$r13,-217151(0xcafc1)
1c01d31c:	029d51ad 	addi.w	$r13,$r13,1876(0x754)
1c01d320:	15a34c0b 	lu12i.w	$r11,-189856(0xd1a60)
1c01d324:	02aa916b 	addi.w	$r11,$r11,-1372(0xaa4)
1c01d328:	0015b58a 	xor	$r10,$r12,$r13
1c01d32c:	5c00ad4b 	bne	$r10,$r11,172(0xac) # 1c01d3d8 <inst_error>
1c01d330:	15cf7aec 	lu12i.w	$r12,-99369(0xe7bd7)
1c01d334:	029d498c 	addi.w	$r12,$r12,1874(0x752)
1c01d338:	15fe3a0d 	lu12i.w	$r13,-3632(0xff1d0)
1c01d33c:	028ae1ad 	addi.w	$r13,$r13,696(0x2b8)
1c01d340:	143140eb 	lu12i.w	$r11,100871(0x18a07)
1c01d344:	0297a96b 	addi.w	$r11,$r11,1514(0x5ea)
1c01d348:	0015b58a 	xor	$r10,$r12,$r13
1c01d34c:	5c008d4b 	bne	$r10,$r11,140(0x8c) # 1c01d3d8 <inst_error>
1c01d350:	14fc254c 	lu12i.w	$r12,516394(0x7e12a)
1c01d354:	028ff18c 	addi.w	$r12,$r12,1020(0x3fc)
1c01d358:	14eb77ad 	lu12i.w	$r13,482237(0x75bbd)
1c01d35c:	02a79dad 	addi.w	$r13,$r13,-1561(0x9e7)
1c01d360:	141752eb 	lu12i.w	$r11,47767(0xba97)
1c01d364:	02a86d6b 	addi.w	$r11,$r11,-1509(0xa1b)
1c01d368:	0015b58a 	xor	$r10,$r12,$r13
1c01d36c:	5c006d4b 	bne	$r10,$r11,108(0x6c) # 1c01d3d8 <inst_error>
1c01d370:	152ceacc 	lu12i.w	$r12,-432298(0x96756)
1c01d374:	0296018c 	addi.w	$r12,$r12,1408(0x580)
1c01d378:	15a999cd 	lu12i.w	$r13,-176946(0xd4cce)
1c01d37c:	02a581ad 	addi.w	$r13,$r13,-1696(0x960)
1c01d380:	1485738b 	lu12i.w	$r11,273308(0x42b9c)
1c01d384:	02b3816b 	addi.w	$r11,$r11,-800(0xce0)
1c01d388:	0015b58a 	xor	$r10,$r12,$r13
1c01d38c:	5c004d4b 	bne	$r10,$r11,76(0x4c) # 1c01d3d8 <inst_error>
1c01d390:	15a2210c 	lu12i.w	$r12,-192248(0xd1108)
1c01d394:	02a3018c 	addi.w	$r12,$r12,-1856(0x8c0)
1c01d398:	15a5e8cd 	lu12i.w	$r13,-184506(0xd2f46)
1c01d39c:	02b081ad 	addi.w	$r13,$r13,-992(0xc20)
1c01d3a0:	1407c84b 	lu12i.w	$r11,15938(0x3e42)
1c01d3a4:	0293816b 	addi.w	$r11,$r11,1248(0x4e0)
1c01d3a8:	0015b58a 	xor	$r10,$r12,$r13
1c01d3ac:	5c002d4b 	bne	$r10,$r11,44(0x2c) # 1c01d3d8 <inst_error>
1c01d3b0:	1400000c 	lu12i.w	$r12,0
1c01d3b4:	0280018c 	addi.w	$r12,$r12,0
1c01d3b8:	1400000d 	lu12i.w	$r13,0
1c01d3bc:	028001ad 	addi.w	$r13,$r13,0
1c01d3c0:	1400000b 	lu12i.w	$r11,0
1c01d3c4:	0280016b 	addi.w	$r11,$r11,0
1c01d3c8:	0015b58a 	xor	$r10,$r12,$r13
1c01d3cc:	5c000d4b 	bne	$r10,$r11,12(0xc) # 1c01d3d8 <inst_error>
1c01d3d0:	5c000b20 	bne	$r25,$r0,8(0x8) # 1c01d3d8 <inst_error>
1c01d3d4:	0280075a 	addi.w	$r26,$r26,1(0x1)

1c01d3d8 <inst_error>:
1c01d3d8:	0040e2ed 	slli.w	$r13,$r23,0x18
1c01d3dc:	001569ac 	or	$r12,$r13,$r26
1c01d3e0:	2980030c 	st.w	$r12,$r24,0
1c01d3e4:	4c000020 	jirl	$r0,$r1,0

1c01d3e8 <n20_b_test>:
n20_b_test():
1c01d3e8:	028006f7 	addi.w	$r23,$r23,1(0x1)
1c01d3ec:	00150019 	move	$r25,$r0
1c01d3f0:	15187c50 	lu12i.w	$r16,-474142(0x8c3e2)
1c01d3f4:	02bbea10 	addi.w	$r16,$r16,-262(0xefa)
1c01d3f8:	15d657b1 	lu12i.w	$r17,-85315(0xeb2bd)
1c01d3fc:	0295f231 	addi.w	$r17,$r17,1404(0x57c)
1c01d400:	1400000a 	lu12i.w	$r10,0
1c01d404:	1400000b 	lu12i.w	$r11,0
1c01d408:	50001400 	b	20(0x14) # 1c01d41c <n20_b_test+0x34>
1c01d40c:	15187c4a 	lu12i.w	$r10,-474142(0x8c3e2)
1c01d410:	02bbe94a 	addi.w	$r10,$r10,-262(0xefa)
1c01d414:	50001000 	b	16(0x10) # 1c01d424 <n20_b_test+0x3c>
1c01d418:	50001400 	b	20(0x14) # 1c01d42c <n20_b_test+0x44>
1c01d41c:	53fff3ff 	b	-16(0xffffff0) # 1c01d40c <n20_b_test+0x24>
1c01d420:	50000c00 	b	12(0xc) # 1c01d42c <n20_b_test+0x44>
1c01d424:	15d657ab 	lu12i.w	$r11,-85315(0xeb2bd)
1c01d428:	0295f16b 	addi.w	$r11,$r11,1404(0x57c)
1c01d42c:	15187c51 	lu12i.w	$r17,-474142(0x8c3e2)
1c01d430:	02bbea31 	addi.w	$r17,$r17,-262(0xefa)
1c01d434:	15d657b0 	lu12i.w	$r16,-85315(0xeb2bd)
1c01d438:	0295f210 	addi.w	$r16,$r16,1404(0x57c)
1c01d43c:	5c0cdd51 	bne	$r10,$r17,3292(0xcdc) # 1c01e118 <inst_error>
1c01d440:	5c0cd970 	bne	$r11,$r16,3288(0xcd8) # 1c01e118 <inst_error>
1c01d444:	15f783f0 	lu12i.w	$r16,-17377(0xfbc1f)
1c01d448:	02974210 	addi.w	$r16,$r16,1488(0x5d0)
1c01d44c:	15723791 	lu12i.w	$r17,-290372(0xb91bc)
1c01d450:	0282c231 	addi.w	$r17,$r17,176(0xb0)
1c01d454:	1400000a 	lu12i.w	$r10,0
1c01d458:	1400000b 	lu12i.w	$r11,0
1c01d45c:	50001400 	b	20(0x14) # 1c01d470 <n20_b_test+0x88>
1c01d460:	15f783ea 	lu12i.w	$r10,-17377(0xfbc1f)
1c01d464:	0297414a 	addi.w	$r10,$r10,1488(0x5d0)
1c01d468:	50001000 	b	16(0x10) # 1c01d478 <n20_b_test+0x90>
1c01d46c:	50001400 	b	20(0x14) # 1c01d480 <n20_b_test+0x98>
1c01d470:	53fff3ff 	b	-16(0xffffff0) # 1c01d460 <n20_b_test+0x78>
1c01d474:	50000c00 	b	12(0xc) # 1c01d480 <n20_b_test+0x98>
1c01d478:	1572378b 	lu12i.w	$r11,-290372(0xb91bc)
1c01d47c:	0282c16b 	addi.w	$r11,$r11,176(0xb0)
1c01d480:	15f783f1 	lu12i.w	$r17,-17377(0xfbc1f)
1c01d484:	02974231 	addi.w	$r17,$r17,1488(0x5d0)
1c01d488:	15723790 	lu12i.w	$r16,-290372(0xb91bc)
1c01d48c:	0282c210 	addi.w	$r16,$r16,176(0xb0)
1c01d490:	5c0c8951 	bne	$r10,$r17,3208(0xc88) # 1c01e118 <inst_error>
1c01d494:	5c0c8570 	bne	$r11,$r16,3204(0xc84) # 1c01e118 <inst_error>
1c01d498:	15820c50 	lu12i.w	$r16,-257950(0xc1062)
1c01d49c:	028d5a10 	addi.w	$r16,$r16,854(0x356)
1c01d4a0:	15f1ac31 	lu12i.w	$r17,-29343(0xf8d61)
1c01d4a4:	02b18231 	addi.w	$r17,$r17,-928(0xc60)
1c01d4a8:	1400000a 	lu12i.w	$r10,0
1c01d4ac:	1400000b 	lu12i.w	$r11,0
1c01d4b0:	50001400 	b	20(0x14) # 1c01d4c4 <n20_b_test+0xdc>
1c01d4b4:	15820c4a 	lu12i.w	$r10,-257950(0xc1062)
1c01d4b8:	028d594a 	addi.w	$r10,$r10,854(0x356)
1c01d4bc:	50001000 	b	16(0x10) # 1c01d4cc <n20_b_test+0xe4>
1c01d4c0:	50001400 	b	20(0x14) # 1c01d4d4 <n20_b_test+0xec>
1c01d4c4:	53fff3ff 	b	-16(0xffffff0) # 1c01d4b4 <n20_b_test+0xcc>
1c01d4c8:	50000c00 	b	12(0xc) # 1c01d4d4 <n20_b_test+0xec>
1c01d4cc:	15f1ac2b 	lu12i.w	$r11,-29343(0xf8d61)
1c01d4d0:	02b1816b 	addi.w	$r11,$r11,-928(0xc60)
1c01d4d4:	15820c51 	lu12i.w	$r17,-257950(0xc1062)
1c01d4d8:	028d5a31 	addi.w	$r17,$r17,854(0x356)
1c01d4dc:	15f1ac30 	lu12i.w	$r16,-29343(0xf8d61)
1c01d4e0:	02b18210 	addi.w	$r16,$r16,-928(0xc60)
1c01d4e4:	5c0c3551 	bne	$r10,$r17,3124(0xc34) # 1c01e118 <inst_error>
1c01d4e8:	5c0c3170 	bne	$r11,$r16,3120(0xc30) # 1c01e118 <inst_error>
1c01d4ec:	14165bb0 	lu12i.w	$r16,45789(0xb2dd)
1c01d4f0:	02a39210 	addi.w	$r16,$r16,-1820(0x8e4)
1c01d4f4:	15fe4ef1 	lu12i.w	$r17,-3465(0xff277)
1c01d4f8:	02b4be31 	addi.w	$r17,$r17,-721(0xd2f)
1c01d4fc:	1400000a 	lu12i.w	$r10,0
1c01d500:	1400000b 	lu12i.w	$r11,0
1c01d504:	50001400 	b	20(0x14) # 1c01d518 <n20_b_test+0x130>
1c01d508:	14165baa 	lu12i.w	$r10,45789(0xb2dd)
1c01d50c:	02a3914a 	addi.w	$r10,$r10,-1820(0x8e4)
1c01d510:	50001000 	b	16(0x10) # 1c01d520 <n20_b_test+0x138>
1c01d514:	50001400 	b	20(0x14) # 1c01d528 <n20_b_test+0x140>
1c01d518:	53fff3ff 	b	-16(0xffffff0) # 1c01d508 <n20_b_test+0x120>
1c01d51c:	50000c00 	b	12(0xc) # 1c01d528 <n20_b_test+0x140>
1c01d520:	15fe4eeb 	lu12i.w	$r11,-3465(0xff277)
1c01d524:	02b4bd6b 	addi.w	$r11,$r11,-721(0xd2f)
1c01d528:	14165bb1 	lu12i.w	$r17,45789(0xb2dd)
1c01d52c:	02a39231 	addi.w	$r17,$r17,-1820(0x8e4)
1c01d530:	15fe4ef0 	lu12i.w	$r16,-3465(0xff277)
1c01d534:	02b4be10 	addi.w	$r16,$r16,-721(0xd2f)
1c01d538:	5c0be151 	bne	$r10,$r17,3040(0xbe0) # 1c01e118 <inst_error>
1c01d53c:	5c0bdd70 	bne	$r11,$r16,3036(0xbdc) # 1c01e118 <inst_error>
1c01d540:	14625f70 	lu12i.w	$r16,201467(0x312fb)
1c01d544:	02af6610 	addi.w	$r16,$r16,-1063(0xbd9)
1c01d548:	152e0711 	lu12i.w	$r17,-430024(0x97038)
1c01d54c:	029eb231 	addi.w	$r17,$r17,1964(0x7ac)
1c01d550:	1400000a 	lu12i.w	$r10,0
1c01d554:	1400000b 	lu12i.w	$r11,0
1c01d558:	50001400 	b	20(0x14) # 1c01d56c <n20_b_test+0x184>
1c01d55c:	14625f6a 	lu12i.w	$r10,201467(0x312fb)
1c01d560:	02af654a 	addi.w	$r10,$r10,-1063(0xbd9)
1c01d564:	50001000 	b	16(0x10) # 1c01d574 <n20_b_test+0x18c>
1c01d568:	50001400 	b	20(0x14) # 1c01d57c <n20_b_test+0x194>
1c01d56c:	53fff3ff 	b	-16(0xffffff0) # 1c01d55c <n20_b_test+0x174>
1c01d570:	50000c00 	b	12(0xc) # 1c01d57c <n20_b_test+0x194>
1c01d574:	152e070b 	lu12i.w	$r11,-430024(0x97038)
1c01d578:	029eb16b 	addi.w	$r11,$r11,1964(0x7ac)
1c01d57c:	14625f71 	lu12i.w	$r17,201467(0x312fb)
1c01d580:	02af6631 	addi.w	$r17,$r17,-1063(0xbd9)
1c01d584:	152e0710 	lu12i.w	$r16,-430024(0x97038)
1c01d588:	029eb210 	addi.w	$r16,$r16,1964(0x7ac)
1c01d58c:	5c0b8d51 	bne	$r10,$r17,2956(0xb8c) # 1c01e118 <inst_error>
1c01d590:	5c0b8970 	bne	$r11,$r16,2952(0xb88) # 1c01e118 <inst_error>
1c01d594:	148c6c30 	lu12i.w	$r16,287585(0x46361)
1c01d598:	02a9a210 	addi.w	$r16,$r16,-1432(0xa68)
1c01d59c:	15f207f1 	lu12i.w	$r17,-28609(0xf903f)
1c01d5a0:	02973631 	addi.w	$r17,$r17,1485(0x5cd)
1c01d5a4:	1400000a 	lu12i.w	$r10,0
1c01d5a8:	1400000b 	lu12i.w	$r11,0
1c01d5ac:	50001400 	b	20(0x14) # 1c01d5c0 <n20_b_test+0x1d8>
1c01d5b0:	148c6c2a 	lu12i.w	$r10,287585(0x46361)
1c01d5b4:	02a9a14a 	addi.w	$r10,$r10,-1432(0xa68)
1c01d5b8:	50001000 	b	16(0x10) # 1c01d5c8 <n20_b_test+0x1e0>
1c01d5bc:	50001400 	b	20(0x14) # 1c01d5d0 <n20_b_test+0x1e8>
1c01d5c0:	53fff3ff 	b	-16(0xffffff0) # 1c01d5b0 <n20_b_test+0x1c8>
1c01d5c4:	50000c00 	b	12(0xc) # 1c01d5d0 <n20_b_test+0x1e8>
1c01d5c8:	15f207eb 	lu12i.w	$r11,-28609(0xf903f)
1c01d5cc:	0297356b 	addi.w	$r11,$r11,1485(0x5cd)
1c01d5d0:	148c6c31 	lu12i.w	$r17,287585(0x46361)
1c01d5d4:	02a9a231 	addi.w	$r17,$r17,-1432(0xa68)
1c01d5d8:	15f207f0 	lu12i.w	$r16,-28609(0xf903f)
1c01d5dc:	02973610 	addi.w	$r16,$r16,1485(0x5cd)
1c01d5e0:	5c0b3951 	bne	$r10,$r17,2872(0xb38) # 1c01e118 <inst_error>
1c01d5e4:	5c0b3570 	bne	$r11,$r16,2868(0xb34) # 1c01e118 <inst_error>
1c01d5e8:	148398d0 	lu12i.w	$r16,269510(0x41cc6)
1c01d5ec:	02982a10 	addi.w	$r16,$r16,1546(0x60a)
1c01d5f0:	14a452d1 	lu12i.w	$r17,336534(0x52296)
1c01d5f4:	02b37231 	addi.w	$r17,$r17,-804(0xcdc)
1c01d5f8:	1400000a 	lu12i.w	$r10,0
1c01d5fc:	1400000b 	lu12i.w	$r11,0
1c01d600:	50001400 	b	20(0x14) # 1c01d614 <n20_b_test+0x22c>
1c01d604:	148398ca 	lu12i.w	$r10,269510(0x41cc6)
1c01d608:	0298294a 	addi.w	$r10,$r10,1546(0x60a)
1c01d60c:	50001000 	b	16(0x10) # 1c01d61c <n20_b_test+0x234>
1c01d610:	50001400 	b	20(0x14) # 1c01d624 <n20_b_test+0x23c>
1c01d614:	53fff3ff 	b	-16(0xffffff0) # 1c01d604 <n20_b_test+0x21c>
1c01d618:	50000c00 	b	12(0xc) # 1c01d624 <n20_b_test+0x23c>
1c01d61c:	14a452cb 	lu12i.w	$r11,336534(0x52296)
1c01d620:	02b3716b 	addi.w	$r11,$r11,-804(0xcdc)
1c01d624:	148398d1 	lu12i.w	$r17,269510(0x41cc6)
1c01d628:	02982a31 	addi.w	$r17,$r17,1546(0x60a)
1c01d62c:	14a452d0 	lu12i.w	$r16,336534(0x52296)
1c01d630:	02b37210 	addi.w	$r16,$r16,-804(0xcdc)
1c01d634:	5c0ae551 	bne	$r10,$r17,2788(0xae4) # 1c01e118 <inst_error>
1c01d638:	5c0ae170 	bne	$r11,$r16,2784(0xae0) # 1c01e118 <inst_error>
1c01d63c:	1491f490 	lu12i.w	$r16,298916(0x48fa4)
1c01d640:	02a81210 	addi.w	$r16,$r16,-1532(0xa04)
1c01d644:	14d2c6d1 	lu12i.w	$r17,431670(0x69636)
1c01d648:	02849a31 	addi.w	$r17,$r17,294(0x126)
1c01d64c:	1400000a 	lu12i.w	$r10,0
1c01d650:	1400000b 	lu12i.w	$r11,0
1c01d654:	50001400 	b	20(0x14) # 1c01d668 <n20_b_test+0x280>
1c01d658:	1491f48a 	lu12i.w	$r10,298916(0x48fa4)
1c01d65c:	02a8114a 	addi.w	$r10,$r10,-1532(0xa04)
1c01d660:	50001000 	b	16(0x10) # 1c01d670 <n20_b_test+0x288>
1c01d664:	50001400 	b	20(0x14) # 1c01d678 <n20_b_test+0x290>
1c01d668:	53fff3ff 	b	-16(0xffffff0) # 1c01d658 <n20_b_test+0x270>
1c01d66c:	50000c00 	b	12(0xc) # 1c01d678 <n20_b_test+0x290>
1c01d670:	14d2c6cb 	lu12i.w	$r11,431670(0x69636)
1c01d674:	0284996b 	addi.w	$r11,$r11,294(0x126)
1c01d678:	1491f491 	lu12i.w	$r17,298916(0x48fa4)
1c01d67c:	02a81231 	addi.w	$r17,$r17,-1532(0xa04)
1c01d680:	14d2c6d0 	lu12i.w	$r16,431670(0x69636)
1c01d684:	02849a10 	addi.w	$r16,$r16,294(0x126)
1c01d688:	5c0a9151 	bne	$r10,$r17,2704(0xa90) # 1c01e118 <inst_error>
1c01d68c:	5c0a8d70 	bne	$r11,$r16,2700(0xa8c) # 1c01e118 <inst_error>
1c01d690:	1579afb0 	lu12i.w	$r16,-275075(0xbcd7d)
1c01d694:	02bfb210 	addi.w	$r16,$r16,-20(0xfec)
1c01d698:	14ef3531 	lu12i.w	$r17,489897(0x779a9)
1c01d69c:	0297b231 	addi.w	$r17,$r17,1516(0x5ec)
1c01d6a0:	1400000a 	lu12i.w	$r10,0
1c01d6a4:	1400000b 	lu12i.w	$r11,0
1c01d6a8:	50001400 	b	20(0x14) # 1c01d6bc <n20_b_test+0x2d4>
1c01d6ac:	1579afaa 	lu12i.w	$r10,-275075(0xbcd7d)
1c01d6b0:	02bfb14a 	addi.w	$r10,$r10,-20(0xfec)
1c01d6b4:	50001000 	b	16(0x10) # 1c01d6c4 <n20_b_test+0x2dc>
1c01d6b8:	50001400 	b	20(0x14) # 1c01d6cc <n20_b_test+0x2e4>
1c01d6bc:	53fff3ff 	b	-16(0xffffff0) # 1c01d6ac <n20_b_test+0x2c4>
1c01d6c0:	50000c00 	b	12(0xc) # 1c01d6cc <n20_b_test+0x2e4>
1c01d6c4:	14ef352b 	lu12i.w	$r11,489897(0x779a9)
1c01d6c8:	0297b16b 	addi.w	$r11,$r11,1516(0x5ec)
1c01d6cc:	1579afb1 	lu12i.w	$r17,-275075(0xbcd7d)
1c01d6d0:	02bfb231 	addi.w	$r17,$r17,-20(0xfec)
1c01d6d4:	14ef3530 	lu12i.w	$r16,489897(0x779a9)
1c01d6d8:	0297b210 	addi.w	$r16,$r16,1516(0x5ec)
1c01d6dc:	5c0a3d51 	bne	$r10,$r17,2620(0xa3c) # 1c01e118 <inst_error>
1c01d6e0:	5c0a3970 	bne	$r11,$r16,2616(0xa38) # 1c01e118 <inst_error>
1c01d6e4:	14bf92d0 	lu12i.w	$r16,392342(0x5fc96)
1c01d6e8:	028e2210 	addi.w	$r16,$r16,904(0x388)
1c01d6ec:	15887891 	lu12i.w	$r17,-244796(0xc43c4)
1c01d6f0:	02960231 	addi.w	$r17,$r17,1408(0x580)
1c01d6f4:	1400000a 	lu12i.w	$r10,0
1c01d6f8:	1400000b 	lu12i.w	$r11,0
1c01d6fc:	50001400 	b	20(0x14) # 1c01d710 <n20_b_test+0x328>
1c01d700:	14bf92ca 	lu12i.w	$r10,392342(0x5fc96)
1c01d704:	028e214a 	addi.w	$r10,$r10,904(0x388)
1c01d708:	50001000 	b	16(0x10) # 1c01d718 <n20_b_test+0x330>
1c01d70c:	50001400 	b	20(0x14) # 1c01d720 <n20_b_test+0x338>
1c01d710:	53fff3ff 	b	-16(0xffffff0) # 1c01d700 <n20_b_test+0x318>
1c01d714:	50000c00 	b	12(0xc) # 1c01d720 <n20_b_test+0x338>
1c01d718:	1588788b 	lu12i.w	$r11,-244796(0xc43c4)
1c01d71c:	0296016b 	addi.w	$r11,$r11,1408(0x580)
1c01d720:	14bf92d1 	lu12i.w	$r17,392342(0x5fc96)
1c01d724:	028e2231 	addi.w	$r17,$r17,904(0x388)
1c01d728:	15887890 	lu12i.w	$r16,-244796(0xc43c4)
1c01d72c:	02960210 	addi.w	$r16,$r16,1408(0x580)
1c01d730:	5c09e951 	bne	$r10,$r17,2536(0x9e8) # 1c01e118 <inst_error>
1c01d734:	5c09e570 	bne	$r11,$r16,2532(0x9e4) # 1c01e118 <inst_error>
1c01d738:	145cd5b0 	lu12i.w	$r16,190125(0x2e6ad)
1c01d73c:	02acaa10 	addi.w	$r16,$r16,-1238(0xb2a)
1c01d740:	147ff271 	lu12i.w	$r17,262035(0x3ff93)
1c01d744:	02839231 	addi.w	$r17,$r17,228(0xe4)
1c01d748:	1400000a 	lu12i.w	$r10,0
1c01d74c:	1400000b 	lu12i.w	$r11,0
1c01d750:	50001400 	b	20(0x14) # 1c01d764 <n20_b_test+0x37c>
1c01d754:	145cd5aa 	lu12i.w	$r10,190125(0x2e6ad)
1c01d758:	02aca94a 	addi.w	$r10,$r10,-1238(0xb2a)
1c01d75c:	50001000 	b	16(0x10) # 1c01d76c <n20_b_test+0x384>
1c01d760:	50001400 	b	20(0x14) # 1c01d774 <n20_b_test+0x38c>
1c01d764:	53fff3ff 	b	-16(0xffffff0) # 1c01d754 <n20_b_test+0x36c>
1c01d768:	50000c00 	b	12(0xc) # 1c01d774 <n20_b_test+0x38c>
1c01d76c:	147ff26b 	lu12i.w	$r11,262035(0x3ff93)
1c01d770:	0283916b 	addi.w	$r11,$r11,228(0xe4)
1c01d774:	145cd5b1 	lu12i.w	$r17,190125(0x2e6ad)
1c01d778:	02acaa31 	addi.w	$r17,$r17,-1238(0xb2a)
1c01d77c:	147ff270 	lu12i.w	$r16,262035(0x3ff93)
1c01d780:	02839210 	addi.w	$r16,$r16,228(0xe4)
1c01d784:	5c099551 	bne	$r10,$r17,2452(0x994) # 1c01e118 <inst_error>
1c01d788:	5c099170 	bne	$r11,$r16,2448(0x990) # 1c01e118 <inst_error>
1c01d78c:	14ae02d0 	lu12i.w	$r16,356374(0x57016)
1c01d790:	02970210 	addi.w	$r16,$r16,1472(0x5c0)
1c01d794:	153097d1 	lu12i.w	$r17,-424770(0x984be)
1c01d798:	02a1e231 	addi.w	$r17,$r17,-1928(0x878)
1c01d79c:	1400000a 	lu12i.w	$r10,0
1c01d7a0:	1400000b 	lu12i.w	$r11,0
1c01d7a4:	50001400 	b	20(0x14) # 1c01d7b8 <n20_b_test+0x3d0>
1c01d7a8:	14ae02ca 	lu12i.w	$r10,356374(0x57016)
1c01d7ac:	0297014a 	addi.w	$r10,$r10,1472(0x5c0)
1c01d7b0:	50001000 	b	16(0x10) # 1c01d7c0 <n20_b_test+0x3d8>
1c01d7b4:	50001400 	b	20(0x14) # 1c01d7c8 <n20_b_test+0x3e0>
1c01d7b8:	53fff3ff 	b	-16(0xffffff0) # 1c01d7a8 <n20_b_test+0x3c0>
1c01d7bc:	50000c00 	b	12(0xc) # 1c01d7c8 <n20_b_test+0x3e0>
1c01d7c0:	153097cb 	lu12i.w	$r11,-424770(0x984be)
1c01d7c4:	02a1e16b 	addi.w	$r11,$r11,-1928(0x878)
1c01d7c8:	14ae02d1 	lu12i.w	$r17,356374(0x57016)
1c01d7cc:	02970231 	addi.w	$r17,$r17,1472(0x5c0)
1c01d7d0:	153097d0 	lu12i.w	$r16,-424770(0x984be)
1c01d7d4:	02a1e210 	addi.w	$r16,$r16,-1928(0x878)
1c01d7d8:	5c094151 	bne	$r10,$r17,2368(0x940) # 1c01e118 <inst_error>
1c01d7dc:	5c093d70 	bne	$r11,$r16,2364(0x93c) # 1c01e118 <inst_error>
1c01d7e0:	15103ad0 	lu12i.w	$r16,-491050(0x881d6)
1c01d7e4:	02a00210 	addi.w	$r16,$r16,-2048(0x800)
1c01d7e8:	14069cd1 	lu12i.w	$r17,13542(0x34e6)
1c01d7ec:	02800231 	addi.w	$r17,$r17,0
1c01d7f0:	1400000a 	lu12i.w	$r10,0
1c01d7f4:	1400000b 	lu12i.w	$r11,0
1c01d7f8:	50001400 	b	20(0x14) # 1c01d80c <n20_b_test+0x424>
1c01d7fc:	15103aca 	lu12i.w	$r10,-491050(0x881d6)
1c01d800:	02a0014a 	addi.w	$r10,$r10,-2048(0x800)
1c01d804:	50001000 	b	16(0x10) # 1c01d814 <n20_b_test+0x42c>
1c01d808:	50001400 	b	20(0x14) # 1c01d81c <n20_b_test+0x434>
1c01d80c:	53fff3ff 	b	-16(0xffffff0) # 1c01d7fc <n20_b_test+0x414>
1c01d810:	50000c00 	b	12(0xc) # 1c01d81c <n20_b_test+0x434>
1c01d814:	14069ccb 	lu12i.w	$r11,13542(0x34e6)
1c01d818:	0280016b 	addi.w	$r11,$r11,0
1c01d81c:	15103ad1 	lu12i.w	$r17,-491050(0x881d6)
1c01d820:	02a00231 	addi.w	$r17,$r17,-2048(0x800)
1c01d824:	14069cd0 	lu12i.w	$r16,13542(0x34e6)
1c01d828:	02800210 	addi.w	$r16,$r16,0
1c01d82c:	5c08ed51 	bne	$r10,$r17,2284(0x8ec) # 1c01e118 <inst_error>
1c01d830:	5c08e970 	bne	$r11,$r16,2280(0x8e8) # 1c01e118 <inst_error>
1c01d834:	1514b690 	lu12i.w	$r16,-481868(0x8a5b4)
1c01d838:	02af8210 	addi.w	$r16,$r16,-1056(0xbe0)
1c01d83c:	157296d1 	lu12i.w	$r17,-289610(0xb94b6)
1c01d840:	028dda31 	addi.w	$r17,$r17,886(0x376)
1c01d844:	1400000a 	lu12i.w	$r10,0
1c01d848:	1400000b 	lu12i.w	$r11,0
1c01d84c:	50001400 	b	20(0x14) # 1c01d860 <n20_b_test+0x478>
1c01d850:	1514b68a 	lu12i.w	$r10,-481868(0x8a5b4)
1c01d854:	02af814a 	addi.w	$r10,$r10,-1056(0xbe0)
1c01d858:	50001000 	b	16(0x10) # 1c01d868 <n20_b_test+0x480>
1c01d85c:	50001400 	b	20(0x14) # 1c01d870 <n20_b_test+0x488>
1c01d860:	53fff3ff 	b	-16(0xffffff0) # 1c01d850 <n20_b_test+0x468>
1c01d864:	50000c00 	b	12(0xc) # 1c01d870 <n20_b_test+0x488>
1c01d868:	157296cb 	lu12i.w	$r11,-289610(0xb94b6)
1c01d86c:	028dd96b 	addi.w	$r11,$r11,886(0x376)
1c01d870:	1514b691 	lu12i.w	$r17,-481868(0x8a5b4)
1c01d874:	02af8231 	addi.w	$r17,$r17,-1056(0xbe0)
1c01d878:	157296d0 	lu12i.w	$r16,-289610(0xb94b6)
1c01d87c:	028dda10 	addi.w	$r16,$r16,886(0x376)
1c01d880:	5c089951 	bne	$r10,$r17,2200(0x898) # 1c01e118 <inst_error>
1c01d884:	5c089570 	bne	$r11,$r16,2196(0x894) # 1c01e118 <inst_error>
1c01d888:	1516ebb0 	lu12i.w	$r16,-477347(0x8b75d)
1c01d88c:	02b94a10 	addi.w	$r16,$r16,-430(0xe52)
1c01d890:	14276f51 	lu12i.w	$r17,80762(0x13b7a)
1c01d894:	029e0231 	addi.w	$r17,$r17,1920(0x780)
1c01d898:	1400000a 	lu12i.w	$r10,0
1c01d89c:	1400000b 	lu12i.w	$r11,0
1c01d8a0:	50001400 	b	20(0x14) # 1c01d8b4 <n20_b_test+0x4cc>
1c01d8a4:	1516ebaa 	lu12i.w	$r10,-477347(0x8b75d)
1c01d8a8:	02b9494a 	addi.w	$r10,$r10,-430(0xe52)
1c01d8ac:	50001000 	b	16(0x10) # 1c01d8bc <n20_b_test+0x4d4>
1c01d8b0:	50001400 	b	20(0x14) # 1c01d8c4 <n20_b_test+0x4dc>
1c01d8b4:	53fff3ff 	b	-16(0xffffff0) # 1c01d8a4 <n20_b_test+0x4bc>
1c01d8b8:	50000c00 	b	12(0xc) # 1c01d8c4 <n20_b_test+0x4dc>
1c01d8bc:	14276f4b 	lu12i.w	$r11,80762(0x13b7a)
1c01d8c0:	029e016b 	addi.w	$r11,$r11,1920(0x780)
1c01d8c4:	1516ebb1 	lu12i.w	$r17,-477347(0x8b75d)
1c01d8c8:	02b94a31 	addi.w	$r17,$r17,-430(0xe52)
1c01d8cc:	14276f50 	lu12i.w	$r16,80762(0x13b7a)
1c01d8d0:	029e0210 	addi.w	$r16,$r16,1920(0x780)
1c01d8d4:	5c084551 	bne	$r10,$r17,2116(0x844) # 1c01e118 <inst_error>
1c01d8d8:	5c084170 	bne	$r11,$r16,2112(0x840) # 1c01e118 <inst_error>
1c01d8dc:	15f9b630 	lu12i.w	$r16,-12879(0xfcdb1)
1c01d8e0:	02886210 	addi.w	$r16,$r16,536(0x218)
1c01d8e4:	15fe9071 	lu12i.w	$r17,-2941(0xff483)
1c01d8e8:	0294e231 	addi.w	$r17,$r17,1336(0x538)
1c01d8ec:	1400000a 	lu12i.w	$r10,0
1c01d8f0:	1400000b 	lu12i.w	$r11,0
1c01d8f4:	50001400 	b	20(0x14) # 1c01d908 <n20_b_test+0x520>
1c01d8f8:	15f9b62a 	lu12i.w	$r10,-12879(0xfcdb1)
1c01d8fc:	0288614a 	addi.w	$r10,$r10,536(0x218)
1c01d900:	50001000 	b	16(0x10) # 1c01d910 <n20_b_test+0x528>
1c01d904:	50001400 	b	20(0x14) # 1c01d918 <n20_b_test+0x530>
1c01d908:	53fff3ff 	b	-16(0xffffff0) # 1c01d8f8 <n20_b_test+0x510>
1c01d90c:	50000c00 	b	12(0xc) # 1c01d918 <n20_b_test+0x530>
1c01d910:	15fe906b 	lu12i.w	$r11,-2941(0xff483)
1c01d914:	0294e16b 	addi.w	$r11,$r11,1336(0x538)
1c01d918:	15f9b631 	lu12i.w	$r17,-12879(0xfcdb1)
1c01d91c:	02886231 	addi.w	$r17,$r17,536(0x218)
1c01d920:	15fe9070 	lu12i.w	$r16,-2941(0xff483)
1c01d924:	0294e210 	addi.w	$r16,$r16,1336(0x538)
1c01d928:	5c07f151 	bne	$r10,$r17,2032(0x7f0) # 1c01e118 <inst_error>
1c01d92c:	5c07ed70 	bne	$r11,$r16,2028(0x7ec) # 1c01e118 <inst_error>
1c01d930:	1459c510 	lu12i.w	$r16,183848(0x2ce28)
1c01d934:	02a44a10 	addi.w	$r16,$r16,-1774(0x912)
1c01d938:	15c225d1 	lu12i.w	$r17,-126674(0xe112e)
1c01d93c:	02b30231 	addi.w	$r17,$r17,-832(0xcc0)
1c01d940:	1400000a 	lu12i.w	$r10,0
1c01d944:	1400000b 	lu12i.w	$r11,0
1c01d948:	50001400 	b	20(0x14) # 1c01d95c <n20_b_test+0x574>
1c01d94c:	1459c50a 	lu12i.w	$r10,183848(0x2ce28)
1c01d950:	02a4494a 	addi.w	$r10,$r10,-1774(0x912)
1c01d954:	50001000 	b	16(0x10) # 1c01d964 <n20_b_test+0x57c>
1c01d958:	50001400 	b	20(0x14) # 1c01d96c <n20_b_test+0x584>
1c01d95c:	53fff3ff 	b	-16(0xffffff0) # 1c01d94c <n20_b_test+0x564>
1c01d960:	50000c00 	b	12(0xc) # 1c01d96c <n20_b_test+0x584>
1c01d964:	15c225cb 	lu12i.w	$r11,-126674(0xe112e)
1c01d968:	02b3016b 	addi.w	$r11,$r11,-832(0xcc0)
1c01d96c:	1459c511 	lu12i.w	$r17,183848(0x2ce28)
1c01d970:	02a44a31 	addi.w	$r17,$r17,-1774(0x912)
1c01d974:	15c225d0 	lu12i.w	$r16,-126674(0xe112e)
1c01d978:	02b30210 	addi.w	$r16,$r16,-832(0xcc0)
1c01d97c:	5c079d51 	bne	$r10,$r17,1948(0x79c) # 1c01e118 <inst_error>
1c01d980:	5c079970 	bne	$r11,$r16,1944(0x798) # 1c01e118 <inst_error>
1c01d984:	146917b0 	lu12i.w	$r16,215229(0x348bd)
1c01d988:	02b0ca10 	addi.w	$r16,$r16,-974(0xc32)
1c01d98c:	155e29d1 	lu12i.w	$r17,-331442(0xaf14e)
1c01d990:	02a23a31 	addi.w	$r17,$r17,-1906(0x88e)
1c01d994:	1400000a 	lu12i.w	$r10,0
1c01d998:	1400000b 	lu12i.w	$r11,0
1c01d99c:	50001400 	b	20(0x14) # 1c01d9b0 <n20_b_test+0x5c8>
1c01d9a0:	146917aa 	lu12i.w	$r10,215229(0x348bd)
1c01d9a4:	02b0c94a 	addi.w	$r10,$r10,-974(0xc32)
1c01d9a8:	50001000 	b	16(0x10) # 1c01d9b8 <n20_b_test+0x5d0>
1c01d9ac:	50001400 	b	20(0x14) # 1c01d9c0 <n20_b_test+0x5d8>
1c01d9b0:	53fff3ff 	b	-16(0xffffff0) # 1c01d9a0 <n20_b_test+0x5b8>
1c01d9b4:	50000c00 	b	12(0xc) # 1c01d9c0 <n20_b_test+0x5d8>
1c01d9b8:	155e29cb 	lu12i.w	$r11,-331442(0xaf14e)
1c01d9bc:	02a2396b 	addi.w	$r11,$r11,-1906(0x88e)
1c01d9c0:	146917b1 	lu12i.w	$r17,215229(0x348bd)
1c01d9c4:	02b0ca31 	addi.w	$r17,$r17,-974(0xc32)
1c01d9c8:	155e29d0 	lu12i.w	$r16,-331442(0xaf14e)
1c01d9cc:	02a23a10 	addi.w	$r16,$r16,-1906(0x88e)
1c01d9d0:	5c074951 	bne	$r10,$r17,1864(0x748) # 1c01e118 <inst_error>
1c01d9d4:	5c074570 	bne	$r11,$r16,1860(0x744) # 1c01e118 <inst_error>
1c01d9d8:	15581a50 	lu12i.w	$r16,-343854(0xac0d2)
1c01d9dc:	02ae0a10 	addi.w	$r16,$r16,-1150(0xb82)
1c01d9e0:	150b3951 	lu12i.w	$r17,-501302(0x859ca)
1c01d9e4:	02be8231 	addi.w	$r17,$r17,-96(0xfa0)
1c01d9e8:	1400000a 	lu12i.w	$r10,0
1c01d9ec:	1400000b 	lu12i.w	$r11,0
1c01d9f0:	50001400 	b	20(0x14) # 1c01da04 <n20_b_test+0x61c>
1c01d9f4:	15581a4a 	lu12i.w	$r10,-343854(0xac0d2)
1c01d9f8:	02ae094a 	addi.w	$r10,$r10,-1150(0xb82)
1c01d9fc:	50001000 	b	16(0x10) # 1c01da0c <n20_b_test+0x624>
1c01da00:	50001400 	b	20(0x14) # 1c01da14 <n20_b_test+0x62c>
1c01da04:	53fff3ff 	b	-16(0xffffff0) # 1c01d9f4 <n20_b_test+0x60c>
1c01da08:	50000c00 	b	12(0xc) # 1c01da14 <n20_b_test+0x62c>
1c01da0c:	150b394b 	lu12i.w	$r11,-501302(0x859ca)
1c01da10:	02be816b 	addi.w	$r11,$r11,-96(0xfa0)
1c01da14:	15581a51 	lu12i.w	$r17,-343854(0xac0d2)
1c01da18:	02ae0a31 	addi.w	$r17,$r17,-1150(0xb82)
1c01da1c:	150b3950 	lu12i.w	$r16,-501302(0x859ca)
1c01da20:	02be8210 	addi.w	$r16,$r16,-96(0xfa0)
1c01da24:	5c06f551 	bne	$r10,$r17,1780(0x6f4) # 1c01e118 <inst_error>
1c01da28:	5c06f170 	bne	$r11,$r16,1776(0x6f0) # 1c01e118 <inst_error>
1c01da2c:	1452cf70 	lu12i.w	$r16,169595(0x2967b)
1c01da30:	02a00210 	addi.w	$r16,$r16,-2048(0x800)
1c01da34:	1537cd11 	lu12i.w	$r17,-410008(0x9be68)
1c01da38:	02a78231 	addi.w	$r17,$r17,-1568(0x9e0)
1c01da3c:	1400000a 	lu12i.w	$r10,0
1c01da40:	1400000b 	lu12i.w	$r11,0
1c01da44:	50001400 	b	20(0x14) # 1c01da58 <n20_b_test+0x670>
1c01da48:	1452cf6a 	lu12i.w	$r10,169595(0x2967b)
1c01da4c:	02a0014a 	addi.w	$r10,$r10,-2048(0x800)
1c01da50:	50001000 	b	16(0x10) # 1c01da60 <n20_b_test+0x678>
1c01da54:	50001400 	b	20(0x14) # 1c01da68 <n20_b_test+0x680>
1c01da58:	53fff3ff 	b	-16(0xffffff0) # 1c01da48 <n20_b_test+0x660>
1c01da5c:	50000c00 	b	12(0xc) # 1c01da68 <n20_b_test+0x680>
1c01da60:	1537cd0b 	lu12i.w	$r11,-410008(0x9be68)
1c01da64:	02a7816b 	addi.w	$r11,$r11,-1568(0x9e0)
1c01da68:	1452cf71 	lu12i.w	$r17,169595(0x2967b)
1c01da6c:	02a00231 	addi.w	$r17,$r17,-2048(0x800)
1c01da70:	1537cd10 	lu12i.w	$r16,-410008(0x9be68)
1c01da74:	02a78210 	addi.w	$r16,$r16,-1568(0x9e0)
1c01da78:	5c06a151 	bne	$r10,$r17,1696(0x6a0) # 1c01e118 <inst_error>
1c01da7c:	5c069d70 	bne	$r11,$r16,1692(0x69c) # 1c01e118 <inst_error>
1c01da80:	14a8d070 	lu12i.w	$r16,345731(0x54683)
1c01da84:	02ae6e10 	addi.w	$r16,$r16,-1125(0xb9b)
1c01da88:	15ed5f91 	lu12i.w	$r17,-38148(0xf6afc)
1c01da8c:	0284c231 	addi.w	$r17,$r17,304(0x130)
1c01da90:	1400000a 	lu12i.w	$r10,0
1c01da94:	1400000b 	lu12i.w	$r11,0
1c01da98:	50001400 	b	20(0x14) # 1c01daac <n20_b_test+0x6c4>
1c01da9c:	14a8d06a 	lu12i.w	$r10,345731(0x54683)
1c01daa0:	02ae6d4a 	addi.w	$r10,$r10,-1125(0xb9b)
1c01daa4:	50001000 	b	16(0x10) # 1c01dab4 <n20_b_test+0x6cc>
1c01daa8:	50001400 	b	20(0x14) # 1c01dabc <n20_b_test+0x6d4>
1c01daac:	53fff3ff 	b	-16(0xffffff0) # 1c01da9c <n20_b_test+0x6b4>
1c01dab0:	50000c00 	b	12(0xc) # 1c01dabc <n20_b_test+0x6d4>
1c01dab4:	15ed5f8b 	lu12i.w	$r11,-38148(0xf6afc)
1c01dab8:	0284c16b 	addi.w	$r11,$r11,304(0x130)
1c01dabc:	14a8d071 	lu12i.w	$r17,345731(0x54683)
1c01dac0:	02ae6e31 	addi.w	$r17,$r17,-1125(0xb9b)
1c01dac4:	15ed5f90 	lu12i.w	$r16,-38148(0xf6afc)
1c01dac8:	0284c210 	addi.w	$r16,$r16,304(0x130)
1c01dacc:	5c064d51 	bne	$r10,$r17,1612(0x64c) # 1c01e118 <inst_error>
1c01dad0:	5c064970 	bne	$r11,$r16,1608(0x648) # 1c01e118 <inst_error>
1c01dad4:	14a8d950 	lu12i.w	$r16,345802(0x546ca)
1c01dad8:	02a3c210 	addi.w	$r16,$r16,-1808(0x8f0)
1c01dadc:	14a97631 	lu12i.w	$r17,347057(0x54bb1)
1c01dae0:	02a81a31 	addi.w	$r17,$r17,-1530(0xa06)
1c01dae4:	1400000a 	lu12i.w	$r10,0
1c01dae8:	1400000b 	lu12i.w	$r11,0
1c01daec:	50001400 	b	20(0x14) # 1c01db00 <n20_b_test+0x718>
1c01daf0:	14a8d94a 	lu12i.w	$r10,345802(0x546ca)
1c01daf4:	02a3c14a 	addi.w	$r10,$r10,-1808(0x8f0)
1c01daf8:	50001000 	b	16(0x10) # 1c01db08 <n20_b_test+0x720>
1c01dafc:	50001400 	b	20(0x14) # 1c01db10 <n20_b_test+0x728>
1c01db00:	53fff3ff 	b	-16(0xffffff0) # 1c01daf0 <n20_b_test+0x708>
1c01db04:	50000c00 	b	12(0xc) # 1c01db10 <n20_b_test+0x728>
1c01db08:	14a9762b 	lu12i.w	$r11,347057(0x54bb1)
1c01db0c:	02a8196b 	addi.w	$r11,$r11,-1530(0xa06)
1c01db10:	14a8d951 	lu12i.w	$r17,345802(0x546ca)
1c01db14:	02a3c231 	addi.w	$r17,$r17,-1808(0x8f0)
1c01db18:	14a97630 	lu12i.w	$r16,347057(0x54bb1)
1c01db1c:	02a81a10 	addi.w	$r16,$r16,-1530(0xa06)
1c01db20:	5c05f951 	bne	$r10,$r17,1528(0x5f8) # 1c01e118 <inst_error>
1c01db24:	5c05f570 	bne	$r11,$r16,1524(0x5f4) # 1c01e118 <inst_error>
1c01db28:	1416a390 	lu12i.w	$r16,46364(0xb51c)
1c01db2c:	02bcfe10 	addi.w	$r16,$r16,-193(0xf3f)
1c01db30:	14638471 	lu12i.w	$r17,203811(0x31c23)
1c01db34:	02bbf231 	addi.w	$r17,$r17,-260(0xefc)
1c01db38:	1400000a 	lu12i.w	$r10,0
1c01db3c:	1400000b 	lu12i.w	$r11,0
1c01db40:	50001400 	b	20(0x14) # 1c01db54 <n20_b_test+0x76c>
1c01db44:	1416a38a 	lu12i.w	$r10,46364(0xb51c)
1c01db48:	02bcfd4a 	addi.w	$r10,$r10,-193(0xf3f)
1c01db4c:	50001000 	b	16(0x10) # 1c01db5c <n20_b_test+0x774>
1c01db50:	50001400 	b	20(0x14) # 1c01db64 <n20_b_test+0x77c>
1c01db54:	53fff3ff 	b	-16(0xffffff0) # 1c01db44 <n20_b_test+0x75c>
1c01db58:	50000c00 	b	12(0xc) # 1c01db64 <n20_b_test+0x77c>
1c01db5c:	1463846b 	lu12i.w	$r11,203811(0x31c23)
1c01db60:	02bbf16b 	addi.w	$r11,$r11,-260(0xefc)
1c01db64:	1416a391 	lu12i.w	$r17,46364(0xb51c)
1c01db68:	02bcfe31 	addi.w	$r17,$r17,-193(0xf3f)
1c01db6c:	14638470 	lu12i.w	$r16,203811(0x31c23)
1c01db70:	02bbf210 	addi.w	$r16,$r16,-260(0xefc)
1c01db74:	5c05a551 	bne	$r10,$r17,1444(0x5a4) # 1c01e118 <inst_error>
1c01db78:	5c05a170 	bne	$r11,$r16,1440(0x5a0) # 1c01e118 <inst_error>
1c01db7c:	14095ab0 	lu12i.w	$r16,19157(0x4ad5)
1c01db80:	02a16a10 	addi.w	$r16,$r16,-1958(0x85a)
1c01db84:	1473d0d1 	lu12i.w	$r17,237190(0x39e86)
1c01db88:	02bd6631 	addi.w	$r17,$r17,-167(0xf59)
1c01db8c:	1400000a 	lu12i.w	$r10,0
1c01db90:	1400000b 	lu12i.w	$r11,0
1c01db94:	50001400 	b	20(0x14) # 1c01dba8 <n20_b_test+0x7c0>
1c01db98:	14095aaa 	lu12i.w	$r10,19157(0x4ad5)
1c01db9c:	02a1694a 	addi.w	$r10,$r10,-1958(0x85a)
1c01dba0:	50001000 	b	16(0x10) # 1c01dbb0 <n20_b_test+0x7c8>
1c01dba4:	50001400 	b	20(0x14) # 1c01dbb8 <n20_b_test+0x7d0>
1c01dba8:	53fff3ff 	b	-16(0xffffff0) # 1c01db98 <n20_b_test+0x7b0>
1c01dbac:	50000c00 	b	12(0xc) # 1c01dbb8 <n20_b_test+0x7d0>
1c01dbb0:	1473d0cb 	lu12i.w	$r11,237190(0x39e86)
1c01dbb4:	02bd656b 	addi.w	$r11,$r11,-167(0xf59)
1c01dbb8:	14095ab1 	lu12i.w	$r17,19157(0x4ad5)
1c01dbbc:	02a16a31 	addi.w	$r17,$r17,-1958(0x85a)
1c01dbc0:	1473d0d0 	lu12i.w	$r16,237190(0x39e86)
1c01dbc4:	02bd6610 	addi.w	$r16,$r16,-167(0xf59)
1c01dbc8:	5c055151 	bne	$r10,$r17,1360(0x550) # 1c01e118 <inst_error>
1c01dbcc:	5c054d70 	bne	$r11,$r16,1356(0x54c) # 1c01e118 <inst_error>
1c01dbd0:	15cfcaf0 	lu12i.w	$r16,-98729(0xe7e57)
1c01dbd4:	029b6210 	addi.w	$r16,$r16,1752(0x6d8)
1c01dbd8:	14d19431 	lu12i.w	$r17,429217(0x68ca1)
1c01dbdc:	02b7e631 	addi.w	$r17,$r17,-519(0xdf9)
1c01dbe0:	1400000a 	lu12i.w	$r10,0
1c01dbe4:	1400000b 	lu12i.w	$r11,0
1c01dbe8:	50001400 	b	20(0x14) # 1c01dbfc <n20_b_test+0x814>
1c01dbec:	15cfcaea 	lu12i.w	$r10,-98729(0xe7e57)
1c01dbf0:	029b614a 	addi.w	$r10,$r10,1752(0x6d8)
1c01dbf4:	50001000 	b	16(0x10) # 1c01dc04 <n20_b_test+0x81c>
1c01dbf8:	50001400 	b	20(0x14) # 1c01dc0c <n20_b_test+0x824>
1c01dbfc:	53fff3ff 	b	-16(0xffffff0) # 1c01dbec <n20_b_test+0x804>
1c01dc00:	50000c00 	b	12(0xc) # 1c01dc0c <n20_b_test+0x824>
1c01dc04:	14d1942b 	lu12i.w	$r11,429217(0x68ca1)
1c01dc08:	02b7e56b 	addi.w	$r11,$r11,-519(0xdf9)
1c01dc0c:	15cfcaf1 	lu12i.w	$r17,-98729(0xe7e57)
1c01dc10:	029b6231 	addi.w	$r17,$r17,1752(0x6d8)
1c01dc14:	14d19430 	lu12i.w	$r16,429217(0x68ca1)
1c01dc18:	02b7e610 	addi.w	$r16,$r16,-519(0xdf9)
1c01dc1c:	5c04fd51 	bne	$r10,$r17,1276(0x4fc) # 1c01e118 <inst_error>
1c01dc20:	5c04f970 	bne	$r11,$r16,1272(0x4f8) # 1c01e118 <inst_error>
1c01dc24:	157425b0 	lu12i.w	$r16,-286419(0xba12d)
1c01dc28:	02a4ba10 	addi.w	$r16,$r16,-1746(0x92e)
1c01dc2c:	150aaf11 	lu12i.w	$r17,-502408(0x85578)
1c01dc30:	02b50a31 	addi.w	$r17,$r17,-702(0xd42)
1c01dc34:	1400000a 	lu12i.w	$r10,0
1c01dc38:	1400000b 	lu12i.w	$r11,0
1c01dc3c:	50001400 	b	20(0x14) # 1c01dc50 <n20_b_test+0x868>
1c01dc40:	157425aa 	lu12i.w	$r10,-286419(0xba12d)
1c01dc44:	02a4b94a 	addi.w	$r10,$r10,-1746(0x92e)
1c01dc48:	50001000 	b	16(0x10) # 1c01dc58 <n20_b_test+0x870>
1c01dc4c:	50001400 	b	20(0x14) # 1c01dc60 <n20_b_test+0x878>
1c01dc50:	53fff3ff 	b	-16(0xffffff0) # 1c01dc40 <n20_b_test+0x858>
1c01dc54:	50000c00 	b	12(0xc) # 1c01dc60 <n20_b_test+0x878>
1c01dc58:	150aaf0b 	lu12i.w	$r11,-502408(0x85578)
1c01dc5c:	02b5096b 	addi.w	$r11,$r11,-702(0xd42)
1c01dc60:	157425b1 	lu12i.w	$r17,-286419(0xba12d)
1c01dc64:	02a4ba31 	addi.w	$r17,$r17,-1746(0x92e)
1c01dc68:	150aaf10 	lu12i.w	$r16,-502408(0x85578)
1c01dc6c:	02b50a10 	addi.w	$r16,$r16,-702(0xd42)
1c01dc70:	5c04a951 	bne	$r10,$r17,1192(0x4a8) # 1c01e118 <inst_error>
1c01dc74:	5c04a570 	bne	$r11,$r16,1188(0x4a4) # 1c01e118 <inst_error>
1c01dc78:	14807690 	lu12i.w	$r16,263092(0x403b4)
1c01dc7c:	02916210 	addi.w	$r16,$r16,1112(0x458)
1c01dc80:	14d7d971 	lu12i.w	$r17,442059(0x6becb)
1c01dc84:	029d5231 	addi.w	$r17,$r17,1876(0x754)
1c01dc88:	1400000a 	lu12i.w	$r10,0
1c01dc8c:	1400000b 	lu12i.w	$r11,0
1c01dc90:	50001400 	b	20(0x14) # 1c01dca4 <n20_b_test+0x8bc>
1c01dc94:	1480768a 	lu12i.w	$r10,263092(0x403b4)
1c01dc98:	0291614a 	addi.w	$r10,$r10,1112(0x458)
1c01dc9c:	50001000 	b	16(0x10) # 1c01dcac <n20_b_test+0x8c4>
1c01dca0:	50001400 	b	20(0x14) # 1c01dcb4 <n20_b_test+0x8cc>
1c01dca4:	53fff3ff 	b	-16(0xffffff0) # 1c01dc94 <n20_b_test+0x8ac>
1c01dca8:	50000c00 	b	12(0xc) # 1c01dcb4 <n20_b_test+0x8cc>
1c01dcac:	14d7d96b 	lu12i.w	$r11,442059(0x6becb)
1c01dcb0:	029d516b 	addi.w	$r11,$r11,1876(0x754)
1c01dcb4:	14807691 	lu12i.w	$r17,263092(0x403b4)
1c01dcb8:	02916231 	addi.w	$r17,$r17,1112(0x458)
1c01dcbc:	14d7d970 	lu12i.w	$r16,442059(0x6becb)
1c01dcc0:	029d5210 	addi.w	$r16,$r16,1876(0x754)
1c01dcc4:	5c045551 	bne	$r10,$r17,1108(0x454) # 1c01e118 <inst_error>
1c01dcc8:	5c045170 	bne	$r11,$r16,1104(0x450) # 1c01e118 <inst_error>
1c01dccc:	151edaf0 	lu12i.w	$r16,-461097(0x8f6d7)
1c01dcd0:	02ad2210 	addi.w	$r16,$r16,-1208(0xb48)
1c01dcd4:	15c2ac91 	lu12i.w	$r17,-125596(0xe1564)
1c01dcd8:	02b8a231 	addi.w	$r17,$r17,-472(0xe28)
1c01dcdc:	1400000a 	lu12i.w	$r10,0
1c01dce0:	1400000b 	lu12i.w	$r11,0
1c01dce4:	50001400 	b	20(0x14) # 1c01dcf8 <n20_b_test+0x910>
1c01dce8:	151edaea 	lu12i.w	$r10,-461097(0x8f6d7)
1c01dcec:	02ad214a 	addi.w	$r10,$r10,-1208(0xb48)
1c01dcf0:	50001000 	b	16(0x10) # 1c01dd00 <n20_b_test+0x918>
1c01dcf4:	50001400 	b	20(0x14) # 1c01dd08 <n20_b_test+0x920>
1c01dcf8:	53fff3ff 	b	-16(0xffffff0) # 1c01dce8 <n20_b_test+0x900>
1c01dcfc:	50000c00 	b	12(0xc) # 1c01dd08 <n20_b_test+0x920>
1c01dd00:	15c2ac8b 	lu12i.w	$r11,-125596(0xe1564)
1c01dd04:	02b8a16b 	addi.w	$r11,$r11,-472(0xe28)
1c01dd08:	151edaf1 	lu12i.w	$r17,-461097(0x8f6d7)
1c01dd0c:	02ad2231 	addi.w	$r17,$r17,-1208(0xb48)
1c01dd10:	15c2ac90 	lu12i.w	$r16,-125596(0xe1564)
1c01dd14:	02b8a210 	addi.w	$r16,$r16,-472(0xe28)
1c01dd18:	5c040151 	bne	$r10,$r17,1024(0x400) # 1c01e118 <inst_error>
1c01dd1c:	5c03fd70 	bne	$r11,$r16,1020(0x3fc) # 1c01e118 <inst_error>
1c01dd20:	15683a70 	lu12i.w	$r16,-310829(0xb41d3)
1c01dd24:	02880e10 	addi.w	$r16,$r16,515(0x203)
1c01dd28:	152c6551 	lu12i.w	$r17,-433366(0x9632a)
1c01dd2c:	02ba0231 	addi.w	$r17,$r17,-384(0xe80)
1c01dd30:	1400000a 	lu12i.w	$r10,0
1c01dd34:	1400000b 	lu12i.w	$r11,0
1c01dd38:	50001400 	b	20(0x14) # 1c01dd4c <n20_b_test+0x964>
1c01dd3c:	15683a6a 	lu12i.w	$r10,-310829(0xb41d3)
1c01dd40:	02880d4a 	addi.w	$r10,$r10,515(0x203)
1c01dd44:	50001000 	b	16(0x10) # 1c01dd54 <n20_b_test+0x96c>
1c01dd48:	50001400 	b	20(0x14) # 1c01dd5c <n20_b_test+0x974>
1c01dd4c:	53fff3ff 	b	-16(0xffffff0) # 1c01dd3c <n20_b_test+0x954>
1c01dd50:	50000c00 	b	12(0xc) # 1c01dd5c <n20_b_test+0x974>
1c01dd54:	152c654b 	lu12i.w	$r11,-433366(0x9632a)
1c01dd58:	02ba016b 	addi.w	$r11,$r11,-384(0xe80)
1c01dd5c:	15683a71 	lu12i.w	$r17,-310829(0xb41d3)
1c01dd60:	02880e31 	addi.w	$r17,$r17,515(0x203)
1c01dd64:	152c6550 	lu12i.w	$r16,-433366(0x9632a)
1c01dd68:	02ba0210 	addi.w	$r16,$r16,-384(0xe80)
1c01dd6c:	5c03ad51 	bne	$r10,$r17,940(0x3ac) # 1c01e118 <inst_error>
1c01dd70:	5c03a970 	bne	$r11,$r16,936(0x3a8) # 1c01e118 <inst_error>
1c01dd74:	15cd5db0 	lu12i.w	$r16,-103699(0xe6aed)
1c01dd78:	02a32e10 	addi.w	$r16,$r16,-1845(0x8cb)
1c01dd7c:	144fded1 	lu12i.w	$r17,163574(0x27ef6)
1c01dd80:	02bd6e31 	addi.w	$r17,$r17,-165(0xf5b)
1c01dd84:	1400000a 	lu12i.w	$r10,0
1c01dd88:	1400000b 	lu12i.w	$r11,0
1c01dd8c:	50001400 	b	20(0x14) # 1c01dda0 <n20_b_test+0x9b8>
1c01dd90:	15cd5daa 	lu12i.w	$r10,-103699(0xe6aed)
1c01dd94:	02a32d4a 	addi.w	$r10,$r10,-1845(0x8cb)
1c01dd98:	50001000 	b	16(0x10) # 1c01dda8 <n20_b_test+0x9c0>
1c01dd9c:	50001400 	b	20(0x14) # 1c01ddb0 <n20_b_test+0x9c8>
1c01dda0:	53fff3ff 	b	-16(0xffffff0) # 1c01dd90 <n20_b_test+0x9a8>
1c01dda4:	50000c00 	b	12(0xc) # 1c01ddb0 <n20_b_test+0x9c8>
1c01dda8:	144fdecb 	lu12i.w	$r11,163574(0x27ef6)
1c01ddac:	02bd6d6b 	addi.w	$r11,$r11,-165(0xf5b)
1c01ddb0:	15cd5db1 	lu12i.w	$r17,-103699(0xe6aed)
1c01ddb4:	02a32e31 	addi.w	$r17,$r17,-1845(0x8cb)
1c01ddb8:	144fded0 	lu12i.w	$r16,163574(0x27ef6)
1c01ddbc:	02bd6e10 	addi.w	$r16,$r16,-165(0xf5b)
1c01ddc0:	5c035951 	bne	$r10,$r17,856(0x358) # 1c01e118 <inst_error>
1c01ddc4:	5c035570 	bne	$r11,$r16,852(0x354) # 1c01e118 <inst_error>
1c01ddc8:	14bddbd0 	lu12i.w	$r16,388830(0x5eede)
1c01ddcc:	02b84210 	addi.w	$r16,$r16,-496(0xe10)
1c01ddd0:	1529d691 	lu12i.w	$r17,-438604(0x94eb4)
1c01ddd4:	02a11231 	addi.w	$r17,$r17,-1980(0x844)
1c01ddd8:	1400000a 	lu12i.w	$r10,0
1c01dddc:	1400000b 	lu12i.w	$r11,0
1c01dde0:	50001400 	b	20(0x14) # 1c01ddf4 <n20_b_test+0xa0c>
1c01dde4:	14bddbca 	lu12i.w	$r10,388830(0x5eede)
1c01dde8:	02b8414a 	addi.w	$r10,$r10,-496(0xe10)
1c01ddec:	50001000 	b	16(0x10) # 1c01ddfc <n20_b_test+0xa14>
1c01ddf0:	50001400 	b	20(0x14) # 1c01de04 <n20_b_test+0xa1c>
1c01ddf4:	53fff3ff 	b	-16(0xffffff0) # 1c01dde4 <n20_b_test+0x9fc>
1c01ddf8:	50000c00 	b	12(0xc) # 1c01de04 <n20_b_test+0xa1c>
1c01ddfc:	1529d68b 	lu12i.w	$r11,-438604(0x94eb4)
1c01de00:	02a1116b 	addi.w	$r11,$r11,-1980(0x844)
1c01de04:	14bddbd1 	lu12i.w	$r17,388830(0x5eede)
1c01de08:	02b84231 	addi.w	$r17,$r17,-496(0xe10)
1c01de0c:	1529d690 	lu12i.w	$r16,-438604(0x94eb4)
1c01de10:	02a11210 	addi.w	$r16,$r16,-1980(0x844)
1c01de14:	5c030551 	bne	$r10,$r17,772(0x304) # 1c01e118 <inst_error>
1c01de18:	5c030170 	bne	$r11,$r16,768(0x300) # 1c01e118 <inst_error>
1c01de1c:	15076130 	lu12i.w	$r16,-509175(0x83b09)
1c01de20:	02a0da10 	addi.w	$r16,$r16,-1994(0x836)
1c01de24:	14442e91 	lu12i.w	$r17,139636(0x22174)
1c01de28:	02bac231 	addi.w	$r17,$r17,-336(0xeb0)
1c01de2c:	1400000a 	lu12i.w	$r10,0
1c01de30:	1400000b 	lu12i.w	$r11,0
1c01de34:	50001400 	b	20(0x14) # 1c01de48 <n20_b_test+0xa60>
1c01de38:	1507612a 	lu12i.w	$r10,-509175(0x83b09)
1c01de3c:	02a0d94a 	addi.w	$r10,$r10,-1994(0x836)
1c01de40:	50001000 	b	16(0x10) # 1c01de50 <n20_b_test+0xa68>
1c01de44:	50001400 	b	20(0x14) # 1c01de58 <n20_b_test+0xa70>
1c01de48:	53fff3ff 	b	-16(0xffffff0) # 1c01de38 <n20_b_test+0xa50>
1c01de4c:	50000c00 	b	12(0xc) # 1c01de58 <n20_b_test+0xa70>
1c01de50:	14442e8b 	lu12i.w	$r11,139636(0x22174)
1c01de54:	02bac16b 	addi.w	$r11,$r11,-336(0xeb0)
1c01de58:	15076131 	lu12i.w	$r17,-509175(0x83b09)
1c01de5c:	02a0da31 	addi.w	$r17,$r17,-1994(0x836)
1c01de60:	14442e90 	lu12i.w	$r16,139636(0x22174)
1c01de64:	02bac210 	addi.w	$r16,$r16,-336(0xeb0)
1c01de68:	5c02b151 	bne	$r10,$r17,688(0x2b0) # 1c01e118 <inst_error>
1c01de6c:	5c02ad70 	bne	$r11,$r16,684(0x2ac) # 1c01e118 <inst_error>
1c01de70:	14b32650 	lu12i.w	$r16,366898(0x59932)
1c01de74:	02aaba10 	addi.w	$r16,$r16,-1362(0xaae)
1c01de78:	15b793b1 	lu12i.w	$r17,-148323(0xdbc9d)
1c01de7c:	02900231 	addi.w	$r17,$r17,1024(0x400)
1c01de80:	1400000a 	lu12i.w	$r10,0
1c01de84:	1400000b 	lu12i.w	$r11,0
1c01de88:	50001400 	b	20(0x14) # 1c01de9c <n20_b_test+0xab4>
1c01de8c:	14b3264a 	lu12i.w	$r10,366898(0x59932)
1c01de90:	02aab94a 	addi.w	$r10,$r10,-1362(0xaae)
1c01de94:	50001000 	b	16(0x10) # 1c01dea4 <n20_b_test+0xabc>
1c01de98:	50001400 	b	20(0x14) # 1c01deac <n20_b_test+0xac4>
1c01de9c:	53fff3ff 	b	-16(0xffffff0) # 1c01de8c <n20_b_test+0xaa4>
1c01dea0:	50000c00 	b	12(0xc) # 1c01deac <n20_b_test+0xac4>
1c01dea4:	15b793ab 	lu12i.w	$r11,-148323(0xdbc9d)
1c01dea8:	0290016b 	addi.w	$r11,$r11,1024(0x400)
1c01deac:	14b32651 	lu12i.w	$r17,366898(0x59932)
1c01deb0:	02aaba31 	addi.w	$r17,$r17,-1362(0xaae)
1c01deb4:	15b793b0 	lu12i.w	$r16,-148323(0xdbc9d)
1c01deb8:	02900210 	addi.w	$r16,$r16,1024(0x400)
1c01debc:	5c025d51 	bne	$r10,$r17,604(0x25c) # 1c01e118 <inst_error>
1c01dec0:	5c025970 	bne	$r11,$r16,600(0x258) # 1c01e118 <inst_error>
1c01dec4:	140c44b0 	lu12i.w	$r16,25125(0x6225)
1c01dec8:	028f0210 	addi.w	$r16,$r16,960(0x3c0)
1c01decc:	144c5151 	lu12i.w	$r17,156298(0x2628a)
1c01ded0:	028da231 	addi.w	$r17,$r17,872(0x368)
1c01ded4:	1400000a 	lu12i.w	$r10,0
1c01ded8:	1400000b 	lu12i.w	$r11,0
1c01dedc:	50001400 	b	20(0x14) # 1c01def0 <n20_b_test+0xb08>
1c01dee0:	140c44aa 	lu12i.w	$r10,25125(0x6225)
1c01dee4:	028f014a 	addi.w	$r10,$r10,960(0x3c0)
1c01dee8:	50001000 	b	16(0x10) # 1c01def8 <n20_b_test+0xb10>
1c01deec:	50001400 	b	20(0x14) # 1c01df00 <n20_b_test+0xb18>
1c01def0:	53fff3ff 	b	-16(0xffffff0) # 1c01dee0 <n20_b_test+0xaf8>
1c01def4:	50000c00 	b	12(0xc) # 1c01df00 <n20_b_test+0xb18>
1c01def8:	144c514b 	lu12i.w	$r11,156298(0x2628a)
1c01defc:	028da16b 	addi.w	$r11,$r11,872(0x368)
1c01df00:	140c44b1 	lu12i.w	$r17,25125(0x6225)
1c01df04:	028f0231 	addi.w	$r17,$r17,960(0x3c0)
1c01df08:	144c5150 	lu12i.w	$r16,156298(0x2628a)
1c01df0c:	028da210 	addi.w	$r16,$r16,872(0x368)
1c01df10:	5c020951 	bne	$r10,$r17,520(0x208) # 1c01e118 <inst_error>
1c01df14:	5c020570 	bne	$r11,$r16,516(0x204) # 1c01e118 <inst_error>
1c01df18:	1569f0b0 	lu12i.w	$r16,-307323(0xb4f85)
1c01df1c:	02b14210 	addi.w	$r16,$r16,-944(0xc50)
1c01df20:	15aba731 	lu12i.w	$r17,-172743(0xd5d39)
1c01df24:	028e6631 	addi.w	$r17,$r17,921(0x399)
1c01df28:	1400000a 	lu12i.w	$r10,0
1c01df2c:	1400000b 	lu12i.w	$r11,0
1c01df30:	50001400 	b	20(0x14) # 1c01df44 <n20_b_test+0xb5c>
1c01df34:	1569f0aa 	lu12i.w	$r10,-307323(0xb4f85)
1c01df38:	02b1414a 	addi.w	$r10,$r10,-944(0xc50)
1c01df3c:	50001000 	b	16(0x10) # 1c01df4c <n20_b_test+0xb64>
1c01df40:	50001400 	b	20(0x14) # 1c01df54 <n20_b_test+0xb6c>
1c01df44:	53fff3ff 	b	-16(0xffffff0) # 1c01df34 <n20_b_test+0xb4c>
1c01df48:	50000c00 	b	12(0xc) # 1c01df54 <n20_b_test+0xb6c>
1c01df4c:	15aba72b 	lu12i.w	$r11,-172743(0xd5d39)
1c01df50:	028e656b 	addi.w	$r11,$r11,921(0x399)
1c01df54:	1569f0b1 	lu12i.w	$r17,-307323(0xb4f85)
1c01df58:	02b14231 	addi.w	$r17,$r17,-944(0xc50)
1c01df5c:	15aba730 	lu12i.w	$r16,-172743(0xd5d39)
1c01df60:	028e6610 	addi.w	$r16,$r16,921(0x399)
1c01df64:	5c01b551 	bne	$r10,$r17,436(0x1b4) # 1c01e118 <inst_error>
1c01df68:	5c01b170 	bne	$r11,$r16,432(0x1b0) # 1c01e118 <inst_error>
1c01df6c:	14a5d610 	lu12i.w	$r16,339632(0x52eb0)
1c01df70:	02b80210 	addi.w	$r16,$r16,-512(0xe00)
1c01df74:	15f5bbf1 	lu12i.w	$r17,-21025(0xfaddf)
1c01df78:	02983231 	addi.w	$r17,$r17,1548(0x60c)
1c01df7c:	1400000a 	lu12i.w	$r10,0
1c01df80:	1400000b 	lu12i.w	$r11,0
1c01df84:	50001400 	b	20(0x14) # 1c01df98 <n20_b_test+0xbb0>
1c01df88:	14a5d60a 	lu12i.w	$r10,339632(0x52eb0)
1c01df8c:	02b8014a 	addi.w	$r10,$r10,-512(0xe00)
1c01df90:	50001000 	b	16(0x10) # 1c01dfa0 <n20_b_test+0xbb8>
1c01df94:	50001400 	b	20(0x14) # 1c01dfa8 <n20_b_test+0xbc0>
1c01df98:	53fff3ff 	b	-16(0xffffff0) # 1c01df88 <n20_b_test+0xba0>
1c01df9c:	50000c00 	b	12(0xc) # 1c01dfa8 <n20_b_test+0xbc0>
1c01dfa0:	15f5bbeb 	lu12i.w	$r11,-21025(0xfaddf)
1c01dfa4:	0298316b 	addi.w	$r11,$r11,1548(0x60c)
1c01dfa8:	14a5d611 	lu12i.w	$r17,339632(0x52eb0)
1c01dfac:	02b80231 	addi.w	$r17,$r17,-512(0xe00)
1c01dfb0:	15f5bbf0 	lu12i.w	$r16,-21025(0xfaddf)
1c01dfb4:	02983210 	addi.w	$r16,$r16,1548(0x60c)
1c01dfb8:	5c016151 	bne	$r10,$r17,352(0x160) # 1c01e118 <inst_error>
1c01dfbc:	5c015d70 	bne	$r11,$r16,348(0x15c) # 1c01e118 <inst_error>
1c01dfc0:	15a501f0 	lu12i.w	$r16,-186353(0xd280f)
1c01dfc4:	02b82a10 	addi.w	$r16,$r16,-502(0xe0a)
1c01dfc8:	1442edf1 	lu12i.w	$r17,137071(0x2176f)
1c01dfcc:	02930231 	addi.w	$r17,$r17,1216(0x4c0)
1c01dfd0:	1400000a 	lu12i.w	$r10,0
1c01dfd4:	1400000b 	lu12i.w	$r11,0
1c01dfd8:	50001400 	b	20(0x14) # 1c01dfec <n20_b_test+0xc04>
1c01dfdc:	15a501ea 	lu12i.w	$r10,-186353(0xd280f)
1c01dfe0:	02b8294a 	addi.w	$r10,$r10,-502(0xe0a)
1c01dfe4:	50001000 	b	16(0x10) # 1c01dff4 <n20_b_test+0xc0c>
1c01dfe8:	50001400 	b	20(0x14) # 1c01dffc <n20_b_test+0xc14>
1c01dfec:	53fff3ff 	b	-16(0xffffff0) # 1c01dfdc <n20_b_test+0xbf4>
1c01dff0:	50000c00 	b	12(0xc) # 1c01dffc <n20_b_test+0xc14>
1c01dff4:	1442edeb 	lu12i.w	$r11,137071(0x2176f)
1c01dff8:	0293016b 	addi.w	$r11,$r11,1216(0x4c0)
1c01dffc:	15a501f1 	lu12i.w	$r17,-186353(0xd280f)
1c01e000:	02b82a31 	addi.w	$r17,$r17,-502(0xe0a)
1c01e004:	1442edf0 	lu12i.w	$r16,137071(0x2176f)
1c01e008:	02930210 	addi.w	$r16,$r16,1216(0x4c0)
1c01e00c:	5c010d51 	bne	$r10,$r17,268(0x10c) # 1c01e118 <inst_error>
1c01e010:	5c010970 	bne	$r11,$r16,264(0x108) # 1c01e118 <inst_error>
1c01e014:	15d378d0 	lu12i.w	$r16,-91194(0xe9bc6)
1c01e018:	02aa4210 	addi.w	$r16,$r16,-1392(0xa90)
1c01e01c:	15560851 	lu12i.w	$r17,-348094(0xab042)
1c01e020:	02869a31 	addi.w	$r17,$r17,422(0x1a6)
1c01e024:	1400000a 	lu12i.w	$r10,0
1c01e028:	1400000b 	lu12i.w	$r11,0
1c01e02c:	50001400 	b	20(0x14) # 1c01e040 <n20_b_test+0xc58>
1c01e030:	15d378ca 	lu12i.w	$r10,-91194(0xe9bc6)
1c01e034:	02aa414a 	addi.w	$r10,$r10,-1392(0xa90)
1c01e038:	50001000 	b	16(0x10) # 1c01e048 <n20_b_test+0xc60>
1c01e03c:	50001400 	b	20(0x14) # 1c01e050 <n20_b_test+0xc68>
1c01e040:	53fff3ff 	b	-16(0xffffff0) # 1c01e030 <n20_b_test+0xc48>
1c01e044:	50000c00 	b	12(0xc) # 1c01e050 <n20_b_test+0xc68>
1c01e048:	1556084b 	lu12i.w	$r11,-348094(0xab042)
1c01e04c:	0286996b 	addi.w	$r11,$r11,422(0x1a6)
1c01e050:	15d378d1 	lu12i.w	$r17,-91194(0xe9bc6)
1c01e054:	02aa4231 	addi.w	$r17,$r17,-1392(0xa90)
1c01e058:	15560850 	lu12i.w	$r16,-348094(0xab042)
1c01e05c:	02869a10 	addi.w	$r16,$r16,422(0x1a6)
1c01e060:	5c00b951 	bne	$r10,$r17,184(0xb8) # 1c01e118 <inst_error>
1c01e064:	5c00b570 	bne	$r11,$r16,180(0xb4) # 1c01e118 <inst_error>
1c01e068:	15066bb0 	lu12i.w	$r16,-511139(0x8335d)
1c01e06c:	0299b610 	addi.w	$r16,$r16,1645(0x66d)
1c01e070:	15b5e591 	lu12i.w	$r17,-151764(0xdaf2c)
1c01e074:	02888a31 	addi.w	$r17,$r17,546(0x222)
1c01e078:	1400000a 	lu12i.w	$r10,0
1c01e07c:	1400000b 	lu12i.w	$r11,0
1c01e080:	50001400 	b	20(0x14) # 1c01e094 <n20_b_test+0xcac>
1c01e084:	15066baa 	lu12i.w	$r10,-511139(0x8335d)
1c01e088:	0299b54a 	addi.w	$r10,$r10,1645(0x66d)
1c01e08c:	50001000 	b	16(0x10) # 1c01e09c <n20_b_test+0xcb4>
1c01e090:	50001400 	b	20(0x14) # 1c01e0a4 <n20_b_test+0xcbc>
1c01e094:	53fff3ff 	b	-16(0xffffff0) # 1c01e084 <n20_b_test+0xc9c>
1c01e098:	50000c00 	b	12(0xc) # 1c01e0a4 <n20_b_test+0xcbc>
1c01e09c:	15b5e58b 	lu12i.w	$r11,-151764(0xdaf2c)
1c01e0a0:	0288896b 	addi.w	$r11,$r11,546(0x222)
1c01e0a4:	15066bb1 	lu12i.w	$r17,-511139(0x8335d)
1c01e0a8:	0299b631 	addi.w	$r17,$r17,1645(0x66d)
1c01e0ac:	15b5e590 	lu12i.w	$r16,-151764(0xdaf2c)
1c01e0b0:	02888a10 	addi.w	$r16,$r16,546(0x222)
1c01e0b4:	5c006551 	bne	$r10,$r17,100(0x64) # 1c01e118 <inst_error>
1c01e0b8:	5c006170 	bne	$r11,$r16,96(0x60) # 1c01e118 <inst_error>
1c01e0bc:	1431c130 	lu12i.w	$r16,101897(0x18e09)
1c01e0c0:	02b40210 	addi.w	$r16,$r16,-768(0xd00)
1c01e0c4:	14df46d1 	lu12i.w	$r17,457270(0x6fa36)
1c01e0c8:	02867a31 	addi.w	$r17,$r17,414(0x19e)
1c01e0cc:	1400000a 	lu12i.w	$r10,0
1c01e0d0:	1400000b 	lu12i.w	$r11,0
1c01e0d4:	50001400 	b	20(0x14) # 1c01e0e8 <n20_b_test+0xd00>
1c01e0d8:	1431c12a 	lu12i.w	$r10,101897(0x18e09)
1c01e0dc:	02b4014a 	addi.w	$r10,$r10,-768(0xd00)
1c01e0e0:	50001000 	b	16(0x10) # 1c01e0f0 <n20_b_test+0xd08>
1c01e0e4:	50001400 	b	20(0x14) # 1c01e0f8 <n20_b_test+0xd10>
1c01e0e8:	53fff3ff 	b	-16(0xffffff0) # 1c01e0d8 <n20_b_test+0xcf0>
1c01e0ec:	50000c00 	b	12(0xc) # 1c01e0f8 <n20_b_test+0xd10>
1c01e0f0:	14df46cb 	lu12i.w	$r11,457270(0x6fa36)
1c01e0f4:	0286796b 	addi.w	$r11,$r11,414(0x19e)
1c01e0f8:	1431c131 	lu12i.w	$r17,101897(0x18e09)
1c01e0fc:	02b40231 	addi.w	$r17,$r17,-768(0xd00)
1c01e100:	14df46d0 	lu12i.w	$r16,457270(0x6fa36)
1c01e104:	02867a10 	addi.w	$r16,$r16,414(0x19e)
1c01e108:	5c001151 	bne	$r10,$r17,16(0x10) # 1c01e118 <inst_error>
1c01e10c:	5c000d70 	bne	$r11,$r16,12(0xc) # 1c01e118 <inst_error>
1c01e110:	5c000b20 	bne	$r25,$r0,8(0x8) # 1c01e118 <inst_error>
1c01e114:	0280075a 	addi.w	$r26,$r26,1(0x1)

1c01e118 <inst_error>:
1c01e118:	0040e2ed 	slli.w	$r13,$r23,0x18
1c01e11c:	001569ac 	or	$r12,$r13,$r26
1c01e120:	2980030c 	st.w	$r12,$r24,0
1c01e124:	4c000020 	jirl	$r0,$r1,0

1c01e128 <n12_srli_w_test>:
n12_srli_w_test():
1c01e128:	028006f7 	addi.w	$r23,$r23,1(0x1)
1c01e12c:	00150019 	move	$r25,$r0
1c01e130:	151d200c 	lu12i.w	$r12,-464640(0x8e900)
1c01e134:	02b3818c 	addi.w	$r12,$r12,-800(0xce0)
1c01e138:	1447480b 	lu12i.w	$r11,145984(0x23a40)
1c01e13c:	02bce16b 	addi.w	$r11,$r11,-200(0xf38)
1c01e140:	0044898a 	srli.w	$r10,$r12,0x2
1c01e144:	5c039d4b 	bne	$r10,$r11,924(0x39c) # 1c01e4e0 <inst_error>
1c01e148:	1492522c 	lu12i.w	$r12,299665(0x49291)
1c01e14c:	0288c18c 	addi.w	$r12,$r12,560(0x230)
1c01e150:	1400012b 	lu12i.w	$r11,9(0x9)
1c01e154:	0289496b 	addi.w	$r11,$r11,594(0x252)
1c01e158:	0044bd8a 	srli.w	$r10,$r12,0xf
1c01e15c:	5c03854b 	bne	$r10,$r11,900(0x384) # 1c01e4e0 <inst_error>
1c01e160:	144bb4ec 	lu12i.w	$r12,155047(0x25da7)
1c01e164:	02a2818c 	addi.w	$r12,$r12,-1888(0x8a0)
1c01e168:	1404bb4b 	lu12i.w	$r11,9690(0x25da)
1c01e16c:	029a296b 	addi.w	$r11,$r11,1674(0x68a)
1c01e170:	0044918a 	srli.w	$r10,$r12,0x4
1c01e174:	5c036d4b 	bne	$r10,$r11,876(0x36c) # 1c01e4e0 <inst_error>
1c01e178:	15d959ec 	lu12i.w	$r12,-79153(0xecacf)
1c01e17c:	0299598c 	addi.w	$r12,$r12,1622(0x656)
1c01e180:	1400076b 	lu12i.w	$r11,59(0x3b)
1c01e184:	028acd6b 	addi.w	$r11,$r11,691(0x2b3)
1c01e188:	0044b98a 	srli.w	$r10,$r12,0xe
1c01e18c:	5c03554b 	bne	$r10,$r11,852(0x354) # 1c01e4e0 <inst_error>
1c01e190:	15cf7fac 	lu12i.w	$r12,-99331(0xe7bfd)
1c01e194:	02a1218c 	addi.w	$r12,$r12,-1976(0x848)
1c01e198:	1400000b 	lu12i.w	$r11,0
1c01e19c:	0280056b 	addi.w	$r11,$r11,1(0x1)
1c01e1a0:	0044fd8a 	srli.w	$r10,$r12,0x1f
1c01e1a4:	5c033d4b 	bne	$r10,$r11,828(0x33c) # 1c01e4e0 <inst_error>
1c01e1a8:	140022cc 	lu12i.w	$r12,278(0x116)
1c01e1ac:	02a0258c 	addi.w	$r12,$r12,-2039(0x809)
1c01e1b0:	1400000b 	lu12i.w	$r11,0
1c01e1b4:	0280016b 	addi.w	$r11,$r11,0
1c01e1b8:	0044fd8a 	srli.w	$r10,$r12,0x1f
1c01e1bc:	5c03254b 	bne	$r10,$r11,804(0x324) # 1c01e4e0 <inst_error>
1c01e1c0:	14f510cc 	lu12i.w	$r12,501894(0x7a886)
1c01e1c4:	0298118c 	addi.w	$r12,$r12,1540(0x604)
1c01e1c8:	1400000b 	lu12i.w	$r11,0
1c01e1cc:	0280f56b 	addi.w	$r11,$r11,61(0x3d)
1c01e1d0:	0044e58a 	srli.w	$r10,$r12,0x19
1c01e1d4:	5c030d4b 	bne	$r10,$r11,780(0x30c) # 1c01e4e0 <inst_error>
1c01e1d8:	14ffcf4c 	lu12i.w	$r12,523898(0x7fe7a)
1c01e1dc:	029f798c 	addi.w	$r12,$r12,2014(0x7de)
1c01e1e0:	1400020b 	lu12i.w	$r11,16(0x10)
1c01e1e4:	02bf3d6b 	addi.w	$r11,$r11,-49(0xfcf)
1c01e1e8:	0044bd8a 	srli.w	$r10,$r12,0xf
1c01e1ec:	5c02f54b 	bne	$r10,$r11,756(0x2f4) # 1c01e4e0 <inst_error>
1c01e1f0:	14ed854c 	lu12i.w	$r12,486442(0x76c2a)
1c01e1f4:	02a0e18c 	addi.w	$r12,$r12,-1992(0x838)
1c01e1f8:	14076c2b 	lu12i.w	$r11,15201(0x3b61)
1c01e1fc:	0293056b 	addi.w	$r11,$r11,1217(0x4c1)
1c01e200:	0044958a 	srli.w	$r10,$r12,0x5
1c01e204:	5c02dd4b 	bne	$r10,$r11,732(0x2dc) # 1c01e4e0 <inst_error>
1c01e208:	15527ecc 	lu12i.w	$r12,-355338(0xa93f6)
1c01e20c:	02a5118c 	addi.w	$r12,$r12,-1724(0x944)
1c01e210:	140000ab 	lu12i.w	$r11,5(0x5)
1c01e214:	02927d6b 	addi.w	$r11,$r11,1183(0x49f)
1c01e218:	0044c58a 	srli.w	$r10,$r12,0x11
1c01e21c:	5c02c54b 	bne	$r10,$r11,708(0x2c4) # 1c01e4e0 <inst_error>
1c01e220:	14bd83ac 	lu12i.w	$r12,388125(0x5ec1d)
1c01e224:	02a4018c 	addi.w	$r12,$r12,-1792(0x900)
1c01e228:	1400000b 	lu12i.w	$r11,0
1c01e22c:	0280016b 	addi.w	$r11,$r11,0
1c01e230:	0044fd8a 	srli.w	$r10,$r12,0x1f
1c01e234:	5c02ad4b 	bne	$r10,$r11,684(0x2ac) # 1c01e4e0 <inst_error>
1c01e238:	157e824c 	lu12i.w	$r12,-265198(0xbf412)
1c01e23c:	02a3c18c 	addi.w	$r12,$r12,-1808(0x8f0)
1c01e240:	1400000b 	lu12i.w	$r11,0
1c01e244:	028bf56b 	addi.w	$r11,$r11,765(0x2fd)
1c01e248:	0044d98a 	srli.w	$r10,$r12,0x16
1c01e24c:	5c02954b 	bne	$r10,$r11,660(0x294) # 1c01e4e0 <inst_error>
1c01e250:	15090c2c 	lu12i.w	$r12,-505759(0x84861)
1c01e254:	02bbb18c 	addi.w	$r12,$r12,-276(0xeec)
1c01e258:	1400084b 	lu12i.w	$r11,66(0x42)
1c01e25c:	0290c16b 	addi.w	$r11,$r11,1072(0x430)
1c01e260:	0044b58a 	srli.w	$r10,$r12,0xd
1c01e264:	5c027d4b 	bne	$r10,$r11,636(0x27c) # 1c01e4e0 <inst_error>
1c01e268:	152a2e6c 	lu12i.w	$r12,-437901(0x95173)
1c01e26c:	0286618c 	addi.w	$r12,$r12,408(0x198)
1c01e270:	1400254b 	lu12i.w	$r11,298(0x12a)
1c01e274:	028b996b 	addi.w	$r11,$r11,742(0x2e6)
1c01e278:	0044ad8a 	srli.w	$r10,$r12,0xb
1c01e27c:	5c02654b 	bne	$r10,$r11,612(0x264) # 1c01e4e0 <inst_error>
1c01e280:	15c3ae8c 	lu12i.w	$r12,-123532(0xe1d74)
1c01e284:	02a8818c 	addi.w	$r12,$r12,-1504(0xa20)
1c01e288:	1400388b 	lu12i.w	$r11,452(0x1c4)
1c01e28c:	02ab9d6b 	addi.w	$r11,$r11,-1305(0xae7)
1c01e290:	0044ad8a 	srli.w	$r10,$r12,0xb
1c01e294:	5c024d4b 	bne	$r10,$r11,588(0x24c) # 1c01e4e0 <inst_error>
1c01e298:	1461316c 	lu12i.w	$r12,199051(0x3098b)
1c01e29c:	028a5d8c 	addi.w	$r12,$r12,663(0x297)
1c01e2a0:	1461316b 	lu12i.w	$r11,199051(0x3098b)
1c01e2a4:	028a5d6b 	addi.w	$r11,$r11,663(0x297)
1c01e2a8:	0044818a 	srli.w	$r10,$r12,0x0
1c01e2ac:	5c02354b 	bne	$r10,$r11,564(0x234) # 1c01e4e0 <inst_error>
1c01e2b0:	1508084c 	lu12i.w	$r12,-507838(0x84042)
1c01e2b4:	02a3ad8c 	addi.w	$r12,$r12,-1813(0x8eb)
1c01e2b8:	1508084b 	lu12i.w	$r11,-507838(0x84042)
1c01e2bc:	02a3ad6b 	addi.w	$r11,$r11,-1813(0x8eb)
1c01e2c0:	0044818a 	srli.w	$r10,$r12,0x0
1c01e2c4:	5c021d4b 	bne	$r10,$r11,540(0x21c) # 1c01e4e0 <inst_error>
1c01e2c8:	1531140c 	lu12i.w	$r12,-423776(0x988a0)
1c01e2cc:	02b7418c 	addi.w	$r12,$r12,-560(0xdd0)
1c01e2d0:	1531140b 	lu12i.w	$r11,-423776(0x988a0)
1c01e2d4:	02b7416b 	addi.w	$r11,$r11,-560(0xdd0)
1c01e2d8:	0044818a 	srli.w	$r10,$r12,0x0
1c01e2dc:	5c02054b 	bne	$r10,$r11,516(0x204) # 1c01e4e0 <inst_error>
1c01e2e0:	15d6cc4c 	lu12i.w	$r12,-84382(0xeb662)
1c01e2e4:	0295598c 	addi.w	$r12,$r12,1366(0x556)
1c01e2e8:	15d6cc4b 	lu12i.w	$r11,-84382(0xeb662)
1c01e2ec:	0295596b 	addi.w	$r11,$r11,1366(0x556)
1c01e2f0:	0044818a 	srli.w	$r10,$r12,0x0
1c01e2f4:	5c01ed4b 	bne	$r10,$r11,492(0x1ec) # 1c01e4e0 <inst_error>
1c01e2f8:	15b25bac 	lu12i.w	$r12,-159011(0xd92dd)
1c01e2fc:	0284398c 	addi.w	$r12,$r12,270(0x10e)
1c01e300:	15b25bab 	lu12i.w	$r11,-159011(0xd92dd)
1c01e304:	0284396b 	addi.w	$r11,$r11,270(0x10e)
1c01e308:	0044818a 	srli.w	$r10,$r12,0x0
1c01e30c:	5c01d54b 	bne	$r10,$r11,468(0x1d4) # 1c01e4e0 <inst_error>
1c01e310:	15d6c48c 	lu12i.w	$r12,-84444(0xeb624)
1c01e314:	0282d18c 	addi.w	$r12,$r12,180(0xb4)
1c01e318:	15d6c48b 	lu12i.w	$r11,-84444(0xeb624)
1c01e31c:	0282d16b 	addi.w	$r11,$r11,180(0xb4)
1c01e320:	0044818a 	srli.w	$r10,$r12,0x0
1c01e324:	5c01bd4b 	bne	$r10,$r11,444(0x1bc) # 1c01e4e0 <inst_error>
1c01e328:	14f26d2c 	lu12i.w	$r12,496489(0x79369)
1c01e32c:	02b1518c 	addi.w	$r12,$r12,-940(0xc54)
1c01e330:	14f26d2b 	lu12i.w	$r11,496489(0x79369)
1c01e334:	02b1516b 	addi.w	$r11,$r11,-940(0xc54)
1c01e338:	0044818a 	srli.w	$r10,$r12,0x0
1c01e33c:	5c01a54b 	bne	$r10,$r11,420(0x1a4) # 1c01e4e0 <inst_error>
1c01e340:	15fb552c 	lu12i.w	$r12,-9559(0xfdaa9)
1c01e344:	02a5018c 	addi.w	$r12,$r12,-1728(0x940)
1c01e348:	15fb552b 	lu12i.w	$r11,-9559(0xfdaa9)
1c01e34c:	02a5016b 	addi.w	$r11,$r11,-1728(0x940)
1c01e350:	0044818a 	srli.w	$r10,$r12,0x0
1c01e354:	5c018d4b 	bne	$r10,$r11,396(0x18c) # 1c01e4e0 <inst_error>
1c01e358:	15e7d32c 	lu12i.w	$r12,-49511(0xf3e99)
1c01e35c:	0284418c 	addi.w	$r12,$r12,272(0x110)
1c01e360:	15e7d32b 	lu12i.w	$r11,-49511(0xf3e99)
1c01e364:	0284416b 	addi.w	$r11,$r11,272(0x110)
1c01e368:	0044818a 	srli.w	$r10,$r12,0x0
1c01e36c:	5c01754b 	bne	$r10,$r11,372(0x174) # 1c01e4e0 <inst_error>
1c01e370:	140a4c2c 	lu12i.w	$r12,21089(0x5261)
1c01e374:	02b3a18c 	addi.w	$r12,$r12,-792(0xce8)
1c01e378:	140a4c2b 	lu12i.w	$r11,21089(0x5261)
1c01e37c:	02b3a16b 	addi.w	$r11,$r11,-792(0xce8)
1c01e380:	0044818a 	srli.w	$r10,$r12,0x0
1c01e384:	5c015d4b 	bne	$r10,$r11,348(0x15c) # 1c01e4e0 <inst_error>
1c01e388:	153a7f0c 	lu12i.w	$r12,-404488(0x9d3f8)
1c01e38c:	02b3b98c 	addi.w	$r12,$r12,-786(0xcee)
1c01e390:	153a7f0b 	lu12i.w	$r11,-404488(0x9d3f8)
1c01e394:	02b3b96b 	addi.w	$r11,$r11,-786(0xcee)
1c01e398:	0044818a 	srli.w	$r10,$r12,0x0
1c01e39c:	5c01454b 	bne	$r10,$r11,324(0x144) # 1c01e4e0 <inst_error>
1c01e3a0:	155cbf6c 	lu12i.w	$r12,-334341(0xae5fb)
1c01e3a4:	0299618c 	addi.w	$r12,$r12,1624(0x658)
1c01e3a8:	155cbf6b 	lu12i.w	$r11,-334341(0xae5fb)
1c01e3ac:	0299616b 	addi.w	$r11,$r11,1624(0x658)
1c01e3b0:	0044818a 	srli.w	$r10,$r12,0x0
1c01e3b4:	5c012d4b 	bne	$r10,$r11,300(0x12c) # 1c01e4e0 <inst_error>
1c01e3b8:	1462cc8c 	lu12i.w	$r12,202340(0x31664)
1c01e3bc:	02a3a18c 	addi.w	$r12,$r12,-1816(0x8e8)
1c01e3c0:	1462cc8b 	lu12i.w	$r11,202340(0x31664)
1c01e3c4:	02a3a16b 	addi.w	$r11,$r11,-1816(0x8e8)
1c01e3c8:	0044818a 	srli.w	$r10,$r12,0x0
1c01e3cc:	5c01154b 	bne	$r10,$r11,276(0x114) # 1c01e4e0 <inst_error>
1c01e3d0:	14a4a36c 	lu12i.w	$r12,337179(0x5251b)
1c01e3d4:	0287818c 	addi.w	$r12,$r12,480(0x1e0)
1c01e3d8:	14a4a36b 	lu12i.w	$r11,337179(0x5251b)
1c01e3dc:	0287816b 	addi.w	$r11,$r11,480(0x1e0)
1c01e3e0:	0044818a 	srli.w	$r10,$r12,0x0
1c01e3e4:	5c00fd4b 	bne	$r10,$r11,252(0xfc) # 1c01e4e0 <inst_error>
1c01e3e8:	154394ec 	lu12i.w	$r12,-385881(0xa1ca7)
1c01e3ec:	02a6818c 	addi.w	$r12,$r12,-1632(0x9a0)
1c01e3f0:	154394eb 	lu12i.w	$r11,-385881(0xa1ca7)
1c01e3f4:	02a6816b 	addi.w	$r11,$r11,-1632(0x9a0)
1c01e3f8:	0044818a 	srli.w	$r10,$r12,0x0
1c01e3fc:	5c00e54b 	bne	$r10,$r11,228(0xe4) # 1c01e4e0 <inst_error>
1c01e400:	140410ec 	lu12i.w	$r12,8327(0x2087)
1c01e404:	02be618c 	addi.w	$r12,$r12,-104(0xf98)
1c01e408:	140410eb 	lu12i.w	$r11,8327(0x2087)
1c01e40c:	02be616b 	addi.w	$r11,$r11,-104(0xf98)
1c01e410:	0044818a 	srli.w	$r10,$r12,0x0
1c01e414:	5c00cd4b 	bne	$r10,$r11,204(0xcc) # 1c01e4e0 <inst_error>
1c01e418:	1400000c 	lu12i.w	$r12,0
1c01e41c:	0280018c 	addi.w	$r12,$r12,0
1c01e420:	1400000b 	lu12i.w	$r11,0
1c01e424:	0280016b 	addi.w	$r11,$r11,0
1c01e428:	0044c18a 	srli.w	$r10,$r12,0x10
1c01e42c:	5c00b54b 	bne	$r10,$r11,180(0xb4) # 1c01e4e0 <inst_error>
1c01e430:	1400000c 	lu12i.w	$r12,0
1c01e434:	0280018c 	addi.w	$r12,$r12,0
1c01e438:	1400000b 	lu12i.w	$r11,0
1c01e43c:	0280016b 	addi.w	$r11,$r11,0
1c01e440:	0044e18a 	srli.w	$r10,$r12,0x18
1c01e444:	5c009d4b 	bne	$r10,$r11,156(0x9c) # 1c01e4e0 <inst_error>
1c01e448:	1400000c 	lu12i.w	$r12,0
1c01e44c:	0280018c 	addi.w	$r12,$r12,0
1c01e450:	1400000b 	lu12i.w	$r11,0
1c01e454:	0280016b 	addi.w	$r11,$r11,0
1c01e458:	0044a58a 	srli.w	$r10,$r12,0x9
1c01e45c:	5c00854b 	bne	$r10,$r11,132(0x84) # 1c01e4e0 <inst_error>
1c01e460:	1400000c 	lu12i.w	$r12,0
1c01e464:	0280018c 	addi.w	$r12,$r12,0
1c01e468:	1400000b 	lu12i.w	$r11,0
1c01e46c:	0280016b 	addi.w	$r11,$r11,0
1c01e470:	0044e98a 	srli.w	$r10,$r12,0x1a
1c01e474:	5c006d4b 	bne	$r10,$r11,108(0x6c) # 1c01e4e0 <inst_error>
1c01e478:	1400000c 	lu12i.w	$r12,0
1c01e47c:	0280018c 	addi.w	$r12,$r12,0
1c01e480:	1400000b 	lu12i.w	$r11,0
1c01e484:	0280016b 	addi.w	$r11,$r11,0
1c01e488:	0044f18a 	srli.w	$r10,$r12,0x1c
1c01e48c:	5c00554b 	bne	$r10,$r11,84(0x54) # 1c01e4e0 <inst_error>
1c01e490:	1400000c 	lu12i.w	$r12,0
1c01e494:	0280018c 	addi.w	$r12,$r12,0
1c01e498:	1400000b 	lu12i.w	$r11,0
1c01e49c:	0280016b 	addi.w	$r11,$r11,0
1c01e4a0:	0044e18a 	srli.w	$r10,$r12,0x18
1c01e4a4:	5c003d4b 	bne	$r10,$r11,60(0x3c) # 1c01e4e0 <inst_error>
1c01e4a8:	1400000c 	lu12i.w	$r12,0
1c01e4ac:	0280018c 	addi.w	$r12,$r12,0
1c01e4b0:	1400000b 	lu12i.w	$r11,0
1c01e4b4:	0280016b 	addi.w	$r11,$r11,0
1c01e4b8:	0044918a 	srli.w	$r10,$r12,0x4
1c01e4bc:	5c00254b 	bne	$r10,$r11,36(0x24) # 1c01e4e0 <inst_error>
1c01e4c0:	1400000c 	lu12i.w	$r12,0
1c01e4c4:	0280018c 	addi.w	$r12,$r12,0
1c01e4c8:	1400000b 	lu12i.w	$r11,0
1c01e4cc:	0280016b 	addi.w	$r11,$r11,0
1c01e4d0:	0044818a 	srli.w	$r10,$r12,0x0
1c01e4d4:	5c000d4b 	bne	$r10,$r11,12(0xc) # 1c01e4e0 <inst_error>
1c01e4d8:	5c000b20 	bne	$r25,$r0,8(0x8) # 1c01e4e0 <inst_error>
1c01e4dc:	0280075a 	addi.w	$r26,$r26,1(0x1)

1c01e4e0 <inst_error>:
1c01e4e0:	0040e2ed 	slli.w	$r13,$r23,0x18
1c01e4e4:	001569ac 	or	$r12,$r13,$r26
1c01e4e8:	2980030c 	st.w	$r12,$r24,0
1c01e4ec:	4c000020 	jirl	$r0,$r1,0

1c01e4f0 <n18_bl_test>:
n18_bl_test():
1c01e4f0:	028006f7 	addi.w	$r23,$r23,1(0x1)
1c01e4f4:	00150019 	move	$r25,$r0
1c01e4f8:	0010041e 	add.w	$r30,$r0,$r1
1c01e4fc:	15187c50 	lu12i.w	$r16,-474142(0x8c3e2)
1c01e500:	02bbea10 	addi.w	$r16,$r16,-262(0xefa)
1c01e504:	15d657b1 	lu12i.w	$r17,-85315(0xeb2bd)
1c01e508:	0295f231 	addi.w	$r17,$r17,1404(0x57c)
1c01e50c:	1400000a 	lu12i.w	$r10,0
1c01e510:	1400000b 	lu12i.w	$r11,0
1c01e514:	54001800 	bl	24(0x18) # 1c01e52c <n18_bl_test+0x3c>
1c01e518:	00100025 	add.w	$r5,$r1,$r0
1c01e51c:	15187c4a 	lu12i.w	$r10,-474142(0x8c3e2)
1c01e520:	02bbe94a 	addi.w	$r10,$r10,-262(0xefa)
1c01e524:	54001400 	bl	20(0x14) # 1c01e538 <n18_bl_test+0x48>
1c01e528:	50001c00 	b	28(0x1c) # 1c01e544 <n18_bl_test+0x54>
1c01e52c:	00100024 	add.w	$r4,$r1,$r0
1c01e530:	57ffebff 	bl	-24(0xfffffe8) # 1c01e518 <n18_bl_test+0x28>
1c01e534:	50001000 	b	16(0x10) # 1c01e544 <n18_bl_test+0x54>
1c01e538:	00100026 	add.w	$r6,$r1,$r0
1c01e53c:	15d657ab 	lu12i.w	$r11,-85315(0xeb2bd)
1c01e540:	0295f16b 	addi.w	$r11,$r11,1404(0x57c)
1c01e544:	00107801 	add.w	$r1,$r0,$r30
1c01e548:	15187c51 	lu12i.w	$r17,-474142(0x8c3e2)
1c01e54c:	02bbea31 	addi.w	$r17,$r17,-262(0xefa)
1c01e550:	15d657b0 	lu12i.w	$r16,-85315(0xeb2bd)
1c01e554:	0295f210 	addi.w	$r16,$r16,1404(0x57c)
1c01e558:	5c0b0951 	bne	$r10,$r17,2824(0xb08) # 1c01f060 <inst_error>
1c01e55c:	028030c6 	addi.w	$r6,$r6,12(0xc)
1c01e560:	5c0b0170 	bne	$r11,$r16,2816(0xb00) # 1c01f060 <inst_error>
1c01e564:	5c0afcc5 	bne	$r6,$r5,2812(0xafc) # 1c01f060 <inst_error>
1c01e568:	0010041e 	add.w	$r30,$r0,$r1
1c01e56c:	15f783f0 	lu12i.w	$r16,-17377(0xfbc1f)
1c01e570:	02974210 	addi.w	$r16,$r16,1488(0x5d0)
1c01e574:	15723791 	lu12i.w	$r17,-290372(0xb91bc)
1c01e578:	0282c231 	addi.w	$r17,$r17,176(0xb0)
1c01e57c:	1400000a 	lu12i.w	$r10,0
1c01e580:	1400000b 	lu12i.w	$r11,0
1c01e584:	54001800 	bl	24(0x18) # 1c01e59c <n18_bl_test+0xac>
1c01e588:	00100025 	add.w	$r5,$r1,$r0
1c01e58c:	15f783ea 	lu12i.w	$r10,-17377(0xfbc1f)
1c01e590:	0297414a 	addi.w	$r10,$r10,1488(0x5d0)
1c01e594:	54001400 	bl	20(0x14) # 1c01e5a8 <n18_bl_test+0xb8>
1c01e598:	50001c00 	b	28(0x1c) # 1c01e5b4 <n18_bl_test+0xc4>
1c01e59c:	00100024 	add.w	$r4,$r1,$r0
1c01e5a0:	57ffebff 	bl	-24(0xfffffe8) # 1c01e588 <n18_bl_test+0x98>
1c01e5a4:	50001000 	b	16(0x10) # 1c01e5b4 <n18_bl_test+0xc4>
1c01e5a8:	00100026 	add.w	$r6,$r1,$r0
1c01e5ac:	1572378b 	lu12i.w	$r11,-290372(0xb91bc)
1c01e5b0:	0282c16b 	addi.w	$r11,$r11,176(0xb0)
1c01e5b4:	00107801 	add.w	$r1,$r0,$r30
1c01e5b8:	15f783f1 	lu12i.w	$r17,-17377(0xfbc1f)
1c01e5bc:	02974231 	addi.w	$r17,$r17,1488(0x5d0)
1c01e5c0:	15723790 	lu12i.w	$r16,-290372(0xb91bc)
1c01e5c4:	0282c210 	addi.w	$r16,$r16,176(0xb0)
1c01e5c8:	5c0a9951 	bne	$r10,$r17,2712(0xa98) # 1c01f060 <inst_error>
1c01e5cc:	028030c6 	addi.w	$r6,$r6,12(0xc)
1c01e5d0:	5c0a9170 	bne	$r11,$r16,2704(0xa90) # 1c01f060 <inst_error>
1c01e5d4:	5c0a8cc5 	bne	$r6,$r5,2700(0xa8c) # 1c01f060 <inst_error>
1c01e5d8:	0010041e 	add.w	$r30,$r0,$r1
1c01e5dc:	15820c50 	lu12i.w	$r16,-257950(0xc1062)
1c01e5e0:	028d5a10 	addi.w	$r16,$r16,854(0x356)
1c01e5e4:	15f1ac31 	lu12i.w	$r17,-29343(0xf8d61)
1c01e5e8:	02b18231 	addi.w	$r17,$r17,-928(0xc60)
1c01e5ec:	1400000a 	lu12i.w	$r10,0
1c01e5f0:	1400000b 	lu12i.w	$r11,0
1c01e5f4:	54001800 	bl	24(0x18) # 1c01e60c <n18_bl_test+0x11c>
1c01e5f8:	00100025 	add.w	$r5,$r1,$r0
1c01e5fc:	15820c4a 	lu12i.w	$r10,-257950(0xc1062)
1c01e600:	028d594a 	addi.w	$r10,$r10,854(0x356)
1c01e604:	54001400 	bl	20(0x14) # 1c01e618 <n18_bl_test+0x128>
1c01e608:	50001c00 	b	28(0x1c) # 1c01e624 <n18_bl_test+0x134>
1c01e60c:	00100024 	add.w	$r4,$r1,$r0
1c01e610:	57ffebff 	bl	-24(0xfffffe8) # 1c01e5f8 <n18_bl_test+0x108>
1c01e614:	50001000 	b	16(0x10) # 1c01e624 <n18_bl_test+0x134>
1c01e618:	00100026 	add.w	$r6,$r1,$r0
1c01e61c:	15f1ac2b 	lu12i.w	$r11,-29343(0xf8d61)
1c01e620:	02b1816b 	addi.w	$r11,$r11,-928(0xc60)
1c01e624:	00107801 	add.w	$r1,$r0,$r30
1c01e628:	15820c51 	lu12i.w	$r17,-257950(0xc1062)
1c01e62c:	028d5a31 	addi.w	$r17,$r17,854(0x356)
1c01e630:	15f1ac30 	lu12i.w	$r16,-29343(0xf8d61)
1c01e634:	02b18210 	addi.w	$r16,$r16,-928(0xc60)
1c01e638:	5c0a2951 	bne	$r10,$r17,2600(0xa28) # 1c01f060 <inst_error>
1c01e63c:	028030c6 	addi.w	$r6,$r6,12(0xc)
1c01e640:	5c0a2170 	bne	$r11,$r16,2592(0xa20) # 1c01f060 <inst_error>
1c01e644:	5c0a1cc5 	bne	$r6,$r5,2588(0xa1c) # 1c01f060 <inst_error>
1c01e648:	0010041e 	add.w	$r30,$r0,$r1
1c01e64c:	14f63470 	lu12i.w	$r16,504227(0x7b1a3)
1c01e650:	02aa8610 	addi.w	$r16,$r16,-1375(0xaa1)
1c01e654:	152898b1 	lu12i.w	$r17,-441147(0x944c5)
1c01e658:	02a46231 	addi.w	$r17,$r17,-1768(0x918)
1c01e65c:	1400000a 	lu12i.w	$r10,0
1c01e660:	1400000b 	lu12i.w	$r11,0
1c01e664:	54001800 	bl	24(0x18) # 1c01e67c <n18_bl_test+0x18c>
1c01e668:	00100025 	add.w	$r5,$r1,$r0
1c01e66c:	14f6346a 	lu12i.w	$r10,504227(0x7b1a3)
1c01e670:	02aa854a 	addi.w	$r10,$r10,-1375(0xaa1)
1c01e674:	54001400 	bl	20(0x14) # 1c01e688 <n18_bl_test+0x198>
1c01e678:	50001c00 	b	28(0x1c) # 1c01e694 <n18_bl_test+0x1a4>
1c01e67c:	00100024 	add.w	$r4,$r1,$r0
1c01e680:	57ffebff 	bl	-24(0xfffffe8) # 1c01e668 <n18_bl_test+0x178>
1c01e684:	50001000 	b	16(0x10) # 1c01e694 <n18_bl_test+0x1a4>
1c01e688:	00100026 	add.w	$r6,$r1,$r0
1c01e68c:	152898ab 	lu12i.w	$r11,-441147(0x944c5)
1c01e690:	02a4616b 	addi.w	$r11,$r11,-1768(0x918)
1c01e694:	00107801 	add.w	$r1,$r0,$r30
1c01e698:	14f63471 	lu12i.w	$r17,504227(0x7b1a3)
1c01e69c:	02aa8631 	addi.w	$r17,$r17,-1375(0xaa1)
1c01e6a0:	152898b0 	lu12i.w	$r16,-441147(0x944c5)
1c01e6a4:	02a46210 	addi.w	$r16,$r16,-1768(0x918)
1c01e6a8:	5c09b951 	bne	$r10,$r17,2488(0x9b8) # 1c01f060 <inst_error>
1c01e6ac:	028030c6 	addi.w	$r6,$r6,12(0xc)
1c01e6b0:	5c09b170 	bne	$r11,$r16,2480(0x9b0) # 1c01f060 <inst_error>
1c01e6b4:	5c09acc5 	bne	$r6,$r5,2476(0x9ac) # 1c01f060 <inst_error>
1c01e6b8:	0010041e 	add.w	$r30,$r0,$r1
1c01e6bc:	14fd0df0 	lu12i.w	$r16,518255(0x7e86f)
1c01e6c0:	02ad6610 	addi.w	$r16,$r16,-1191(0xb59)
1c01e6c4:	156a8531 	lu12i.w	$r17,-306135(0xb5429)
1c01e6c8:	02ad3231 	addi.w	$r17,$r17,-1204(0xb4c)
1c01e6cc:	1400000a 	lu12i.w	$r10,0
1c01e6d0:	1400000b 	lu12i.w	$r11,0
1c01e6d4:	54001800 	bl	24(0x18) # 1c01e6ec <n18_bl_test+0x1fc>
1c01e6d8:	00100025 	add.w	$r5,$r1,$r0
1c01e6dc:	14fd0dea 	lu12i.w	$r10,518255(0x7e86f)
1c01e6e0:	02ad654a 	addi.w	$r10,$r10,-1191(0xb59)
1c01e6e4:	54001400 	bl	20(0x14) # 1c01e6f8 <n18_bl_test+0x208>
1c01e6e8:	50001c00 	b	28(0x1c) # 1c01e704 <n18_bl_test+0x214>
1c01e6ec:	00100024 	add.w	$r4,$r1,$r0
1c01e6f0:	57ffebff 	bl	-24(0xfffffe8) # 1c01e6d8 <n18_bl_test+0x1e8>
1c01e6f4:	50001000 	b	16(0x10) # 1c01e704 <n18_bl_test+0x214>
1c01e6f8:	00100026 	add.w	$r6,$r1,$r0
1c01e6fc:	156a852b 	lu12i.w	$r11,-306135(0xb5429)
1c01e700:	02ad316b 	addi.w	$r11,$r11,-1204(0xb4c)
1c01e704:	00107801 	add.w	$r1,$r0,$r30
1c01e708:	14fd0df1 	lu12i.w	$r17,518255(0x7e86f)
1c01e70c:	02ad6631 	addi.w	$r17,$r17,-1191(0xb59)
1c01e710:	156a8530 	lu12i.w	$r16,-306135(0xb5429)
1c01e714:	02ad3210 	addi.w	$r16,$r16,-1204(0xb4c)
1c01e718:	5c094951 	bne	$r10,$r17,2376(0x948) # 1c01f060 <inst_error>
1c01e71c:	028030c6 	addi.w	$r6,$r6,12(0xc)
1c01e720:	5c094170 	bne	$r11,$r16,2368(0x940) # 1c01f060 <inst_error>
1c01e724:	5c093cc5 	bne	$r6,$r5,2364(0x93c) # 1c01f060 <inst_error>
1c01e728:	0010041e 	add.w	$r30,$r0,$r1
1c01e72c:	14f7f130 	lu12i.w	$r16,507785(0x7bf89)
1c01e730:	02bac210 	addi.w	$r16,$r16,-336(0xeb0)
1c01e734:	14ee6171 	lu12i.w	$r17,488203(0x7730b)
1c01e738:	02880231 	addi.w	$r17,$r17,512(0x200)
1c01e73c:	1400000a 	lu12i.w	$r10,0
1c01e740:	1400000b 	lu12i.w	$r11,0
1c01e744:	54001800 	bl	24(0x18) # 1c01e75c <n18_bl_test+0x26c>
1c01e748:	00100025 	add.w	$r5,$r1,$r0
1c01e74c:	14f7f12a 	lu12i.w	$r10,507785(0x7bf89)
1c01e750:	02bac14a 	addi.w	$r10,$r10,-336(0xeb0)
1c01e754:	54001400 	bl	20(0x14) # 1c01e768 <n18_bl_test+0x278>
1c01e758:	50001c00 	b	28(0x1c) # 1c01e774 <n18_bl_test+0x284>
1c01e75c:	00100024 	add.w	$r4,$r1,$r0
1c01e760:	57ffebff 	bl	-24(0xfffffe8) # 1c01e748 <n18_bl_test+0x258>
1c01e764:	50001000 	b	16(0x10) # 1c01e774 <n18_bl_test+0x284>
1c01e768:	00100026 	add.w	$r6,$r1,$r0
1c01e76c:	14ee616b 	lu12i.w	$r11,488203(0x7730b)
1c01e770:	0288016b 	addi.w	$r11,$r11,512(0x200)
1c01e774:	00107801 	add.w	$r1,$r0,$r30
1c01e778:	14f7f131 	lu12i.w	$r17,507785(0x7bf89)
1c01e77c:	02bac231 	addi.w	$r17,$r17,-336(0xeb0)
1c01e780:	14ee6170 	lu12i.w	$r16,488203(0x7730b)
1c01e784:	02880210 	addi.w	$r16,$r16,512(0x200)
1c01e788:	5c08d951 	bne	$r10,$r17,2264(0x8d8) # 1c01f060 <inst_error>
1c01e78c:	028030c6 	addi.w	$r6,$r6,12(0xc)
1c01e790:	5c08d170 	bne	$r11,$r16,2256(0x8d0) # 1c01f060 <inst_error>
1c01e794:	5c08ccc5 	bne	$r6,$r5,2252(0x8cc) # 1c01f060 <inst_error>
1c01e798:	0010041e 	add.w	$r30,$r0,$r1
1c01e79c:	14d1c250 	lu12i.w	$r16,429586(0x68e12)
1c01e7a0:	02a58210 	addi.w	$r16,$r16,-1696(0x960)
1c01e7a4:	15176cd1 	lu12i.w	$r17,-476314(0x8bb66)
1c01e7a8:	02a40231 	addi.w	$r17,$r17,-1792(0x900)
1c01e7ac:	1400000a 	lu12i.w	$r10,0
1c01e7b0:	1400000b 	lu12i.w	$r11,0
1c01e7b4:	54001800 	bl	24(0x18) # 1c01e7cc <n18_bl_test+0x2dc>
1c01e7b8:	00100025 	add.w	$r5,$r1,$r0
1c01e7bc:	14d1c24a 	lu12i.w	$r10,429586(0x68e12)
1c01e7c0:	02a5814a 	addi.w	$r10,$r10,-1696(0x960)
1c01e7c4:	54001400 	bl	20(0x14) # 1c01e7d8 <n18_bl_test+0x2e8>
1c01e7c8:	50001c00 	b	28(0x1c) # 1c01e7e4 <n18_bl_test+0x2f4>
1c01e7cc:	00100024 	add.w	$r4,$r1,$r0
1c01e7d0:	57ffebff 	bl	-24(0xfffffe8) # 1c01e7b8 <n18_bl_test+0x2c8>
1c01e7d4:	50001000 	b	16(0x10) # 1c01e7e4 <n18_bl_test+0x2f4>
1c01e7d8:	00100026 	add.w	$r6,$r1,$r0
1c01e7dc:	15176ccb 	lu12i.w	$r11,-476314(0x8bb66)
1c01e7e0:	02a4016b 	addi.w	$r11,$r11,-1792(0x900)
1c01e7e4:	00107801 	add.w	$r1,$r0,$r30
1c01e7e8:	14d1c251 	lu12i.w	$r17,429586(0x68e12)
1c01e7ec:	02a58231 	addi.w	$r17,$r17,-1696(0x960)
1c01e7f0:	15176cd0 	lu12i.w	$r16,-476314(0x8bb66)
1c01e7f4:	02a40210 	addi.w	$r16,$r16,-1792(0x900)
1c01e7f8:	5c086951 	bne	$r10,$r17,2152(0x868) # 1c01f060 <inst_error>
1c01e7fc:	028030c6 	addi.w	$r6,$r6,12(0xc)
1c01e800:	5c086170 	bne	$r11,$r16,2144(0x860) # 1c01f060 <inst_error>
1c01e804:	5c085cc5 	bne	$r6,$r5,2140(0x85c) # 1c01f060 <inst_error>
1c01e808:	0010041e 	add.w	$r30,$r0,$r1
1c01e80c:	14ec3bf0 	lu12i.w	$r16,483807(0x761df)
1c01e810:	02939210 	addi.w	$r16,$r16,1252(0x4e4)
1c01e814:	155396b1 	lu12i.w	$r17,-353099(0xa9cb5)
1c01e818:	02ae5231 	addi.w	$r17,$r17,-1132(0xb94)
1c01e81c:	1400000a 	lu12i.w	$r10,0
1c01e820:	1400000b 	lu12i.w	$r11,0
1c01e824:	54001800 	bl	24(0x18) # 1c01e83c <n18_bl_test+0x34c>
1c01e828:	00100025 	add.w	$r5,$r1,$r0
1c01e82c:	14ec3bea 	lu12i.w	$r10,483807(0x761df)
1c01e830:	0293914a 	addi.w	$r10,$r10,1252(0x4e4)
1c01e834:	54001400 	bl	20(0x14) # 1c01e848 <n18_bl_test+0x358>
1c01e838:	50001c00 	b	28(0x1c) # 1c01e854 <n18_bl_test+0x364>
1c01e83c:	00100024 	add.w	$r4,$r1,$r0
1c01e840:	57ffebff 	bl	-24(0xfffffe8) # 1c01e828 <n18_bl_test+0x338>
1c01e844:	50001000 	b	16(0x10) # 1c01e854 <n18_bl_test+0x364>
1c01e848:	00100026 	add.w	$r6,$r1,$r0
1c01e84c:	155396ab 	lu12i.w	$r11,-353099(0xa9cb5)
1c01e850:	02ae516b 	addi.w	$r11,$r11,-1132(0xb94)
1c01e854:	00107801 	add.w	$r1,$r0,$r30
1c01e858:	14ec3bf1 	lu12i.w	$r17,483807(0x761df)
1c01e85c:	02939231 	addi.w	$r17,$r17,1252(0x4e4)
1c01e860:	155396b0 	lu12i.w	$r16,-353099(0xa9cb5)
1c01e864:	02ae5210 	addi.w	$r16,$r16,-1132(0xb94)
1c01e868:	5c07f951 	bne	$r10,$r17,2040(0x7f8) # 1c01f060 <inst_error>
1c01e86c:	028030c6 	addi.w	$r6,$r6,12(0xc)
1c01e870:	5c07f170 	bne	$r11,$r16,2032(0x7f0) # 1c01f060 <inst_error>
1c01e874:	5c07ecc5 	bne	$r6,$r5,2028(0x7ec) # 1c01f060 <inst_error>
1c01e878:	0010041e 	add.w	$r30,$r0,$r1
1c01e87c:	14c4d910 	lu12i.w	$r16,403144(0x626c8)
1c01e880:	02a8ee10 	addi.w	$r16,$r16,-1477(0xa3b)
1c01e884:	15844f51 	lu12i.w	$r17,-253318(0xc227a)
1c01e888:	02a80231 	addi.w	$r17,$r17,-1536(0xa00)
1c01e88c:	1400000a 	lu12i.w	$r10,0
1c01e890:	1400000b 	lu12i.w	$r11,0
1c01e894:	54001800 	bl	24(0x18) # 1c01e8ac <n18_bl_test+0x3bc>
1c01e898:	00100025 	add.w	$r5,$r1,$r0
1c01e89c:	14c4d90a 	lu12i.w	$r10,403144(0x626c8)
1c01e8a0:	02a8ed4a 	addi.w	$r10,$r10,-1477(0xa3b)
1c01e8a4:	54001400 	bl	20(0x14) # 1c01e8b8 <n18_bl_test+0x3c8>
1c01e8a8:	50001c00 	b	28(0x1c) # 1c01e8c4 <n18_bl_test+0x3d4>
1c01e8ac:	00100024 	add.w	$r4,$r1,$r0
1c01e8b0:	57ffebff 	bl	-24(0xfffffe8) # 1c01e898 <n18_bl_test+0x3a8>
1c01e8b4:	50001000 	b	16(0x10) # 1c01e8c4 <n18_bl_test+0x3d4>
1c01e8b8:	00100026 	add.w	$r6,$r1,$r0
1c01e8bc:	15844f4b 	lu12i.w	$r11,-253318(0xc227a)
1c01e8c0:	02a8016b 	addi.w	$r11,$r11,-1536(0xa00)
1c01e8c4:	00107801 	add.w	$r1,$r0,$r30
1c01e8c8:	14c4d911 	lu12i.w	$r17,403144(0x626c8)
1c01e8cc:	02a8ee31 	addi.w	$r17,$r17,-1477(0xa3b)
1c01e8d0:	15844f50 	lu12i.w	$r16,-253318(0xc227a)
1c01e8d4:	02a80210 	addi.w	$r16,$r16,-1536(0xa00)
1c01e8d8:	5c078951 	bne	$r10,$r17,1928(0x788) # 1c01f060 <inst_error>
1c01e8dc:	028030c6 	addi.w	$r6,$r6,12(0xc)
1c01e8e0:	5c078170 	bne	$r11,$r16,1920(0x780) # 1c01f060 <inst_error>
1c01e8e4:	5c077cc5 	bne	$r6,$r5,1916(0x77c) # 1c01f060 <inst_error>
1c01e8e8:	0010041e 	add.w	$r30,$r0,$r1
1c01e8ec:	15a0b1b0 	lu12i.w	$r16,-195187(0xd058d)
1c01e8f0:	02a97610 	addi.w	$r16,$r16,-1443(0xa5d)
1c01e8f4:	150e0691 	lu12i.w	$r17,-495564(0x87034)
1c01e8f8:	02b46631 	addi.w	$r17,$r17,-743(0xd19)
1c01e8fc:	1400000a 	lu12i.w	$r10,0
1c01e900:	1400000b 	lu12i.w	$r11,0
1c01e904:	54001800 	bl	24(0x18) # 1c01e91c <n18_bl_test+0x42c>
1c01e908:	00100025 	add.w	$r5,$r1,$r0
1c01e90c:	15a0b1aa 	lu12i.w	$r10,-195187(0xd058d)
1c01e910:	02a9754a 	addi.w	$r10,$r10,-1443(0xa5d)
1c01e914:	54001400 	bl	20(0x14) # 1c01e928 <n18_bl_test+0x438>
1c01e918:	50001c00 	b	28(0x1c) # 1c01e934 <n18_bl_test+0x444>
1c01e91c:	00100024 	add.w	$r4,$r1,$r0
1c01e920:	57ffebff 	bl	-24(0xfffffe8) # 1c01e908 <n18_bl_test+0x418>
1c01e924:	50001000 	b	16(0x10) # 1c01e934 <n18_bl_test+0x444>
1c01e928:	00100026 	add.w	$r6,$r1,$r0
1c01e92c:	150e068b 	lu12i.w	$r11,-495564(0x87034)
1c01e930:	02b4656b 	addi.w	$r11,$r11,-743(0xd19)
1c01e934:	00107801 	add.w	$r1,$r0,$r30
1c01e938:	15a0b1b1 	lu12i.w	$r17,-195187(0xd058d)
1c01e93c:	02a97631 	addi.w	$r17,$r17,-1443(0xa5d)
1c01e940:	150e0690 	lu12i.w	$r16,-495564(0x87034)
1c01e944:	02b46610 	addi.w	$r16,$r16,-743(0xd19)
1c01e948:	5c071951 	bne	$r10,$r17,1816(0x718) # 1c01f060 <inst_error>
1c01e94c:	028030c6 	addi.w	$r6,$r6,12(0xc)
1c01e950:	5c071170 	bne	$r11,$r16,1808(0x710) # 1c01f060 <inst_error>
1c01e954:	5c070cc5 	bne	$r6,$r5,1804(0x70c) # 1c01f060 <inst_error>
1c01e958:	0010041e 	add.w	$r30,$r0,$r1
1c01e95c:	14910650 	lu12i.w	$r16,297010(0x48832)
1c01e960:	02956a10 	addi.w	$r16,$r16,1370(0x55a)
1c01e964:	14a4e471 	lu12i.w	$r17,337699(0x52723)
1c01e968:	02874231 	addi.w	$r17,$r17,464(0x1d0)
1c01e96c:	1400000a 	lu12i.w	$r10,0
1c01e970:	1400000b 	lu12i.w	$r11,0
1c01e974:	54001800 	bl	24(0x18) # 1c01e98c <n18_bl_test+0x49c>
1c01e978:	00100025 	add.w	$r5,$r1,$r0
1c01e97c:	1491064a 	lu12i.w	$r10,297010(0x48832)
1c01e980:	0295694a 	addi.w	$r10,$r10,1370(0x55a)
1c01e984:	54001400 	bl	20(0x14) # 1c01e998 <n18_bl_test+0x4a8>
1c01e988:	50001c00 	b	28(0x1c) # 1c01e9a4 <n18_bl_test+0x4b4>
1c01e98c:	00100024 	add.w	$r4,$r1,$r0
1c01e990:	57ffebff 	bl	-24(0xfffffe8) # 1c01e978 <n18_bl_test+0x488>
1c01e994:	50001000 	b	16(0x10) # 1c01e9a4 <n18_bl_test+0x4b4>
1c01e998:	00100026 	add.w	$r6,$r1,$r0
1c01e99c:	14a4e46b 	lu12i.w	$r11,337699(0x52723)
1c01e9a0:	0287416b 	addi.w	$r11,$r11,464(0x1d0)
1c01e9a4:	00107801 	add.w	$r1,$r0,$r30
1c01e9a8:	14910651 	lu12i.w	$r17,297010(0x48832)
1c01e9ac:	02956a31 	addi.w	$r17,$r17,1370(0x55a)
1c01e9b0:	14a4e470 	lu12i.w	$r16,337699(0x52723)
1c01e9b4:	02874210 	addi.w	$r16,$r16,464(0x1d0)
1c01e9b8:	5c06a951 	bne	$r10,$r17,1704(0x6a8) # 1c01f060 <inst_error>
1c01e9bc:	028030c6 	addi.w	$r6,$r6,12(0xc)
1c01e9c0:	5c06a170 	bne	$r11,$r16,1696(0x6a0) # 1c01f060 <inst_error>
1c01e9c4:	5c069cc5 	bne	$r6,$r5,1692(0x69c) # 1c01f060 <inst_error>
1c01e9c8:	0010041e 	add.w	$r30,$r0,$r1
1c01e9cc:	14905ab0 	lu12i.w	$r16,295637(0x482d5)
1c01e9d0:	02ae8210 	addi.w	$r16,$r16,-1120(0xba0)
1c01e9d4:	142cdfd1 	lu12i.w	$r17,91902(0x166fe)
1c01e9d8:	028d8a31 	addi.w	$r17,$r17,866(0x362)
1c01e9dc:	1400000a 	lu12i.w	$r10,0
1c01e9e0:	1400000b 	lu12i.w	$r11,0
1c01e9e4:	54001800 	bl	24(0x18) # 1c01e9fc <n18_bl_test+0x50c>
1c01e9e8:	00100025 	add.w	$r5,$r1,$r0
1c01e9ec:	14905aaa 	lu12i.w	$r10,295637(0x482d5)
1c01e9f0:	02ae814a 	addi.w	$r10,$r10,-1120(0xba0)
1c01e9f4:	54001400 	bl	20(0x14) # 1c01ea08 <n18_bl_test+0x518>
1c01e9f8:	50001c00 	b	28(0x1c) # 1c01ea14 <n18_bl_test+0x524>
1c01e9fc:	00100024 	add.w	$r4,$r1,$r0
1c01ea00:	57ffebff 	bl	-24(0xfffffe8) # 1c01e9e8 <n18_bl_test+0x4f8>
1c01ea04:	50001000 	b	16(0x10) # 1c01ea14 <n18_bl_test+0x524>
1c01ea08:	00100026 	add.w	$r6,$r1,$r0
1c01ea0c:	142cdfcb 	lu12i.w	$r11,91902(0x166fe)
1c01ea10:	028d896b 	addi.w	$r11,$r11,866(0x362)
1c01ea14:	00107801 	add.w	$r1,$r0,$r30
1c01ea18:	14905ab1 	lu12i.w	$r17,295637(0x482d5)
1c01ea1c:	02ae8231 	addi.w	$r17,$r17,-1120(0xba0)
1c01ea20:	142cdfd0 	lu12i.w	$r16,91902(0x166fe)
1c01ea24:	028d8a10 	addi.w	$r16,$r16,866(0x362)
1c01ea28:	5c063951 	bne	$r10,$r17,1592(0x638) # 1c01f060 <inst_error>
1c01ea2c:	028030c6 	addi.w	$r6,$r6,12(0xc)
1c01ea30:	5c063170 	bne	$r11,$r16,1584(0x630) # 1c01f060 <inst_error>
1c01ea34:	5c062cc5 	bne	$r6,$r5,1580(0x62c) # 1c01f060 <inst_error>
1c01ea38:	0010041e 	add.w	$r30,$r0,$r1
1c01ea3c:	155515f0 	lu12i.w	$r16,-350033(0xaa8af)
1c01ea40:	02973210 	addi.w	$r16,$r16,1484(0x5cc)
1c01ea44:	1425fb91 	lu12i.w	$r17,77788(0x12fdc)
1c01ea48:	02995231 	addi.w	$r17,$r17,1620(0x654)
1c01ea4c:	1400000a 	lu12i.w	$r10,0
1c01ea50:	1400000b 	lu12i.w	$r11,0
1c01ea54:	54001800 	bl	24(0x18) # 1c01ea6c <n18_bl_test+0x57c>
1c01ea58:	00100025 	add.w	$r5,$r1,$r0
1c01ea5c:	155515ea 	lu12i.w	$r10,-350033(0xaa8af)
1c01ea60:	0297314a 	addi.w	$r10,$r10,1484(0x5cc)
1c01ea64:	54001400 	bl	20(0x14) # 1c01ea78 <n18_bl_test+0x588>
1c01ea68:	50001c00 	b	28(0x1c) # 1c01ea84 <n18_bl_test+0x594>
1c01ea6c:	00100024 	add.w	$r4,$r1,$r0
1c01ea70:	57ffebff 	bl	-24(0xfffffe8) # 1c01ea58 <n18_bl_test+0x568>
1c01ea74:	50001000 	b	16(0x10) # 1c01ea84 <n18_bl_test+0x594>
1c01ea78:	00100026 	add.w	$r6,$r1,$r0
1c01ea7c:	1425fb8b 	lu12i.w	$r11,77788(0x12fdc)
1c01ea80:	0299516b 	addi.w	$r11,$r11,1620(0x654)
1c01ea84:	00107801 	add.w	$r1,$r0,$r30
1c01ea88:	155515f1 	lu12i.w	$r17,-350033(0xaa8af)
1c01ea8c:	02973231 	addi.w	$r17,$r17,1484(0x5cc)
1c01ea90:	1425fb90 	lu12i.w	$r16,77788(0x12fdc)
1c01ea94:	02995210 	addi.w	$r16,$r16,1620(0x654)
1c01ea98:	5c05c951 	bne	$r10,$r17,1480(0x5c8) # 1c01f060 <inst_error>
1c01ea9c:	028030c6 	addi.w	$r6,$r6,12(0xc)
1c01eaa0:	5c05c170 	bne	$r11,$r16,1472(0x5c0) # 1c01f060 <inst_error>
1c01eaa4:	5c05bcc5 	bne	$r6,$r5,1468(0x5bc) # 1c01f060 <inst_error>
1c01eaa8:	0010041e 	add.w	$r30,$r0,$r1
1c01eaac:	14c18d70 	lu12i.w	$r16,396395(0x60c6b)
1c01eab0:	028b1210 	addi.w	$r16,$r16,708(0x2c4)
1c01eab4:	14db07f1 	lu12i.w	$r17,448575(0x6d83f)
1c01eab8:	02a02a31 	addi.w	$r17,$r17,-2038(0x80a)
1c01eabc:	1400000a 	lu12i.w	$r10,0
1c01eac0:	1400000b 	lu12i.w	$r11,0
1c01eac4:	54001800 	bl	24(0x18) # 1c01eadc <n18_bl_test+0x5ec>
1c01eac8:	00100025 	add.w	$r5,$r1,$r0
1c01eacc:	14c18d6a 	lu12i.w	$r10,396395(0x60c6b)
1c01ead0:	028b114a 	addi.w	$r10,$r10,708(0x2c4)
1c01ead4:	54001400 	bl	20(0x14) # 1c01eae8 <n18_bl_test+0x5f8>
1c01ead8:	50001c00 	b	28(0x1c) # 1c01eaf4 <n18_bl_test+0x604>
1c01eadc:	00100024 	add.w	$r4,$r1,$r0
1c01eae0:	57ffebff 	bl	-24(0xfffffe8) # 1c01eac8 <n18_bl_test+0x5d8>
1c01eae4:	50001000 	b	16(0x10) # 1c01eaf4 <n18_bl_test+0x604>
1c01eae8:	00100026 	add.w	$r6,$r1,$r0
1c01eaec:	14db07eb 	lu12i.w	$r11,448575(0x6d83f)
1c01eaf0:	02a0296b 	addi.w	$r11,$r11,-2038(0x80a)
1c01eaf4:	00107801 	add.w	$r1,$r0,$r30
1c01eaf8:	14c18d71 	lu12i.w	$r17,396395(0x60c6b)
1c01eafc:	028b1231 	addi.w	$r17,$r17,708(0x2c4)
1c01eb00:	14db07f0 	lu12i.w	$r16,448575(0x6d83f)
1c01eb04:	02a02a10 	addi.w	$r16,$r16,-2038(0x80a)
1c01eb08:	5c055951 	bne	$r10,$r17,1368(0x558) # 1c01f060 <inst_error>
1c01eb0c:	028030c6 	addi.w	$r6,$r6,12(0xc)
1c01eb10:	5c055170 	bne	$r11,$r16,1360(0x550) # 1c01f060 <inst_error>
1c01eb14:	5c054cc5 	bne	$r6,$r5,1356(0x54c) # 1c01f060 <inst_error>
1c01eb18:	0010041e 	add.w	$r30,$r0,$r1
1c01eb1c:	150c8f50 	lu12i.w	$r16,-498566(0x8647a)
1c01eb20:	02b2e210 	addi.w	$r16,$r16,-840(0xcb8)
1c01eb24:	156f1f71 	lu12i.w	$r17,-296709(0xb78fb)
1c01eb28:	029e8a31 	addi.w	$r17,$r17,1954(0x7a2)
1c01eb2c:	1400000a 	lu12i.w	$r10,0
1c01eb30:	1400000b 	lu12i.w	$r11,0
1c01eb34:	54001800 	bl	24(0x18) # 1c01eb4c <n18_bl_test+0x65c>
1c01eb38:	00100025 	add.w	$r5,$r1,$r0
1c01eb3c:	150c8f4a 	lu12i.w	$r10,-498566(0x8647a)
1c01eb40:	02b2e14a 	addi.w	$r10,$r10,-840(0xcb8)
1c01eb44:	54001400 	bl	20(0x14) # 1c01eb58 <n18_bl_test+0x668>
1c01eb48:	50001c00 	b	28(0x1c) # 1c01eb64 <n18_bl_test+0x674>
1c01eb4c:	00100024 	add.w	$r4,$r1,$r0
1c01eb50:	57ffebff 	bl	-24(0xfffffe8) # 1c01eb38 <n18_bl_test+0x648>
1c01eb54:	50001000 	b	16(0x10) # 1c01eb64 <n18_bl_test+0x674>
1c01eb58:	00100026 	add.w	$r6,$r1,$r0
1c01eb5c:	156f1f6b 	lu12i.w	$r11,-296709(0xb78fb)
1c01eb60:	029e896b 	addi.w	$r11,$r11,1954(0x7a2)
1c01eb64:	00107801 	add.w	$r1,$r0,$r30
1c01eb68:	150c8f51 	lu12i.w	$r17,-498566(0x8647a)
1c01eb6c:	02b2e231 	addi.w	$r17,$r17,-840(0xcb8)
1c01eb70:	156f1f70 	lu12i.w	$r16,-296709(0xb78fb)
1c01eb74:	029e8a10 	addi.w	$r16,$r16,1954(0x7a2)
1c01eb78:	5c04e951 	bne	$r10,$r17,1256(0x4e8) # 1c01f060 <inst_error>
1c01eb7c:	028030c6 	addi.w	$r6,$r6,12(0xc)
1c01eb80:	5c04e170 	bne	$r11,$r16,1248(0x4e0) # 1c01f060 <inst_error>
1c01eb84:	5c04dcc5 	bne	$r6,$r5,1244(0x4dc) # 1c01f060 <inst_error>
1c01eb88:	0010041e 	add.w	$r30,$r0,$r1
1c01eb8c:	1556d6f0 	lu12i.w	$r16,-346441(0xab6b7)
1c01eb90:	0299f210 	addi.w	$r16,$r16,1660(0x67c)
1c01eb94:	147bc6f1 	lu12i.w	$r17,253495(0x3de37)
1c01eb98:	0284da31 	addi.w	$r17,$r17,310(0x136)
1c01eb9c:	1400000a 	lu12i.w	$r10,0
1c01eba0:	1400000b 	lu12i.w	$r11,0
1c01eba4:	54001800 	bl	24(0x18) # 1c01ebbc <n18_bl_test+0x6cc>
1c01eba8:	00100025 	add.w	$r5,$r1,$r0
1c01ebac:	1556d6ea 	lu12i.w	$r10,-346441(0xab6b7)
1c01ebb0:	0299f14a 	addi.w	$r10,$r10,1660(0x67c)
1c01ebb4:	54001400 	bl	20(0x14) # 1c01ebc8 <n18_bl_test+0x6d8>
1c01ebb8:	50001c00 	b	28(0x1c) # 1c01ebd4 <n18_bl_test+0x6e4>
1c01ebbc:	00100024 	add.w	$r4,$r1,$r0
1c01ebc0:	57ffebff 	bl	-24(0xfffffe8) # 1c01eba8 <n18_bl_test+0x6b8>
1c01ebc4:	50001000 	b	16(0x10) # 1c01ebd4 <n18_bl_test+0x6e4>
1c01ebc8:	00100026 	add.w	$r6,$r1,$r0
1c01ebcc:	147bc6eb 	lu12i.w	$r11,253495(0x3de37)
1c01ebd0:	0284d96b 	addi.w	$r11,$r11,310(0x136)
1c01ebd4:	00107801 	add.w	$r1,$r0,$r30
1c01ebd8:	1556d6f1 	lu12i.w	$r17,-346441(0xab6b7)
1c01ebdc:	0299f231 	addi.w	$r17,$r17,1660(0x67c)
1c01ebe0:	147bc6f0 	lu12i.w	$r16,253495(0x3de37)
1c01ebe4:	0284da10 	addi.w	$r16,$r16,310(0x136)
1c01ebe8:	5c047951 	bne	$r10,$r17,1144(0x478) # 1c01f060 <inst_error>
1c01ebec:	028030c6 	addi.w	$r6,$r6,12(0xc)
1c01ebf0:	5c047170 	bne	$r11,$r16,1136(0x470) # 1c01f060 <inst_error>
1c01ebf4:	5c046cc5 	bne	$r6,$r5,1132(0x46c) # 1c01f060 <inst_error>
1c01ebf8:	0010041e 	add.w	$r30,$r0,$r1
1c01ebfc:	149e58d0 	lu12i.w	$r16,324294(0x4f2c6)
1c01ec00:	029c0210 	addi.w	$r16,$r16,1792(0x700)
1c01ec04:	14b8dc31 	lu12i.w	$r17,378593(0x5c6e1)
1c01ec08:	02982231 	addi.w	$r17,$r17,1544(0x608)
1c01ec0c:	1400000a 	lu12i.w	$r10,0
1c01ec10:	1400000b 	lu12i.w	$r11,0
1c01ec14:	54001800 	bl	24(0x18) # 1c01ec2c <n18_bl_test+0x73c>
1c01ec18:	00100025 	add.w	$r5,$r1,$r0
1c01ec1c:	149e58ca 	lu12i.w	$r10,324294(0x4f2c6)
1c01ec20:	029c014a 	addi.w	$r10,$r10,1792(0x700)
1c01ec24:	54001400 	bl	20(0x14) # 1c01ec38 <n18_bl_test+0x748>
1c01ec28:	50001c00 	b	28(0x1c) # 1c01ec44 <n18_bl_test+0x754>
1c01ec2c:	00100024 	add.w	$r4,$r1,$r0
1c01ec30:	57ffebff 	bl	-24(0xfffffe8) # 1c01ec18 <n18_bl_test+0x728>
1c01ec34:	50001000 	b	16(0x10) # 1c01ec44 <n18_bl_test+0x754>
1c01ec38:	00100026 	add.w	$r6,$r1,$r0
1c01ec3c:	14b8dc2b 	lu12i.w	$r11,378593(0x5c6e1)
1c01ec40:	0298216b 	addi.w	$r11,$r11,1544(0x608)
1c01ec44:	00107801 	add.w	$r1,$r0,$r30
1c01ec48:	149e58d1 	lu12i.w	$r17,324294(0x4f2c6)
1c01ec4c:	029c0231 	addi.w	$r17,$r17,1792(0x700)
1c01ec50:	14b8dc30 	lu12i.w	$r16,378593(0x5c6e1)
1c01ec54:	02982210 	addi.w	$r16,$r16,1544(0x608)
1c01ec58:	5c040951 	bne	$r10,$r17,1032(0x408) # 1c01f060 <inst_error>
1c01ec5c:	028030c6 	addi.w	$r6,$r6,12(0xc)
1c01ec60:	5c040170 	bne	$r11,$r16,1024(0x400) # 1c01f060 <inst_error>
1c01ec64:	5c03fcc5 	bne	$r6,$r5,1020(0x3fc) # 1c01f060 <inst_error>
1c01ec68:	0010041e 	add.w	$r30,$r0,$r1
1c01ec6c:	1506e450 	lu12i.w	$r16,-510174(0x83722)
1c01ec70:	02878210 	addi.w	$r16,$r16,480(0x1e0)
1c01ec74:	15ecf451 	lu12i.w	$r17,-39006(0xf67a2)
1c01ec78:	02a20a31 	addi.w	$r17,$r17,-1918(0x882)
1c01ec7c:	1400000a 	lu12i.w	$r10,0
1c01ec80:	1400000b 	lu12i.w	$r11,0
1c01ec84:	54001800 	bl	24(0x18) # 1c01ec9c <n18_bl_test+0x7ac>
1c01ec88:	00100025 	add.w	$r5,$r1,$r0
1c01ec8c:	1506e44a 	lu12i.w	$r10,-510174(0x83722)
1c01ec90:	0287814a 	addi.w	$r10,$r10,480(0x1e0)
1c01ec94:	54001400 	bl	20(0x14) # 1c01eca8 <n18_bl_test+0x7b8>
1c01ec98:	50001c00 	b	28(0x1c) # 1c01ecb4 <n18_bl_test+0x7c4>
1c01ec9c:	00100024 	add.w	$r4,$r1,$r0
1c01eca0:	57ffebff 	bl	-24(0xfffffe8) # 1c01ec88 <n18_bl_test+0x798>
1c01eca4:	50001000 	b	16(0x10) # 1c01ecb4 <n18_bl_test+0x7c4>
1c01eca8:	00100026 	add.w	$r6,$r1,$r0
1c01ecac:	15ecf44b 	lu12i.w	$r11,-39006(0xf67a2)
1c01ecb0:	02a2096b 	addi.w	$r11,$r11,-1918(0x882)
1c01ecb4:	00107801 	add.w	$r1,$r0,$r30
1c01ecb8:	1506e451 	lu12i.w	$r17,-510174(0x83722)
1c01ecbc:	02878231 	addi.w	$r17,$r17,480(0x1e0)
1c01ecc0:	15ecf450 	lu12i.w	$r16,-39006(0xf67a2)
1c01ecc4:	02a20a10 	addi.w	$r16,$r16,-1918(0x882)
1c01ecc8:	5c039951 	bne	$r10,$r17,920(0x398) # 1c01f060 <inst_error>
1c01eccc:	028030c6 	addi.w	$r6,$r6,12(0xc)
1c01ecd0:	5c039170 	bne	$r11,$r16,912(0x390) # 1c01f060 <inst_error>
1c01ecd4:	5c038cc5 	bne	$r6,$r5,908(0x38c) # 1c01f060 <inst_error>
1c01ecd8:	0010041e 	add.w	$r30,$r0,$r1
1c01ecdc:	15d0c150 	lu12i.w	$r16,-96758(0xe860a)
1c01ece0:	02abce10 	addi.w	$r16,$r16,-1293(0xaf3)
1c01ece4:	15d18db1 	lu12i.w	$r17,-95123(0xe8c6d)
1c01ece8:	0288f231 	addi.w	$r17,$r17,572(0x23c)
1c01ecec:	1400000a 	lu12i.w	$r10,0
1c01ecf0:	1400000b 	lu12i.w	$r11,0
1c01ecf4:	54001800 	bl	24(0x18) # 1c01ed0c <n18_bl_test+0x81c>
1c01ecf8:	00100025 	add.w	$r5,$r1,$r0
1c01ecfc:	15d0c14a 	lu12i.w	$r10,-96758(0xe860a)
1c01ed00:	02abcd4a 	addi.w	$r10,$r10,-1293(0xaf3)
1c01ed04:	54001400 	bl	20(0x14) # 1c01ed18 <n18_bl_test+0x828>
1c01ed08:	50001c00 	b	28(0x1c) # 1c01ed24 <n18_bl_test+0x834>
1c01ed0c:	00100024 	add.w	$r4,$r1,$r0
1c01ed10:	57ffebff 	bl	-24(0xfffffe8) # 1c01ecf8 <n18_bl_test+0x808>
1c01ed14:	50001000 	b	16(0x10) # 1c01ed24 <n18_bl_test+0x834>
1c01ed18:	00100026 	add.w	$r6,$r1,$r0
1c01ed1c:	15d18dab 	lu12i.w	$r11,-95123(0xe8c6d)
1c01ed20:	0288f16b 	addi.w	$r11,$r11,572(0x23c)
1c01ed24:	00107801 	add.w	$r1,$r0,$r30
1c01ed28:	15d0c151 	lu12i.w	$r17,-96758(0xe860a)
1c01ed2c:	02abce31 	addi.w	$r17,$r17,-1293(0xaf3)
1c01ed30:	15d18db0 	lu12i.w	$r16,-95123(0xe8c6d)
1c01ed34:	0288f210 	addi.w	$r16,$r16,572(0x23c)
1c01ed38:	5c032951 	bne	$r10,$r17,808(0x328) # 1c01f060 <inst_error>
1c01ed3c:	028030c6 	addi.w	$r6,$r6,12(0xc)
1c01ed40:	5c032170 	bne	$r11,$r16,800(0x320) # 1c01f060 <inst_error>
1c01ed44:	5c031cc5 	bne	$r6,$r5,796(0x31c) # 1c01f060 <inst_error>
1c01ed48:	0010041e 	add.w	$r30,$r0,$r1
1c01ed4c:	153e8690 	lu12i.w	$r16,-396236(0x9f434)
1c01ed50:	02800a10 	addi.w	$r16,$r16,2(0x2)
1c01ed54:	14eeba11 	lu12i.w	$r17,488912(0x775d0)
1c01ed58:	029bf231 	addi.w	$r17,$r17,1788(0x6fc)
1c01ed5c:	1400000a 	lu12i.w	$r10,0
1c01ed60:	1400000b 	lu12i.w	$r11,0
1c01ed64:	54001800 	bl	24(0x18) # 1c01ed7c <n18_bl_test+0x88c>
1c01ed68:	00100025 	add.w	$r5,$r1,$r0
1c01ed6c:	153e868a 	lu12i.w	$r10,-396236(0x9f434)
1c01ed70:	0280094a 	addi.w	$r10,$r10,2(0x2)
1c01ed74:	54001400 	bl	20(0x14) # 1c01ed88 <n18_bl_test+0x898>
1c01ed78:	50001c00 	b	28(0x1c) # 1c01ed94 <n18_bl_test+0x8a4>
1c01ed7c:	00100024 	add.w	$r4,$r1,$r0
1c01ed80:	57ffebff 	bl	-24(0xfffffe8) # 1c01ed68 <n18_bl_test+0x878>
1c01ed84:	50001000 	b	16(0x10) # 1c01ed94 <n18_bl_test+0x8a4>
1c01ed88:	00100026 	add.w	$r6,$r1,$r0
1c01ed8c:	14eeba0b 	lu12i.w	$r11,488912(0x775d0)
1c01ed90:	029bf16b 	addi.w	$r11,$r11,1788(0x6fc)
1c01ed94:	00107801 	add.w	$r1,$r0,$r30
1c01ed98:	153e8691 	lu12i.w	$r17,-396236(0x9f434)
1c01ed9c:	02800a31 	addi.w	$r17,$r17,2(0x2)
1c01eda0:	14eeba10 	lu12i.w	$r16,488912(0x775d0)
1c01eda4:	029bf210 	addi.w	$r16,$r16,1788(0x6fc)
1c01eda8:	5c02b951 	bne	$r10,$r17,696(0x2b8) # 1c01f060 <inst_error>
1c01edac:	028030c6 	addi.w	$r6,$r6,12(0xc)
1c01edb0:	5c02b170 	bne	$r11,$r16,688(0x2b0) # 1c01f060 <inst_error>
1c01edb4:	5c02acc5 	bne	$r6,$r5,684(0x2ac) # 1c01f060 <inst_error>
1c01edb8:	0010041e 	add.w	$r30,$r0,$r1
1c01edbc:	14937390 	lu12i.w	$r16,301980(0x49b9c)
1c01edc0:	02870210 	addi.w	$r16,$r16,448(0x1c0)
1c01edc4:	154943f1 	lu12i.w	$r17,-374241(0xa4a1f)
1c01edc8:	02880231 	addi.w	$r17,$r17,512(0x200)
1c01edcc:	1400000a 	lu12i.w	$r10,0
1c01edd0:	1400000b 	lu12i.w	$r11,0
1c01edd4:	54001800 	bl	24(0x18) # 1c01edec <n18_bl_test+0x8fc>
1c01edd8:	00100025 	add.w	$r5,$r1,$r0
1c01eddc:	1493738a 	lu12i.w	$r10,301980(0x49b9c)
1c01ede0:	0287014a 	addi.w	$r10,$r10,448(0x1c0)
1c01ede4:	54001400 	bl	20(0x14) # 1c01edf8 <n18_bl_test+0x908>
1c01ede8:	50001c00 	b	28(0x1c) # 1c01ee04 <n18_bl_test+0x914>
1c01edec:	00100024 	add.w	$r4,$r1,$r0
1c01edf0:	57ffebff 	bl	-24(0xfffffe8) # 1c01edd8 <n18_bl_test+0x8e8>
1c01edf4:	50001000 	b	16(0x10) # 1c01ee04 <n18_bl_test+0x914>
1c01edf8:	00100026 	add.w	$r6,$r1,$r0
1c01edfc:	154943eb 	lu12i.w	$r11,-374241(0xa4a1f)
1c01ee00:	0288016b 	addi.w	$r11,$r11,512(0x200)
1c01ee04:	00107801 	add.w	$r1,$r0,$r30
1c01ee08:	14937391 	lu12i.w	$r17,301980(0x49b9c)
1c01ee0c:	02870231 	addi.w	$r17,$r17,448(0x1c0)
1c01ee10:	154943f0 	lu12i.w	$r16,-374241(0xa4a1f)
1c01ee14:	02880210 	addi.w	$r16,$r16,512(0x200)
1c01ee18:	5c024951 	bne	$r10,$r17,584(0x248) # 1c01f060 <inst_error>
1c01ee1c:	028030c6 	addi.w	$r6,$r6,12(0xc)
1c01ee20:	5c024170 	bne	$r11,$r16,576(0x240) # 1c01f060 <inst_error>
1c01ee24:	5c023cc5 	bne	$r6,$r5,572(0x23c) # 1c01f060 <inst_error>
1c01ee28:	0010041e 	add.w	$r30,$r0,$r1
1c01ee2c:	14a5d610 	lu12i.w	$r16,339632(0x52eb0)
1c01ee30:	02b80210 	addi.w	$r16,$r16,-512(0xe00)
1c01ee34:	15f5bbf1 	lu12i.w	$r17,-21025(0xfaddf)
1c01ee38:	02983231 	addi.w	$r17,$r17,1548(0x60c)
1c01ee3c:	1400000a 	lu12i.w	$r10,0
1c01ee40:	1400000b 	lu12i.w	$r11,0
1c01ee44:	54001800 	bl	24(0x18) # 1c01ee5c <n18_bl_test+0x96c>
1c01ee48:	00100025 	add.w	$r5,$r1,$r0
1c01ee4c:	14a5d60a 	lu12i.w	$r10,339632(0x52eb0)
1c01ee50:	02b8014a 	addi.w	$r10,$r10,-512(0xe00)
1c01ee54:	54001400 	bl	20(0x14) # 1c01ee68 <n18_bl_test+0x978>
1c01ee58:	50001c00 	b	28(0x1c) # 1c01ee74 <n18_bl_test+0x984>
1c01ee5c:	00100024 	add.w	$r4,$r1,$r0
1c01ee60:	57ffebff 	bl	-24(0xfffffe8) # 1c01ee48 <n18_bl_test+0x958>
1c01ee64:	50001000 	b	16(0x10) # 1c01ee74 <n18_bl_test+0x984>
1c01ee68:	00100026 	add.w	$r6,$r1,$r0
1c01ee6c:	15f5bbeb 	lu12i.w	$r11,-21025(0xfaddf)
1c01ee70:	0298316b 	addi.w	$r11,$r11,1548(0x60c)
1c01ee74:	00107801 	add.w	$r1,$r0,$r30
1c01ee78:	14a5d611 	lu12i.w	$r17,339632(0x52eb0)
1c01ee7c:	02b80231 	addi.w	$r17,$r17,-512(0xe00)
1c01ee80:	15f5bbf0 	lu12i.w	$r16,-21025(0xfaddf)
1c01ee84:	02983210 	addi.w	$r16,$r16,1548(0x60c)
1c01ee88:	5c01d951 	bne	$r10,$r17,472(0x1d8) # 1c01f060 <inst_error>
1c01ee8c:	028030c6 	addi.w	$r6,$r6,12(0xc)
1c01ee90:	5c01d170 	bne	$r11,$r16,464(0x1d0) # 1c01f060 <inst_error>
1c01ee94:	5c01ccc5 	bne	$r6,$r5,460(0x1cc) # 1c01f060 <inst_error>
1c01ee98:	0010041e 	add.w	$r30,$r0,$r1
1c01ee9c:	15a501f0 	lu12i.w	$r16,-186353(0xd280f)
1c01eea0:	02b82a10 	addi.w	$r16,$r16,-502(0xe0a)
1c01eea4:	1442edf1 	lu12i.w	$r17,137071(0x2176f)
1c01eea8:	02930231 	addi.w	$r17,$r17,1216(0x4c0)
1c01eeac:	1400000a 	lu12i.w	$r10,0
1c01eeb0:	1400000b 	lu12i.w	$r11,0
1c01eeb4:	54001800 	bl	24(0x18) # 1c01eecc <n18_bl_test+0x9dc>
1c01eeb8:	00100025 	add.w	$r5,$r1,$r0
1c01eebc:	15a501ea 	lu12i.w	$r10,-186353(0xd280f)
1c01eec0:	02b8294a 	addi.w	$r10,$r10,-502(0xe0a)
1c01eec4:	54001400 	bl	20(0x14) # 1c01eed8 <n18_bl_test+0x9e8>
1c01eec8:	50001c00 	b	28(0x1c) # 1c01eee4 <n18_bl_test+0x9f4>
1c01eecc:	00100024 	add.w	$r4,$r1,$r0
1c01eed0:	57ffebff 	bl	-24(0xfffffe8) # 1c01eeb8 <n18_bl_test+0x9c8>
1c01eed4:	50001000 	b	16(0x10) # 1c01eee4 <n18_bl_test+0x9f4>
1c01eed8:	00100026 	add.w	$r6,$r1,$r0
1c01eedc:	1442edeb 	lu12i.w	$r11,137071(0x2176f)
1c01eee0:	0293016b 	addi.w	$r11,$r11,1216(0x4c0)
1c01eee4:	00107801 	add.w	$r1,$r0,$r30
1c01eee8:	15a501f1 	lu12i.w	$r17,-186353(0xd280f)
1c01eeec:	02b82a31 	addi.w	$r17,$r17,-502(0xe0a)
1c01eef0:	1442edf0 	lu12i.w	$r16,137071(0x2176f)
1c01eef4:	02930210 	addi.w	$r16,$r16,1216(0x4c0)
1c01eef8:	5c016951 	bne	$r10,$r17,360(0x168) # 1c01f060 <inst_error>
1c01eefc:	028030c6 	addi.w	$r6,$r6,12(0xc)
1c01ef00:	5c016170 	bne	$r11,$r16,352(0x160) # 1c01f060 <inst_error>
1c01ef04:	5c015cc5 	bne	$r6,$r5,348(0x15c) # 1c01f060 <inst_error>
1c01ef08:	0010041e 	add.w	$r30,$r0,$r1
1c01ef0c:	15d378d0 	lu12i.w	$r16,-91194(0xe9bc6)
1c01ef10:	02aa4210 	addi.w	$r16,$r16,-1392(0xa90)
1c01ef14:	15560851 	lu12i.w	$r17,-348094(0xab042)
1c01ef18:	02869a31 	addi.w	$r17,$r17,422(0x1a6)
1c01ef1c:	1400000a 	lu12i.w	$r10,0
1c01ef20:	1400000b 	lu12i.w	$r11,0
1c01ef24:	54001800 	bl	24(0x18) # 1c01ef3c <n18_bl_test+0xa4c>
1c01ef28:	00100025 	add.w	$r5,$r1,$r0
1c01ef2c:	15d378ca 	lu12i.w	$r10,-91194(0xe9bc6)
1c01ef30:	02aa414a 	addi.w	$r10,$r10,-1392(0xa90)
1c01ef34:	54001400 	bl	20(0x14) # 1c01ef48 <n18_bl_test+0xa58>
1c01ef38:	50001c00 	b	28(0x1c) # 1c01ef54 <n18_bl_test+0xa64>
1c01ef3c:	00100024 	add.w	$r4,$r1,$r0
1c01ef40:	57ffebff 	bl	-24(0xfffffe8) # 1c01ef28 <n18_bl_test+0xa38>
1c01ef44:	50001000 	b	16(0x10) # 1c01ef54 <n18_bl_test+0xa64>
1c01ef48:	00100026 	add.w	$r6,$r1,$r0
1c01ef4c:	1556084b 	lu12i.w	$r11,-348094(0xab042)
1c01ef50:	0286996b 	addi.w	$r11,$r11,422(0x1a6)
1c01ef54:	00107801 	add.w	$r1,$r0,$r30
1c01ef58:	15d378d1 	lu12i.w	$r17,-91194(0xe9bc6)
1c01ef5c:	02aa4231 	addi.w	$r17,$r17,-1392(0xa90)
1c01ef60:	15560850 	lu12i.w	$r16,-348094(0xab042)
1c01ef64:	02869a10 	addi.w	$r16,$r16,422(0x1a6)
1c01ef68:	5c00f951 	bne	$r10,$r17,248(0xf8) # 1c01f060 <inst_error>
1c01ef6c:	028030c6 	addi.w	$r6,$r6,12(0xc)
1c01ef70:	5c00f170 	bne	$r11,$r16,240(0xf0) # 1c01f060 <inst_error>
1c01ef74:	5c00ecc5 	bne	$r6,$r5,236(0xec) # 1c01f060 <inst_error>
1c01ef78:	0010041e 	add.w	$r30,$r0,$r1
1c01ef7c:	15066bb0 	lu12i.w	$r16,-511139(0x8335d)
1c01ef80:	0299b610 	addi.w	$r16,$r16,1645(0x66d)
1c01ef84:	15b5e591 	lu12i.w	$r17,-151764(0xdaf2c)
1c01ef88:	02888a31 	addi.w	$r17,$r17,546(0x222)
1c01ef8c:	1400000a 	lu12i.w	$r10,0
1c01ef90:	1400000b 	lu12i.w	$r11,0
1c01ef94:	54001800 	bl	24(0x18) # 1c01efac <n18_bl_test+0xabc>
1c01ef98:	00100025 	add.w	$r5,$r1,$r0
1c01ef9c:	15066baa 	lu12i.w	$r10,-511139(0x8335d)
1c01efa0:	0299b54a 	addi.w	$r10,$r10,1645(0x66d)
1c01efa4:	54001400 	bl	20(0x14) # 1c01efb8 <n18_bl_test+0xac8>
1c01efa8:	50001c00 	b	28(0x1c) # 1c01efc4 <n18_bl_test+0xad4>
1c01efac:	00100024 	add.w	$r4,$r1,$r0
1c01efb0:	57ffebff 	bl	-24(0xfffffe8) # 1c01ef98 <n18_bl_test+0xaa8>
1c01efb4:	50001000 	b	16(0x10) # 1c01efc4 <n18_bl_test+0xad4>
1c01efb8:	00100026 	add.w	$r6,$r1,$r0
1c01efbc:	15b5e58b 	lu12i.w	$r11,-151764(0xdaf2c)
1c01efc0:	0288896b 	addi.w	$r11,$r11,546(0x222)
1c01efc4:	00107801 	add.w	$r1,$r0,$r30
1c01efc8:	15066bb1 	lu12i.w	$r17,-511139(0x8335d)
1c01efcc:	0299b631 	addi.w	$r17,$r17,1645(0x66d)
1c01efd0:	15b5e590 	lu12i.w	$r16,-151764(0xdaf2c)
1c01efd4:	02888a10 	addi.w	$r16,$r16,546(0x222)
1c01efd8:	5c008951 	bne	$r10,$r17,136(0x88) # 1c01f060 <inst_error>
1c01efdc:	028030c6 	addi.w	$r6,$r6,12(0xc)
1c01efe0:	5c008170 	bne	$r11,$r16,128(0x80) # 1c01f060 <inst_error>
1c01efe4:	5c007cc5 	bne	$r6,$r5,124(0x7c) # 1c01f060 <inst_error>
1c01efe8:	0010041e 	add.w	$r30,$r0,$r1
1c01efec:	1431c130 	lu12i.w	$r16,101897(0x18e09)
1c01eff0:	02b40210 	addi.w	$r16,$r16,-768(0xd00)
1c01eff4:	14df46d1 	lu12i.w	$r17,457270(0x6fa36)
1c01eff8:	02867a31 	addi.w	$r17,$r17,414(0x19e)
1c01effc:	1400000a 	lu12i.w	$r10,0
1c01f000:	1400000b 	lu12i.w	$r11,0
1c01f004:	54001800 	bl	24(0x18) # 1c01f01c <n18_bl_test+0xb2c>
1c01f008:	00100025 	add.w	$r5,$r1,$r0
1c01f00c:	1431c12a 	lu12i.w	$r10,101897(0x18e09)
1c01f010:	02b4014a 	addi.w	$r10,$r10,-768(0xd00)
1c01f014:	54001400 	bl	20(0x14) # 1c01f028 <n18_bl_test+0xb38>
1c01f018:	50001c00 	b	28(0x1c) # 1c01f034 <n18_bl_test+0xb44>
1c01f01c:	00100024 	add.w	$r4,$r1,$r0
1c01f020:	57ffebff 	bl	-24(0xfffffe8) # 1c01f008 <n18_bl_test+0xb18>
1c01f024:	50001000 	b	16(0x10) # 1c01f034 <n18_bl_test+0xb44>
1c01f028:	00100026 	add.w	$r6,$r1,$r0
1c01f02c:	14df46cb 	lu12i.w	$r11,457270(0x6fa36)
1c01f030:	0286796b 	addi.w	$r11,$r11,414(0x19e)
1c01f034:	00107801 	add.w	$r1,$r0,$r30
1c01f038:	1431c131 	lu12i.w	$r17,101897(0x18e09)
1c01f03c:	02b40231 	addi.w	$r17,$r17,-768(0xd00)
1c01f040:	14df46d0 	lu12i.w	$r16,457270(0x6fa36)
1c01f044:	02867a10 	addi.w	$r16,$r16,414(0x19e)
1c01f048:	5c001951 	bne	$r10,$r17,24(0x18) # 1c01f060 <inst_error>
1c01f04c:	028030c6 	addi.w	$r6,$r6,12(0xc)
1c01f050:	5c001170 	bne	$r11,$r16,16(0x10) # 1c01f060 <inst_error>
1c01f054:	5c000cc5 	bne	$r6,$r5,12(0xc) # 1c01f060 <inst_error>
1c01f058:	5c000b20 	bne	$r25,$r0,8(0x8) # 1c01f060 <inst_error>
1c01f05c:	0280075a 	addi.w	$r26,$r26,1(0x1)

1c01f060 <inst_error>:
1c01f060:	0040e2ed 	slli.w	$r13,$r23,0x18
1c01f064:	001569ac 	or	$r12,$r13,$r26
1c01f068:	2980030c 	st.w	$r12,$r24,0
1c01f06c:	4c000020 	jirl	$r0,$r1,0

1c01f070 <n10_nor_test>:
n10_nor_test():
1c01f070:	028006f7 	addi.w	$r23,$r23,1(0x1)
1c01f074:	00150019 	move	$r25,$r0
1c01f078:	155b398c 	lu12i.w	$r12,-337460(0xad9cc)
1c01f07c:	0280398c 	addi.w	$r12,$r12,14(0xe)
1c01f080:	14716fed 	lu12i.w	$r13,232319(0x38b7f)
1c01f084:	02b091ad 	addi.w	$r13,$r13,-988(0xc24)
1c01f088:	1484802b 	lu12i.w	$r11,271361(0x42401)
1c01f08c:	028f456b 	addi.w	$r11,$r11,977(0x3d1)
1c01f090:	0014358a 	nor	$r10,$r12,$r13
1c01f094:	5c06ed4b 	bne	$r10,$r11,1772(0x6ec) # 1c01f780 <inst_error>
1c01f098:	14cd1acc 	lu12i.w	$r12,420054(0x668d6)
1c01f09c:	02b6c18c 	addi.w	$r12,$r12,-592(0xdb0)
1c01f0a0:	154128cd 	lu12i.w	$r13,-390842(0xa0946)
1c01f0a4:	02afc1ad 	addi.w	$r13,$r13,-1040(0xbf0)
1c01f0a8:	1432c54b 	lu12i.w	$r11,103978(0x1962a)
1c01f0ac:	02803d6b 	addi.w	$r11,$r11,15(0xf)
1c01f0b0:	0014358a 	nor	$r10,$r12,$r13
1c01f0b4:	5c06cd4b 	bne	$r10,$r11,1740(0x6cc) # 1c01f780 <inst_error>
1c01f0b8:	14db062c 	lu12i.w	$r12,448561(0x6d831)
1c01f0bc:	02be418c 	addi.w	$r12,$r12,-112(0xf90)
1c01f0c0:	14cd662d 	lu12i.w	$r13,420657(0x66b31)
1c01f0c4:	029181ad 	addi.w	$r13,$r13,1120(0x460)
1c01f0c8:	152099cb 	lu12i.w	$r11,-457522(0x904ce)
1c01f0cc:	02803d6b 	addi.w	$r11,$r11,15(0xf)
1c01f0d0:	0014358a 	nor	$r10,$r12,$r13
1c01f0d4:	5c06ad4b 	bne	$r10,$r11,1708(0x6ac) # 1c01f780 <inst_error>
1c01f0d8:	14c011ec 	lu12i.w	$r12,393359(0x6008f)
1c01f0dc:	028d7d8c 	addi.w	$r12,$r12,863(0x35f)
1c01f0e0:	14a95d0d 	lu12i.w	$r13,346856(0x54ae8)
1c01f0e4:	0287e9ad 	addi.w	$r13,$r13,506(0x1fa)
1c01f0e8:	1516a22b 	lu12i.w	$r11,-477935(0x8b511)
1c01f0ec:	02b0016b 	addi.w	$r11,$r11,-1024(0xc00)
1c01f0f0:	0014358a 	nor	$r10,$r12,$r13
1c01f0f4:	5c068d4b 	bne	$r10,$r11,1676(0x68c) # 1c01f780 <inst_error>
1c01f0f8:	155991ec 	lu12i.w	$r12,-340849(0xacc8f)
1c01f0fc:	028b498c 	addi.w	$r12,$r12,722(0x2d2)
1c01f100:	14a2922d 	lu12i.w	$r13,332945(0x51491)
1c01f104:	029d81ad 	addi.w	$r13,$r13,1888(0x760)
1c01f108:	14046c2b 	lu12i.w	$r11,9057(0x2361)
1c01f10c:	02a0356b 	addi.w	$r11,$r11,-2035(0x80d)
1c01f110:	0014358a 	nor	$r10,$r12,$r13
1c01f114:	5c066d4b 	bne	$r10,$r11,1644(0x66c) # 1c01f780 <inst_error>
1c01f118:	145f008c 	lu12i.w	$r12,194564(0x2f804)
1c01f11c:	02a7818c 	addi.w	$r12,$r12,-1568(0x9e0)
1c01f120:	15e958cd 	lu12i.w	$r13,-46394(0xf4ac6)
1c01f124:	029c61ad 	addi.w	$r13,$r13,1816(0x718)
1c01f128:	1400a70b 	lu12i.w	$r11,1336(0x538)
1c01f12c:	02801d6b 	addi.w	$r11,$r11,7(0x7)
1c01f130:	0014358a 	nor	$r10,$r12,$r13
1c01f134:	5c064d4b 	bne	$r10,$r11,1612(0x64c) # 1c01f780 <inst_error>
1c01f138:	15b93dcc 	lu12i.w	$r12,-144914(0xdc9ee)
1c01f13c:	02b7018c 	addi.w	$r12,$r12,-576(0xdc0)
1c01f140:	143475ed 	lu12i.w	$r13,107439(0x1a3af)
1c01f144:	02af21ad 	addi.w	$r13,$r13,-1080(0xbc8)
1c01f148:	1442820b 	lu12i.w	$r11,136208(0x21410)
1c01f14c:	0280dd6b 	addi.w	$r11,$r11,55(0x37)
1c01f150:	0014358a 	nor	$r10,$r12,$r13
1c01f154:	5c062d4b 	bne	$r10,$r11,1580(0x62c) # 1c01f780 <inst_error>
1c01f158:	15f481ec 	lu12i.w	$r12,-23537(0xfa40f)
1c01f15c:	0284998c 	addi.w	$r12,$r12,294(0x126)
1c01f160:	15f4704d 	lu12i.w	$r13,-23678(0xfa382)
1c01f164:	0294e1ad 	addi.w	$r13,$r13,1336(0x538)
1c01f168:	140b0e2b 	lu12i.w	$r11,22641(0x5871)
1c01f16c:	02ab056b 	addi.w	$r11,$r11,-1343(0xac1)
1c01f170:	0014358a 	nor	$r10,$r12,$r13
1c01f174:	5c060d4b 	bne	$r10,$r11,1548(0x60c) # 1c01f780 <inst_error>
1c01f178:	140c066c 	lu12i.w	$r12,24627(0x6033)
1c01f17c:	0281918c 	addi.w	$r12,$r12,100(0x64)
1c01f180:	154eb16d 	lu12i.w	$r13,-363125(0xa758b)
1c01f184:	029701ad 	addi.w	$r13,$r13,1472(0x5c0)
1c01f188:	14b148ab 	lu12i.w	$r11,363077(0x58a45)
1c01f18c:	02a86d6b 	addi.w	$r11,$r11,-1509(0xa1b)
1c01f190:	0014358a 	nor	$r10,$r12,$r13
1c01f194:	5c05ed4b 	bne	$r10,$r11,1516(0x5ec) # 1c01f780 <inst_error>
1c01f198:	151a1eec 	lu12i.w	$r12,-470793(0x8d0f7)
1c01f19c:	0282518c 	addi.w	$r12,$r12,148(0x94)
1c01f1a0:	14276f6d 	lu12i.w	$r13,80763(0x13b7b)
1c01f1a4:	028001ad 	addi.w	$r13,$r13,0
1c01f1a8:	14c0802b 	lu12i.w	$r11,394241(0x60401)
1c01f1ac:	02bdad6b 	addi.w	$r11,$r11,-149(0xf6b)
1c01f1b0:	0014358a 	nor	$r10,$r12,$r13
1c01f1b4:	5c05cd4b 	bne	$r10,$r11,1484(0x5cc) # 1c01f780 <inst_error>
1c01f1b8:	15a7916c 	lu12i.w	$r12,-181109(0xd3c8b)
1c01f1bc:	02b4298c 	addi.w	$r12,$r12,-758(0xd0a)
1c01f1c0:	15e9110d 	lu12i.w	$r13,-46968(0xf4888)
1c01f1c4:	02af8dad 	addi.w	$r13,$r13,-1053(0xbe3)
1c01f1c8:	14106e0b 	lu12i.w	$r11,33648(0x8370)
1c01f1cc:	0280516b 	addi.w	$r11,$r11,20(0x14)
1c01f1d0:	0014358a 	nor	$r10,$r12,$r13
1c01f1d4:	5c05ad4b 	bne	$r10,$r11,1452(0x5ac) # 1c01f780 <inst_error>
1c01f1d8:	1501d78c 	lu12i.w	$r12,-520516(0x80ebc)
1c01f1dc:	02beb18c 	addi.w	$r12,$r12,-84(0xfac)
1c01f1e0:	15303d6d 	lu12i.w	$r13,-425493(0x981eb)
1c01f1e4:	0283a9ad 	addi.w	$r13,$r13,234(0xea)
1c01f1e8:	14ce008b 	lu12i.w	$r11,421892(0x67004)
1c01f1ec:	0280456b 	addi.w	$r11,$r11,17(0x11)
1c01f1f0:	0014358a 	nor	$r10,$r12,$r13
1c01f1f4:	5c058d4b 	bne	$r10,$r11,1420(0x58c) # 1c01f780 <inst_error>
1c01f1f8:	159fe4cc 	lu12i.w	$r12,-196826(0xcff26)
1c01f1fc:	02bfb98c 	addi.w	$r12,$r12,-18(0xfee)
1c01f200:	14f09dad 	lu12i.w	$r13,492781(0x784ed)
1c01f204:	029c1dad 	addi.w	$r13,$r13,1799(0x707)
1c01f208:	1400024b 	lu12i.w	$r11,18(0x12)
1c01f20c:	0280416b 	addi.w	$r11,$r11,16(0x10)
1c01f210:	0014358a 	nor	$r10,$r12,$r13
1c01f214:	5c056d4b 	bne	$r10,$r11,1388(0x56c) # 1c01f780 <inst_error>
1c01f218:	1598414c 	lu12i.w	$r12,-212470(0xcc20a)
1c01f21c:	0298118c 	addi.w	$r12,$r12,1540(0x604)
1c01f220:	1586e9cd 	lu12i.w	$r13,-247986(0xc374e)
1c01f224:	029c71ad 	addi.w	$r13,$r13,1820(0x71c)
1c01f228:	1461164b 	lu12i.w	$r11,198834(0x308b2)
1c01f22c:	02a38d6b 	addi.w	$r11,$r11,-1821(0x8e3)
1c01f230:	0014358a 	nor	$r10,$r12,$r13
1c01f234:	5c054d4b 	bne	$r10,$r11,1356(0x54c) # 1c01f780 <inst_error>
1c01f238:	15f8974c 	lu12i.w	$r12,-15174(0xfc4ba)
1c01f23c:	029c218c 	addi.w	$r12,$r12,1800(0x708)
1c01f240:	1404ce6d 	lu12i.w	$r13,9843(0x2673)
1c01f244:	02b871ad 	addi.w	$r13,$r13,-484(0xe1c)
1c01f248:	140320ab 	lu12i.w	$r11,6405(0x1905)
1c01f24c:	02838d6b 	addi.w	$r11,$r11,227(0xe3)
1c01f250:	0014358a 	nor	$r10,$r12,$r13
1c01f254:	5c052d4b 	bne	$r10,$r11,1324(0x52c) # 1c01f780 <inst_error>
1c01f258:	15ef310c 	lu12i.w	$r12,-34424(0xf7988)
1c01f25c:	0297418c 	addi.w	$r12,$r12,1488(0x5d0)
1c01f260:	148c8dad 	lu12i.w	$r13,287853(0x4646d)
1c01f264:	029109ad 	addi.w	$r13,$r13,1090(0x442)
1c01f268:	1410426b 	lu12i.w	$r11,33299(0x8213)
1c01f26c:	02a8b56b 	addi.w	$r11,$r11,-1491(0xa2d)
1c01f270:	0014358a 	nor	$r10,$r12,$r13
1c01f274:	5c050d4b 	bne	$r10,$r11,1292(0x50c) # 1c01f780 <inst_error>
1c01f278:	14d32dac 	lu12i.w	$r12,432493(0x6996d)
1c01f27c:	028dc18c 	addi.w	$r12,$r12,880(0x370)
1c01f280:	14ff7f0d 	lu12i.w	$r13,523256(0x7fbf8)
1c01f284:	02a801ad 	addi.w	$r13,$r13,-1536(0xa00)
1c01f288:	1500800b 	lu12i.w	$r11,-523264(0x80400)
1c01f28c:	02923d6b 	addi.w	$r11,$r11,1167(0x48f)
1c01f290:	0014358a 	nor	$r10,$r12,$r13
1c01f294:	5c04ed4b 	bne	$r10,$r11,1260(0x4ec) # 1c01f780 <inst_error>
1c01f298:	15f8534c 	lu12i.w	$r12,-15718(0xfc29a)
1c01f29c:	02a6d58c 	addi.w	$r12,$r12,-1611(0x9b5)
1c01f2a0:	1453e28d 	lu12i.w	$r13,171796(0x29f14)
1c01f2a4:	029641ad 	addi.w	$r13,$r13,1424(0x590)
1c01f2a8:	14040c4b 	lu12i.w	$r11,8290(0x2062)
1c01f2ac:	0289296b 	addi.w	$r11,$r11,586(0x24a)
1c01f2b0:	0014358a 	nor	$r10,$r12,$r13
1c01f2b4:	5c04cd4b 	bne	$r10,$r11,1228(0x4cc) # 1c01f780 <inst_error>
1c01f2b8:	15e8ac0c 	lu12i.w	$r12,-47776(0xf4560)
1c01f2bc:	02ac818c 	addi.w	$r12,$r12,-1248(0xb20)
1c01f2c0:	159865ad 	lu12i.w	$r13,-212179(0xcc32d)
1c01f2c4:	0298a1ad 	addi.w	$r13,$r13,1576(0x628)
1c01f2c8:	1407100b 	lu12i.w	$r11,14464(0x3880)
1c01f2cc:	02835d6b 	addi.w	$r11,$r11,215(0xd7)
1c01f2d0:	0014358a 	nor	$r10,$r12,$r13
1c01f2d4:	5c04ad4b 	bne	$r10,$r11,1196(0x4ac) # 1c01f780 <inst_error>
1c01f2d8:	1476ae6c 	lu12i.w	$r12,243059(0x3b573)
1c01f2dc:	02b79d8c 	addi.w	$r12,$r12,-537(0xde7)
1c01f2e0:	1549560d 	lu12i.w	$r13,-374096(0xa4ab0)
1c01f2e4:	02b9f9ad 	addi.w	$r13,$r13,-386(0xe7e)
1c01f2e8:	1480000b 	lu12i.w	$r11,262144(0x40000)
1c01f2ec:	0280016b 	addi.w	$r11,$r11,0
1c01f2f0:	0014358a 	nor	$r10,$r12,$r13
1c01f2f4:	5c048d4b 	bne	$r10,$r11,1164(0x48c) # 1c01f780 <inst_error>
1c01f2f8:	151c3aac 	lu12i.w	$r12,-466475(0x8e1d5)
1c01f2fc:	02ae018c 	addi.w	$r12,$r12,-1152(0xb80)
1c01f300:	156992ad 	lu12i.w	$r13,-308075(0xb4c95)
1c01f304:	0296c1ad 	addi.w	$r13,$r13,1456(0x5b0)
1c01f308:	1482454b 	lu12i.w	$r11,266794(0x4122a)
1c01f30c:	02813d6b 	addi.w	$r11,$r11,79(0x4f)
1c01f310:	0014358a 	nor	$r10,$r12,$r13
1c01f314:	5c046d4b 	bne	$r10,$r11,1132(0x46c) # 1c01f780 <inst_error>
1c01f318:	141025ec 	lu12i.w	$r12,33071(0x812f)
1c01f31c:	0283c18c 	addi.w	$r12,$r12,240(0xf0)
1c01f320:	14decded 	lu12i.w	$r13,456303(0x6f66f)
1c01f324:	02af81ad 	addi.w	$r13,$r13,-1056(0xbe0)
1c01f328:	1521120b 	lu12i.w	$r11,-456560(0x90890)
1c01f32c:	02903d6b 	addi.w	$r11,$r11,1039(0x40f)
1c01f330:	0014358a 	nor	$r10,$r12,$r13
1c01f334:	5c044d4b 	bne	$r10,$r11,1100(0x44c) # 1c01f780 <inst_error>
1c01f338:	156b67ac 	lu12i.w	$r12,-304323(0xb5b3d)
1c01f33c:	02be318c 	addi.w	$r12,$r12,-116(0xf8c)
1c01f340:	14b8920d 	lu12i.w	$r13,378000(0x5c490)
1c01f344:	02a9a1ad 	addi.w	$r13,$r13,-1432(0xa68)
1c01f348:	1404080b 	lu12i.w	$r11,8256(0x2040)
1c01f34c:	02804d6b 	addi.w	$r11,$r11,19(0x13)
1c01f350:	0014358a 	nor	$r10,$r12,$r13
1c01f354:	5c042d4b 	bne	$r10,$r11,1068(0x42c) # 1c01f780 <inst_error>
1c01f358:	1507df0c 	lu12i.w	$r12,-508168(0x83ef8)
1c01f35c:	029f998c 	addi.w	$r12,$r12,2022(0x7e6)
1c01f360:	1492f36d 	lu12i.w	$r13,300955(0x4979b)
1c01f364:	028bedad 	addi.w	$r13,$r13,763(0x2fb)
1c01f368:	146800ab 	lu12i.w	$r11,212997(0x34005)
1c01f36c:	02a0016b 	addi.w	$r11,$r11,-2048(0x800)
1c01f370:	0014358a 	nor	$r10,$r12,$r13
1c01f374:	5c040d4b 	bne	$r10,$r11,1036(0x40c) # 1c01f780 <inst_error>
1c01f378:	15e7526c 	lu12i.w	$r12,-50541(0xf3a93)
1c01f37c:	0286c18c 	addi.w	$r12,$r12,432(0x1b0)
1c01f380:	141c218d 	lu12i.w	$r13,57612(0xe10c)
1c01f384:	028739ad 	addi.w	$r13,$r13,462(0x1ce)
1c01f388:	14008c2b 	lu12i.w	$r11,1121(0x461)
1c01f38c:	02b8056b 	addi.w	$r11,$r11,-511(0xe01)
1c01f390:	0014358a 	nor	$r10,$r12,$r13
1c01f394:	5c03ed4b 	bne	$r10,$r11,1004(0x3ec) # 1c01f780 <inst_error>
1c01f398:	1544938c 	lu12i.w	$r12,-383844(0xa249c)
1c01f39c:	029a518c 	addi.w	$r12,$r12,1684(0x694)
1c01f3a0:	14c5a72d 	lu12i.w	$r13,404793(0x62d39)
1c01f3a4:	02b731ad 	addi.w	$r13,$r13,-564(0xdcc)
1c01f3a8:	143a486b 	lu12i.w	$r11,119363(0x1d243)
1c01f3ac:	02808d6b 	addi.w	$r11,$r11,35(0x23)
1c01f3b0:	0014358a 	nor	$r10,$r12,$r13
1c01f3b4:	5c03cd4b 	bne	$r10,$r11,972(0x3cc) # 1c01f780 <inst_error>
1c01f3b8:	14e9c48c 	lu12i.w	$r12,478756(0x74e24)
1c01f3bc:	02a1a98c 	addi.w	$r12,$r12,-1942(0x86a)
1c01f3c0:	143b7ded 	lu12i.w	$r13,121839(0x1dbef)
1c01f3c4:	02b801ad 	addi.w	$r13,$r13,-512(0xe00)
1c01f3c8:	1504020b 	lu12i.w	$r11,-516080(0x82010)
1c01f3cc:	0286556b 	addi.w	$r11,$r11,405(0x195)
1c01f3d0:	0014358a 	nor	$r10,$r12,$r13
1c01f3d4:	5c03ad4b 	bne	$r10,$r11,940(0x3ac) # 1c01f780 <inst_error>
1c01f3d8:	14b1eb6c 	lu12i.w	$r12,364379(0x58f5b)
1c01f3dc:	02b6818c 	addi.w	$r12,$r12,-608(0xda0)
1c01f3e0:	14a63d8d 	lu12i.w	$r13,340460(0x531ec)
1c01f3e4:	02ae01ad 	addi.w	$r13,$r13,-1152(0xb80)
1c01f3e8:	1548008b 	lu12i.w	$r11,-376828(0xa4004)
1c01f3ec:	02817d6b 	addi.w	$r11,$r11,95(0x5f)
1c01f3f0:	0014358a 	nor	$r10,$r12,$r13
1c01f3f4:	5c038d4b 	bne	$r10,$r11,908(0x38c) # 1c01f780 <inst_error>
1c01f3f8:	1556bd2c 	lu12i.w	$r12,-346647(0xab5e9)
1c01f3fc:	02b6c18c 	addi.w	$r12,$r12,-592(0xdb0)
1c01f400:	1529c4cd 	lu12i.w	$r13,-438746(0x94e26)
1c01f404:	02a8a1ad 	addi.w	$r13,$r13,-1496(0xa28)
1c01f408:	1480024b 	lu12i.w	$r11,262162(0x40012)
1c01f40c:	02811d6b 	addi.w	$r11,$r11,71(0x47)
1c01f410:	0014358a 	nor	$r10,$r12,$r13
1c01f414:	5c036d4b 	bne	$r10,$r11,876(0x36c) # 1c01f780 <inst_error>
1c01f418:	15b08b6c 	lu12i.w	$r12,-162725(0xd845b)
1c01f41c:	02bdc98c 	addi.w	$r12,$r12,-142(0xf72)
1c01f420:	154efbad 	lu12i.w	$r13,-362531(0xa77dd)
1c01f424:	02bec1ad 	addi.w	$r13,$r13,-80(0xfb0)
1c01f428:	1401042b 	lu12i.w	$r11,2081(0x821)
1c01f42c:	0280356b 	addi.w	$r11,$r11,13(0xd)
1c01f430:	0014358a 	nor	$r10,$r12,$r13
1c01f434:	5c034d4b 	bne	$r10,$r11,844(0x34c) # 1c01f780 <inst_error>
1c01f438:	14b6156c 	lu12i.w	$r12,372907(0x5b0ab)
1c01f43c:	0296298c 	addi.w	$r12,$r12,1418(0x58a)
1c01f440:	1428370d 	lu12i.w	$r13,82360(0x141b8)
1c01f444:	029661ad 	addi.w	$r13,$r13,1432(0x598)
1c01f448:	1541c8ab 	lu12i.w	$r11,-389563(0xa0e45)
1c01f44c:	02a9956b 	addi.w	$r11,$r11,-1435(0xa65)
1c01f450:	0014358a 	nor	$r10,$r12,$r13
1c01f454:	5c032d4b 	bne	$r10,$r11,812(0x32c) # 1c01f780 <inst_error>
1c01f458:	155fa60c 	lu12i.w	$r12,-328400(0xafd30)
1c01f45c:	02b81d8c 	addi.w	$r12,$r12,-505(0xe07)
1c01f460:	1543f94d 	lu12i.w	$r13,-385078(0xa1fca)
1c01f464:	028b51ad 	addi.w	$r13,$r13,724(0x2d4)
1c01f468:	14a0020b 	lu12i.w	$r11,327696(0x50010)
1c01f46c:	0284a16b 	addi.w	$r11,$r11,296(0x128)
1c01f470:	0014358a 	nor	$r10,$r12,$r13
1c01f474:	5c030d4b 	bne	$r10,$r11,780(0x30c) # 1c01f780 <inst_error>
1c01f478:	14b1d1ac 	lu12i.w	$r12,364173(0x58e8d)
1c01f47c:	02a6a18c 	addi.w	$r12,$r12,-1624(0x9a8)
1c01f480:	1543a00d 	lu12i.w	$r13,-385792(0xa1d00)
1c01f484:	029dc1ad 	addi.w	$r13,$r13,1904(0x770)
1c01f488:	140c0e6b 	lu12i.w	$r11,24691(0x6073)
1c01f48c:	02801d6b 	addi.w	$r11,$r11,7(0x7)
1c01f490:	0014358a 	nor	$r10,$r12,$r13
1c01f494:	5c02ed4b 	bne	$r10,$r11,748(0x2ec) # 1c01f780 <inst_error>
1c01f498:	15174f8c 	lu12i.w	$r12,-476548(0x8ba7c)
1c01f49c:	02a2718c 	addi.w	$r12,$r12,-1892(0x89c)
1c01f4a0:	15c5908d 	lu12i.w	$r13,-119676(0xe2c84)
1c01f4a4:	02bf01ad 	addi.w	$r13,$r13,-64(0xfc0)
1c01f4a8:	1428208b 	lu12i.w	$r11,82180(0x14104)
1c01f4ac:	02808d6b 	addi.w	$r11,$r11,35(0x23)
1c01f4b0:	0014358a 	nor	$r10,$r12,$r13
1c01f4b4:	5c02cd4b 	bne	$r10,$r11,716(0x2cc) # 1c01f780 <inst_error>
1c01f4b8:	1418b2ec 	lu12i.w	$r12,50583(0xc597)
1c01f4bc:	02a9c98c 	addi.w	$r12,$r12,-1422(0xa72)
1c01f4c0:	1596684d 	lu12i.w	$r13,-216254(0xcb342)
1c01f4c4:	02a1f9ad 	addi.w	$r13,$r13,-1922(0x87e)
1c01f4c8:	1461050b 	lu12i.w	$r11,198696(0x30828)
1c01f4cc:	0296056b 	addi.w	$r11,$r11,1409(0x581)
1c01f4d0:	0014358a 	nor	$r10,$r12,$r13
1c01f4d4:	5c02ad4b 	bne	$r10,$r11,684(0x2ac) # 1c01f780 <inst_error>
1c01f4d8:	15e77b8c 	lu12i.w	$r12,-50212(0xf3bdc)
1c01f4dc:	02bbad8c 	addi.w	$r12,$r12,-277(0xeeb)
1c01f4e0:	14899c8d 	lu12i.w	$r13,281828(0x44ce4)
1c01f4e4:	0289d9ad 	addi.w	$r13,$r13,630(0x276)
1c01f4e8:	1410000b 	lu12i.w	$r11,32768(0x8000)
1c01f4ec:	0284016b 	addi.w	$r11,$r11,256(0x100)
1c01f4f0:	0014358a 	nor	$r10,$r12,$r13
1c01f4f4:	5c028d4b 	bne	$r10,$r11,652(0x28c) # 1c01f780 <inst_error>
1c01f4f8:	15f4bacc 	lu12i.w	$r12,-23082(0xfa5d6)
1c01f4fc:	0285698c 	addi.w	$r12,$r12,346(0x15a)
1c01f500:	149fe38d 	lu12i.w	$r13,327452(0x4ff1c)
1c01f504:	029029ad 	addi.w	$r13,$r13,1034(0x40a)
1c01f508:	1400044b 	lu12i.w	$r11,34(0x22)
1c01f50c:	02aa956b 	addi.w	$r11,$r11,-1371(0xaa5)
1c01f510:	0014358a 	nor	$r10,$r12,$r13
1c01f514:	5c026d4b 	bne	$r10,$r11,620(0x26c) # 1c01f780 <inst_error>
1c01f518:	147da5ec 	lu12i.w	$r12,257327(0x3ed2f)
1c01f51c:	02b8018c 	addi.w	$r12,$r12,-512(0xe00)
1c01f520:	14a7b50d 	lu12i.w	$r13,343464(0x53da8)
1c01f524:	0281bdad 	addi.w	$r13,$r13,111(0x6f)
1c01f528:	15004a2b 	lu12i.w	$r11,-523695(0x80251)
1c01f52c:	0286416b 	addi.w	$r11,$r11,400(0x190)
1c01f530:	0014358a 	nor	$r10,$r12,$r13
1c01f534:	5c024d4b 	bne	$r10,$r11,588(0x24c) # 1c01f780 <inst_error>
1c01f538:	154a4e0c 	lu12i.w	$r12,-372112(0xa5270)
1c01f53c:	029c298c 	addi.w	$r12,$r12,1802(0x70a)
1c01f540:	141bfa8d 	lu12i.w	$r13,57300(0xdfd4)
1c01f544:	02b8adad 	addi.w	$r13,$r13,-469(0xe2b)
1c01f548:	14a4018b 	lu12i.w	$r11,335884(0x5200c)
1c01f54c:	0283516b 	addi.w	$r11,$r11,212(0xd4)
1c01f550:	0014358a 	nor	$r10,$r12,$r13
1c01f554:	5c022d4b 	bne	$r10,$r11,556(0x22c) # 1c01f780 <inst_error>
1c01f558:	140efbac 	lu12i.w	$r12,30685(0x77dd)
1c01f55c:	02ae818c 	addi.w	$r12,$r12,-1120(0xba0)
1c01f560:	1473174d 	lu12i.w	$r13,235706(0x398ba)
1c01f564:	0288f1ad 	addi.w	$r13,$r13,572(0x23c)
1c01f568:	1580002b 	lu12i.w	$r11,-262143(0xc0001)
1c01f56c:	02910d6b 	addi.w	$r11,$r11,1091(0x443)
1c01f570:	0014358a 	nor	$r10,$r12,$r13
1c01f574:	5c020d4b 	bne	$r10,$r11,524(0x20c) # 1c01f780 <inst_error>
1c01f578:	157f45ec 	lu12i.w	$r12,-263633(0xbfa2f)
1c01f57c:	02a4a18c 	addi.w	$r12,$r12,-1752(0x928)
1c01f580:	14b75f8d 	lu12i.w	$r13,375548(0x5bafc)
1c01f584:	029781ad 	addi.w	$r13,$r13,1504(0x5e0)
1c01f588:	1400a02b 	lu12i.w	$r11,1281(0x501)
1c01f58c:	02885d6b 	addi.w	$r11,$r11,535(0x217)
1c01f590:	0014358a 	nor	$r10,$r12,$r13
1c01f594:	5c01ed4b 	bne	$r10,$r11,492(0x1ec) # 1c01f780 <inst_error>
1c01f598:	14fa12ec 	lu12i.w	$r12,512151(0x7d097)
1c01f59c:	02a5e18c 	addi.w	$r12,$r12,-1672(0x978)
1c01f5a0:	14be6e4d 	lu12i.w	$r13,390002(0x5f372)
1c01f5a4:	028601ad 	addi.w	$r13,$r13,384(0x180)
1c01f5a8:	1501812b 	lu12i.w	$r11,-521207(0x80c09)
1c01f5ac:	02981d6b 	addi.w	$r11,$r11,1543(0x607)
1c01f5b0:	0014358a 	nor	$r10,$r12,$r13
1c01f5b4:	5c01cd4b 	bne	$r10,$r11,460(0x1cc) # 1c01f780 <inst_error>
1c01f5b8:	15cfa22c 	lu12i.w	$r12,-99055(0xe7d11)
1c01f5bc:	02aac98c 	addi.w	$r12,$r12,-1358(0xab2)
1c01f5c0:	157915cd 	lu12i.w	$r13,-276306(0xbc8ae)
1c01f5c4:	02ae81ad 	addi.w	$r13,$r13,-1120(0xba0)
1c01f5c8:	1400484b 	lu12i.w	$r11,578(0x242)
1c01f5cc:	0291356b 	addi.w	$r11,$r11,1101(0x44d)
1c01f5d0:	0014358a 	nor	$r10,$r12,$r13
1c01f5d4:	5c01ad4b 	bne	$r10,$r11,428(0x1ac) # 1c01f780 <inst_error>
1c01f5d8:	157354ec 	lu12i.w	$r12,-288089(0xb9aa7)
1c01f5dc:	0285cd8c 	addi.w	$r12,$r12,371(0x173)
1c01f5e0:	14b47ded 	lu12i.w	$r13,369647(0x5a3ef)
1c01f5e4:	02ac55ad 	addi.w	$r13,$r13,-1259(0xb15)
1c01f5e8:	1408820b 	lu12i.w	$r11,17424(0x4410)
1c01f5ec:	0292216b 	addi.w	$r11,$r11,1160(0x488)
1c01f5f0:	0014358a 	nor	$r10,$r12,$r13
1c01f5f4:	5c018d4b 	bne	$r10,$r11,396(0x18c) # 1c01f780 <inst_error>
1c01f5f8:	15b98f8c 	lu12i.w	$r12,-144260(0xdcc7c)
1c01f5fc:	02aa818c 	addi.w	$r12,$r12,-1376(0xaa0)
1c01f600:	14b68f0d 	lu12i.w	$r13,373880(0x5b478)
1c01f604:	029061ad 	addi.w	$r13,$r13,1048(0x418)
1c01f608:	1440708b 	lu12i.w	$r11,131972(0x20384)
1c01f60c:	02851d6b 	addi.w	$r11,$r11,327(0x147)
1c01f610:	0014358a 	nor	$r10,$r12,$r13
1c01f614:	5c016d4b 	bne	$r10,$r11,364(0x16c) # 1c01f780 <inst_error>
1c01f618:	15f0318c 	lu12i.w	$r12,-32372(0xf818c)
1c01f61c:	02bce18c 	addi.w	$r12,$r12,-200(0xf38)
1c01f620:	15a5dc2d 	lu12i.w	$r13,-184607(0xd2ee1)
1c01f624:	02a8b1ad 	addi.w	$r13,$r13,-1492(0xa2c)
1c01f628:	140a028b 	lu12i.w	$r11,20500(0x5014)
1c01f62c:	02830d6b 	addi.w	$r11,$r11,195(0xc3)
1c01f630:	0014358a 	nor	$r10,$r12,$r13
1c01f634:	5c014d4b 	bne	$r10,$r11,332(0x14c) # 1c01f780 <inst_error>
1c01f638:	1461d4ac 	lu12i.w	$r12,200357(0x30ea5)
1c01f63c:	02bd218c 	addi.w	$r12,$r12,-184(0xf48)
1c01f640:	14ed2bed 	lu12i.w	$r13,485727(0x7695f)
1c01f644:	02b939ad 	addi.w	$r13,$r13,-434(0xe4e)
1c01f648:	1512002b 	lu12i.w	$r11,-487423(0x89001)
1c01f64c:	0282c56b 	addi.w	$r11,$r11,177(0xb1)
1c01f650:	0014358a 	nor	$r10,$r12,$r13
1c01f654:	5c012d4b 	bne	$r10,$r11,300(0x12c) # 1c01f780 <inst_error>
1c01f658:	15188acc 	lu12i.w	$r12,-474026(0x8c456)
1c01f65c:	0299018c 	addi.w	$r12,$r12,1600(0x640)
1c01f660:	15358f8d 	lu12i.w	$r13,-414596(0x9ac7c)
1c01f664:	029f91ad 	addi.w	$r13,$r13,2020(0x7e4)
1c01f668:	14c2704b 	lu12i.w	$r11,398210(0x61382)
1c01f66c:	02a06d6b 	addi.w	$r11,$r11,-2021(0x81b)
1c01f670:	0014358a 	nor	$r10,$r12,$r13
1c01f674:	5c010d4b 	bne	$r10,$r11,268(0x10c) # 1c01f780 <inst_error>
1c01f678:	15f85bac 	lu12i.w	$r12,-15651(0xfc2dd)
1c01f67c:	02a6f98c 	addi.w	$r12,$r12,-1602(0x9be)
1c01f680:	14ff118d 	lu12i.w	$r13,522380(0x7f88c)
1c01f684:	02b44dad 	addi.w	$r13,$r13,-749(0xd13)
1c01f688:	1400a40b 	lu12i.w	$r11,1312(0x520)
1c01f68c:	0289016b 	addi.w	$r11,$r11,576(0x240)
1c01f690:	0014358a 	nor	$r10,$r12,$r13
1c01f694:	5c00ed4b 	bne	$r10,$r11,236(0xec) # 1c01f780 <inst_error>
1c01f698:	14d3674c 	lu12i.w	$r12,432954(0x69b3a)
1c01f69c:	02ace18c 	addi.w	$r12,$r12,-1224(0xb38)
1c01f6a0:	1454088d 	lu12i.w	$r13,172100(0x2a044)
1c01f6a4:	02bc81ad 	addi.w	$r13,$r13,-224(0xf20)
1c01f6a8:	1528908b 	lu12i.w	$r11,-441212(0x94484)
1c01f6ac:	02831d6b 	addi.w	$r11,$r11,199(0xc7)
1c01f6b0:	0014358a 	nor	$r10,$r12,$r13
1c01f6b4:	5c00cd4b 	bne	$r10,$r11,204(0xcc) # 1c01f780 <inst_error>
1c01f6b8:	150371cc 	lu12i.w	$r12,-517234(0x81b8e)
1c01f6bc:	028db18c 	addi.w	$r12,$r12,876(0x36c)
1c01f6c0:	15dea04d 	lu12i.w	$r13,-68350(0xef502)
1c01f6c4:	028e81ad 	addi.w	$r13,$r13,928(0x3a0)
1c01f6c8:	14200e4b 	lu12i.w	$r11,65650(0x10072)
1c01f6cc:	02b04d6b 	addi.w	$r11,$r11,-1005(0xc13)
1c01f6d0:	0014358a 	nor	$r10,$r12,$r13
1c01f6d4:	5c00ad4b 	bne	$r10,$r11,172(0xac) # 1c01f780 <inst_error>
1c01f6d8:	1422b46c 	lu12i.w	$r12,71075(0x115a3)
1c01f6dc:	028c798c 	addi.w	$r12,$r12,798(0x31e)
1c01f6e0:	15368e0d 	lu12i.w	$r13,-412560(0x9b470)
1c01f6e4:	029df9ad 	addi.w	$r13,$r13,1918(0x77e)
1c01f6e8:	14c941ab 	lu12i.w	$r11,412173(0x64a0d)
1c01f6ec:	02a2056b 	addi.w	$r11,$r11,-1919(0x881)
1c01f6f0:	0014358a 	nor	$r10,$r12,$r13
1c01f6f4:	5c008d4b 	bne	$r10,$r11,140(0x8c) # 1c01f780 <inst_error>
1c01f6f8:	14b26c8c 	lu12i.w	$r12,365412(0x59364)
1c01f6fc:	02b2f18c 	addi.w	$r12,$r12,-836(0xcbc)
1c01f700:	15b82d0d 	lu12i.w	$r13,-147096(0xdc168)
1c01f704:	02ae61ad 	addi.w	$r13,$r13,-1128(0xb98)
1c01f708:	1445930b 	lu12i.w	$r11,142488(0x22c98)
1c01f70c:	02810d6b 	addi.w	$r11,$r11,67(0x43)
1c01f710:	0014358a 	nor	$r10,$r12,$r13
1c01f714:	5c006d4b 	bne	$r10,$r11,108(0x6c) # 1c01f780 <inst_error>
1c01f718:	14e14f2c 	lu12i.w	$r12,461433(0x70a79)
1c01f71c:	02821d8c 	addi.w	$r12,$r12,135(0x87)
1c01f720:	14bff46d 	lu12i.w	$r13,393123(0x5ffa3)
1c01f724:	02ac9dad 	addi.w	$r13,$r13,-1241(0xb27)
1c01f728:	1500008b 	lu12i.w	$r11,-524284(0x80004)
1c01f72c:	0291616b 	addi.w	$r11,$r11,1112(0x458)
1c01f730:	0014358a 	nor	$r10,$r12,$r13
1c01f734:	5c004d4b 	bne	$r10,$r11,76(0x4c) # 1c01f780 <inst_error>
1c01f738:	140977ec 	lu12i.w	$r12,19391(0x4bbf)
1c01f73c:	0299758c 	addi.w	$r12,$r12,1629(0x65d)
1c01f740:	1547454d 	lu12i.w	$r13,-378326(0xa3a2a)
1c01f744:	02b589ad 	addi.w	$r13,$r13,-670(0xd62)
1c01f748:	14b0880b 	lu12i.w	$r11,361536(0x58440)
1c01f74c:	0282016b 	addi.w	$r11,$r11,128(0x80)
1c01f750:	0014358a 	nor	$r10,$r12,$r13
1c01f754:	5c002d4b 	bne	$r10,$r11,44(0x2c) # 1c01f780 <inst_error>
1c01f758:	15861a0c 	lu12i.w	$r12,-249648(0xc30d0)
1c01f75c:	02bd218c 	addi.w	$r12,$r12,-184(0xf48)
1c01f760:	15f0862d 	lu12i.w	$r13,-31695(0xf8431)
1c01f764:	02b311ad 	addi.w	$r13,$r13,-828(0xcc4)
1c01f768:	1409600b 	lu12i.w	$r11,19200(0x4b00)
1c01f76c:	0280cd6b 	addi.w	$r11,$r11,51(0x33)
1c01f770:	0014358a 	nor	$r10,$r12,$r13
1c01f774:	5c000d4b 	bne	$r10,$r11,12(0xc) # 1c01f780 <inst_error>
1c01f778:	5c000b20 	bne	$r25,$r0,8(0x8) # 1c01f780 <inst_error>
1c01f77c:	0280075a 	addi.w	$r26,$r26,1(0x1)

1c01f780 <inst_error>:
1c01f780:	0040e2ed 	slli.w	$r13,$r23,0x18
1c01f784:	001569ac 	or	$r12,$r13,$r26
1c01f788:	2980030c 	st.w	$r12,$r24,0
1c01f78c:	4c000020 	jirl	$r0,$r1,0

1c01f790 <n2_add_w_test>:
n2_add_w_test():
1c01f790:	028006f7 	addi.w	$r23,$r23,1(0x1)
1c01f794:	02800019 	addi.w	$r25,$r0,0
1c01f798:	1435bdec 	lu12i.w	$r12,110063(0x1adef)
1c01f79c:	028c018c 	addi.w	$r12,$r12,768(0x300)
1c01f7a0:	14a3bacd 	lu12i.w	$r13,335318(0x51dd6)
1c01f7a4:	02a379ad 	addi.w	$r13,$r13,-1826(0x8de)
1c01f7a8:	14d978ab 	lu12i.w	$r11,445381(0x6cbc5)
1c01f7ac:	02af796b 	addi.w	$r11,$r11,-1058(0xbde)
1c01f7b0:	0010358a 	add.w	$r10,$r12,$r13
1c01f7b4:	5c0ccd4b 	bne	$r10,$r11,3276(0xccc) # 1c020480 <inst_error>
1c01f7b8:	152ce9ec 	lu12i.w	$r12,-432305(0x9674f)
1c01f7bc:	02a9818c 	addi.w	$r12,$r12,-1440(0xa60)
1c01f7c0:	15568ead 	lu12i.w	$r13,-347019(0xab475)
1c01f7c4:	029e49ad 	addi.w	$r13,$r13,1938(0x792)
1c01f7c8:	1483788b 	lu12i.w	$r11,269252(0x41bc4)
1c01f7cc:	0287c96b 	addi.w	$r11,$r11,498(0x1f2)
1c01f7d0:	0010358a 	add.w	$r10,$r12,$r13
1c01f7d4:	5c0cad4b 	bne	$r10,$r11,3244(0xcac) # 1c020480 <inst_error>
1c01f7d8:	156c1b8c 	lu12i.w	$r12,-302884(0xb60dc)
1c01f7dc:	02a6198c 	addi.w	$r12,$r12,-1658(0x986)
1c01f7e0:	145cadad 	lu12i.w	$r13,189805(0x2e56d)
1c01f7e4:	02a069ad 	addi.w	$r13,$r13,-2022(0x81a)
1c01f7e8:	15c8c90b 	lu12i.w	$r11,-113080(0xe4648)
1c01f7ec:	0286816b 	addi.w	$r11,$r11,416(0x1a0)
1c01f7f0:	0010358a 	add.w	$r10,$r12,$r13
1c01f7f4:	5c0c8d4b 	bne	$r10,$r11,3212(0xc8c) # 1c020480 <inst_error>
1c01f7f8:	15aabdcc 	lu12i.w	$r12,-174610(0xd55ee)
1c01f7fc:	02af018c 	addi.w	$r12,$r12,-1088(0xbc0)
1c01f800:	14c1ebad 	lu12i.w	$r13,397149(0x60f5d)
1c01f804:	02ac31ad 	addi.w	$r13,$r13,-1268(0xb0c)
1c01f808:	146ca94b 	lu12i.w	$r11,222538(0x3654a)
1c01f80c:	029b316b 	addi.w	$r11,$r11,1740(0x6cc)
1c01f810:	0010358a 	add.w	$r10,$r12,$r13
1c01f814:	5c0c6d4b 	bne	$r10,$r11,3180(0xc6c) # 1c020480 <inst_error>
1c01f818:	154571cc 	lu12i.w	$r12,-382066(0xa2b8e)
1c01f81c:	0293818c 	addi.w	$r12,$r12,1248(0x4e0)
1c01f820:	158dcced 	lu12i.w	$r13,-233881(0xc6e67)
1c01f824:	02aa81ad 	addi.w	$r13,$r13,-1376(0xaa0)
1c01f828:	14d33eab 	lu12i.w	$r11,432629(0x699f5)
1c01f82c:	02be016b 	addi.w	$r11,$r11,-128(0xf80)
1c01f830:	0010358a 	add.w	$r10,$r12,$r13
1c01f834:	5c0c4d4b 	bne	$r10,$r11,3148(0xc4c) # 1c020480 <inst_error>
1c01f838:	15d80a0c 	lu12i.w	$r12,-81840(0xec050)
1c01f83c:	0286858c 	addi.w	$r12,$r12,417(0x1a1)
1c01f840:	14304d0d 	lu12i.w	$r13,98920(0x18268)
1c01f844:	02a499ad 	addi.w	$r13,$r13,-1754(0x926)
1c01f848:	1408570b 	lu12i.w	$r11,17080(0x42b8)
1c01f84c:	02ab1d6b 	addi.w	$r11,$r11,-1337(0xac7)
1c01f850:	0010358a 	add.w	$r10,$r12,$r13
1c01f854:	5c0c2d4b 	bne	$r10,$r11,3116(0xc2c) # 1c020480 <inst_error>
1c01f858:	14d5bc6c 	lu12i.w	$r12,437731(0x6ade3)
1c01f85c:	029ac18c 	addi.w	$r12,$r12,1712(0x6b0)
1c01f860:	15803a8d 	lu12i.w	$r13,-261676(0xc01d4)
1c01f864:	028801ad 	addi.w	$r13,$r13,512(0x200)
1c01f868:	1455f70b 	lu12i.w	$r11,176056(0x2afb8)
1c01f86c:	02a2c16b 	addi.w	$r11,$r11,-1872(0x8b0)
1c01f870:	0010358a 	add.w	$r10,$r12,$r13
1c01f874:	5c0c0d4b 	bne	$r10,$r11,3084(0xc0c) # 1c020480 <inst_error>
1c01f878:	14d8112c 	lu12i.w	$r12,442505(0x6c089)
1c01f87c:	02b3a18c 	addi.w	$r12,$r12,-792(0xce8)
1c01f880:	15439c8d 	lu12i.w	$r13,-385820(0xa1ce4)
1c01f884:	028101ad 	addi.w	$r13,$r13,64(0x40)
1c01f888:	141badab 	lu12i.w	$r11,56685(0xdd6d)
1c01f88c:	02b4a16b 	addi.w	$r11,$r11,-728(0xd28)
1c01f890:	0010358a 	add.w	$r10,$r12,$r13
1c01f894:	5c0bed4b 	bne	$r10,$r11,3052(0xbec) # 1c020480 <inst_error>
1c01f898:	149e2dec 	lu12i.w	$r12,323951(0x4f16f)
1c01f89c:	02a31d8c 	addi.w	$r12,$r12,-1849(0x8c7)
1c01f8a0:	1448258d 	lu12i.w	$r13,147756(0x2412c)
1c01f8a4:	02b341ad 	addi.w	$r13,$r13,-816(0xcd0)
1c01f8a8:	14e6534b 	lu12i.w	$r11,471706(0x7329a)
1c01f8ac:	02965d6b 	addi.w	$r11,$r11,1431(0x597)
1c01f8b0:	0010358a 	add.w	$r10,$r12,$r13
1c01f8b4:	5c0bcd4b 	bne	$r10,$r11,3020(0xbcc) # 1c020480 <inst_error>
1c01f8b8:	140414ac 	lu12i.w	$r12,8357(0x20a5)
1c01f8bc:	02876d8c 	addi.w	$r12,$r12,475(0x1db)
1c01f8c0:	156d176d 	lu12i.w	$r13,-300869(0xb68bb)
1c01f8c4:	0292e9ad 	addi.w	$r13,$r13,1210(0x4ba)
1c01f8c8:	15712c0b 	lu12i.w	$r11,-292512(0xb8960)
1c01f8cc:	029a556b 	addi.w	$r11,$r11,1685(0x695)
1c01f8d0:	0010358a 	add.w	$r10,$r12,$r13
1c01f8d4:	5c0bad4b 	bne	$r10,$r11,2988(0xbac) # 1c020480 <inst_error>
1c01f8d8:	1480f32c 	lu12i.w	$r12,264089(0x40799)
1c01f8dc:	02a6818c 	addi.w	$r12,$r12,-1632(0x9a0)
1c01f8e0:	14e02aad 	lu12i.w	$r13,459093(0x70155)
1c01f8e4:	029afdad 	addi.w	$r13,$r13,1727(0x6bf)
1c01f8e8:	15611dcb 	lu12i.w	$r11,-325394(0xb08ee)
1c01f8ec:	02817d6b 	addi.w	$r11,$r11,95(0x5f)
1c01f8f0:	0010358a 	add.w	$r10,$r12,$r13
1c01f8f4:	5c0b8d4b 	bne	$r10,$r11,2956(0xb8c) # 1c020480 <inst_error>
1c01f8f8:	1479302c 	lu12i.w	$r12,248193(0x3c981)
1c01f8fc:	0295a18c 	addi.w	$r12,$r12,1384(0x568)
1c01f900:	1447504d 	lu12i.w	$r13,146050(0x23a82)
1c01f904:	029801ad 	addi.w	$r13,$r13,1536(0x600)
1c01f908:	14c0808b 	lu12i.w	$r11,394244(0x60404)
1c01f90c:	02ada16b 	addi.w	$r11,$r11,-1176(0xb68)
1c01f910:	0010358a 	add.w	$r10,$r12,$r13
1c01f914:	5c0b6d4b 	bne	$r10,$r11,2924(0xb6c) # 1c020480 <inst_error>
1c01f918:	1525c6ac 	lu12i.w	$r12,-446923(0x92e35)
1c01f91c:	0295018c 	addi.w	$r12,$r12,1344(0x540)
1c01f920:	14e3bacd 	lu12i.w	$r13,466390(0x71dd6)
1c01f924:	029439ad 	addi.w	$r13,$r13,1294(0x50e)
1c01f928:	1409818b 	lu12i.w	$r11,19468(0x4c0c)
1c01f92c:	02a9396b 	addi.w	$r11,$r11,-1458(0xa4e)
1c01f930:	0010358a 	add.w	$r10,$r12,$r13
1c01f934:	5c0b4d4b 	bne	$r10,$r11,2892(0xb4c) # 1c020480 <inst_error>
1c01f938:	147a1d6c 	lu12i.w	$r12,250091(0x3d0eb)
1c01f93c:	02b8d98c 	addi.w	$r12,$r12,-458(0xe36)
1c01f940:	1490f62d 	lu12i.w	$r13,296881(0x487b1)
1c01f944:	02ae91ad 	addi.w	$r13,$r13,-1116(0xba4)
1c01f948:	150b138b 	lu12i.w	$r11,-501604(0x8589c)
1c01f94c:	02a7696b 	addi.w	$r11,$r11,-1574(0x9da)
1c01f950:	0010358a 	add.w	$r10,$r12,$r13
1c01f954:	5c0b2d4b 	bne	$r10,$r11,2860(0xb2c) # 1c020480 <inst_error>
1c01f958:	14a9746c 	lu12i.w	$r12,347043(0x54ba3)
1c01f95c:	02a1818c 	addi.w	$r12,$r12,-1952(0x860)
1c01f960:	14c1f08d 	lu12i.w	$r13,397188(0x60f84)
1c01f964:	0290a1ad 	addi.w	$r13,$r13,1064(0x428)
1c01f968:	156b64eb 	lu12i.w	$r11,-304345(0xb5b27)
1c01f96c:	02b2216b 	addi.w	$r11,$r11,-888(0xc88)
1c01f970:	0010358a 	add.w	$r10,$r12,$r13
1c01f974:	5c0b0d4b 	bne	$r10,$r11,2828(0xb0c) # 1c020480 <inst_error>
1c01f978:	145ffecc 	lu12i.w	$r12,196598(0x2fff6)
1c01f97c:	0294898c 	addi.w	$r12,$r12,1314(0x522)
1c01f980:	150fc60d 	lu12i.w	$r13,-491984(0x87e30)
1c01f984:	0296c1ad 	addi.w	$r13,$r13,1456(0x5b0)
1c01f988:	156fc4eb 	lu12i.w	$r11,-295385(0xb7e27)
1c01f98c:	02ab496b 	addi.w	$r11,$r11,-1326(0xad2)
1c01f990:	0010358a 	add.w	$r10,$r12,$r13
1c01f994:	5c0aed4b 	bne	$r10,$r11,2796(0xaec) # 1c020480 <inst_error>
1c01f998:	1494cdec 	lu12i.w	$r12,304751(0x4a66f)
1c01f99c:	0299a98c 	addi.w	$r12,$r12,1642(0x66a)
1c01f9a0:	15a6038d 	lu12i.w	$r13,-184292(0xd301c)
1c01f9a4:	02a361ad 	addi.w	$r13,$r13,-1832(0x8d8)
1c01f9a8:	143ad16b 	lu12i.w	$r11,120459(0x1d68b)
1c01f9ac:	02bd096b 	addi.w	$r11,$r11,-190(0xf42)
1c01f9b0:	0010358a 	add.w	$r10,$r12,$r13
1c01f9b4:	5c0acd4b 	bne	$r10,$r11,2764(0xacc) # 1c020480 <inst_error>
1c01f9b8:	15188bcc 	lu12i.w	$r12,-474018(0x8c45e)
1c01f9bc:	02b3418c 	addi.w	$r12,$r12,-816(0xcd0)
1c01f9c0:	14d2418d 	lu12i.w	$r13,430604(0x6920c)
1c01f9c4:	0296e1ad 	addi.w	$r13,$r13,1464(0x5b8)
1c01f9c8:	15eacd4b 	lu12i.w	$r11,-43414(0xf566a)
1c01f9cc:	028a216b 	addi.w	$r11,$r11,648(0x288)
1c01f9d0:	0010358a 	add.w	$r10,$r12,$r13
1c01f9d4:	5c0aad4b 	bne	$r10,$r11,2732(0xaac) # 1c020480 <inst_error>
1c01f9d8:	15966e6c 	lu12i.w	$r12,-216205(0xcb373)
1c01f9dc:	02b2818c 	addi.w	$r12,$r12,-864(0xca0)
1c01f9e0:	143c754d 	lu12i.w	$r13,123818(0x1e3aa)
1c01f9e4:	028481ad 	addi.w	$r13,$r13,288(0x120)
1c01f9e8:	15d2e3ab 	lu12i.w	$r11,-92387(0xe971d)
1c01f9ec:	02b7016b 	addi.w	$r11,$r11,-576(0xdc0)
1c01f9f0:	0010358a 	add.w	$r10,$r12,$r13
1c01f9f4:	5c0a8d4b 	bne	$r10,$r11,2700(0xa8c) # 1c020480 <inst_error>
1c01f9f8:	1518ee2c 	lu12i.w	$r12,-473231(0x8c771)
1c01f9fc:	0286218c 	addi.w	$r12,$r12,392(0x188)
1c01fa00:	144a936d 	lu12i.w	$r13,152731(0x2549b)
1c01fa04:	02b6e9ad 	addi.w	$r13,$r13,-582(0xdba)
1c01fa08:	1563818b 	lu12i.w	$r11,-320500(0xb1c0c)
1c01fa0c:	02bd096b 	addi.w	$r11,$r11,-190(0xf42)
1c01fa10:	0010358a 	add.w	$r10,$r12,$r13
1c01fa14:	5c0a6d4b 	bne	$r10,$r11,2668(0xa6c) # 1c020480 <inst_error>
1c01fa18:	141b934c 	lu12i.w	$r12,56474(0xdc9a)
1c01fa1c:	0297c18c 	addi.w	$r12,$r12,1520(0x5f0)
1c01fa20:	14d0a80d 	lu12i.w	$r13,427328(0x68540)
1c01fa24:	029d49ad 	addi.w	$r13,$r13,1874(0x752)
1c01fa28:	14ec3b6b 	lu12i.w	$r11,483803(0x761db)
1c01fa2c:	02b5096b 	addi.w	$r11,$r11,-702(0xd42)
1c01fa30:	0010358a 	add.w	$r10,$r12,$r13
1c01fa34:	5c0a4d4b 	bne	$r10,$r11,2636(0xa4c) # 1c020480 <inst_error>
1c01fa38:	158b9b4c 	lu12i.w	$r12,-238374(0xc5cda)
1c01fa3c:	0287c18c 	addi.w	$r12,$r12,496(0x1f0)
1c01fa40:	158f4a4d 	lu12i.w	$r13,-230830(0xc7a52)
1c01fa44:	02a4c1ad 	addi.w	$r13,$r13,-1744(0x930)
1c01fa48:	151ae58b 	lu12i.w	$r11,-469204(0x8d72c)
1c01fa4c:	02ac816b 	addi.w	$r11,$r11,-1248(0xb20)
1c01fa50:	0010358a 	add.w	$r10,$r12,$r13
1c01fa54:	5c0a2d4b 	bne	$r10,$r11,2604(0xa2c) # 1c020480 <inst_error>
1c01fa58:	14329f0c 	lu12i.w	$r12,103672(0x194f8)
1c01fa5c:	02a9398c 	addi.w	$r12,$r12,-1458(0xa4e)
1c01fa60:	15a384cd 	lu12i.w	$r13,-189402(0xd1c26)
1c01fa64:	02b809ad 	addi.w	$r13,$r13,-510(0xe02)
1c01fa68:	15d623cb 	lu12i.w	$r11,-85730(0xeb11e)
1c01fa6c:	02a1416b 	addi.w	$r11,$r11,-1968(0x850)
1c01fa70:	0010358a 	add.w	$r10,$r12,$r13
1c01fa74:	5c0a0d4b 	bne	$r10,$r11,2572(0xa0c) # 1c020480 <inst_error>
1c01fa78:	15fbf2ec 	lu12i.w	$r12,-8297(0xfdf97)
1c01fa7c:	0296e98c 	addi.w	$r12,$r12,1466(0x5ba)
1c01fa80:	14e7540d 	lu12i.w	$r13,473760(0x73aa0)
1c01fa84:	029a5dad 	addi.w	$r13,$r13,1687(0x697)
1c01fa88:	14e3470b 	lu12i.w	$r11,465464(0x71a38)
1c01fa8c:	02b1456b 	addi.w	$r11,$r11,-943(0xc51)
1c01fa90:	0010358a 	add.w	$r10,$r12,$r13
1c01fa94:	5c09ed4b 	bne	$r10,$r11,2540(0x9ec) # 1c020480 <inst_error>
1c01fa98:	15d9bd6c 	lu12i.w	$r12,-78357(0xecdeb)
1c01fa9c:	02ad218c 	addi.w	$r12,$r12,-1208(0xb48)
1c01faa0:	1554932d 	lu12i.w	$r13,-351079(0xaa499)
1c01faa4:	02a641ad 	addi.w	$r13,$r13,-1648(0x990)
1c01faa8:	152e506b 	lu12i.w	$r11,-429437(0x97283)
1c01faac:	0293616b 	addi.w	$r11,$r11,1240(0x4d8)
1c01fab0:	0010358a 	add.w	$r10,$r12,$r13
1c01fab4:	5c09cd4b 	bne	$r10,$r11,2508(0x9cc) # 1c020480 <inst_error>
1c01fab8:	1446788c 	lu12i.w	$r12,144324(0x233c4)
1c01fabc:	0280d18c 	addi.w	$r12,$r12,52(0x34)
1c01fac0:	15feab0d 	lu12i.w	$r13,-2728(0xff558)
1c01fac4:	02a2e1ad 	addi.w	$r13,$r13,-1864(0x8b8)
1c01fac8:	1445238b 	lu12i.w	$r11,141596(0x2291c)
1c01facc:	02a3b16b 	addi.w	$r11,$r11,-1812(0x8ec)
1c01fad0:	0010358a 	add.w	$r10,$r12,$r13
1c01fad4:	5c09ad4b 	bne	$r10,$r11,2476(0x9ac) # 1c020480 <inst_error>
1c01fad8:	14675cec 	lu12i.w	$r12,211687(0x33ae7)
1c01fadc:	02ba418c 	addi.w	$r12,$r12,-368(0xe90)
1c01fae0:	1565ba4d 	lu12i.w	$r13,-315950(0xb2dd2)
1c01fae4:	02a0c1ad 	addi.w	$r13,$r13,-2000(0x830)
1c01fae8:	15cd170b 	lu12i.w	$r11,-104264(0xe68b8)
1c01faec:	029b016b 	addi.w	$r11,$r11,1728(0x6c0)
1c01faf0:	0010358a 	add.w	$r10,$r12,$r13
1c01faf4:	5c098d4b 	bne	$r10,$r11,2444(0x98c) # 1c020480 <inst_error>
1c01faf8:	1518d54c 	lu12i.w	$r12,-473430(0x8c6aa)
1c01fafc:	0288298c 	addi.w	$r12,$r12,522(0x20a)
1c01fb00:	1507be8d 	lu12i.w	$r13,-508428(0x83df4)
1c01fb04:	02b559ad 	addi.w	$r13,$r13,-682(0xd56)
1c01fb08:	142093cb 	lu12i.w	$r11,66718(0x1049e)
1c01fb0c:	02bd816b 	addi.w	$r11,$r11,-160(0xf60)
1c01fb10:	0010358a 	add.w	$r10,$r12,$r13
1c01fb14:	5c096d4b 	bne	$r10,$r11,2412(0x96c) # 1c020480 <inst_error>
1c01fb18:	140111ec 	lu12i.w	$r12,2191(0x88f)
1c01fb1c:	02be618c 	addi.w	$r12,$r12,-104(0xf98)
1c01fb20:	155e4a4d 	lu12i.w	$r13,-331182(0xaf252)
1c01fb24:	028c11ad 	addi.w	$r13,$r13,772(0x304)
1c01fb28:	155f5c2b 	lu12i.w	$r11,-328991(0xafae1)
1c01fb2c:	028a716b 	addi.w	$r11,$r11,668(0x29c)
1c01fb30:	0010358a 	add.w	$r10,$r12,$r13
1c01fb34:	5c094d4b 	bne	$r10,$r11,2380(0x94c) # 1c020480 <inst_error>
1c01fb38:	15b2bc6c 	lu12i.w	$r12,-158237(0xd95e3)
1c01fb3c:	02b4c18c 	addi.w	$r12,$r12,-720(0xd30)
1c01fb40:	1426cecd 	lu12i.w	$r13,79478(0x13676)
1c01fb44:	029c59ad 	addi.w	$r13,$r13,1814(0x716)
1c01fb48:	15d98b2b 	lu12i.w	$r11,-78759(0xecc59)
1c01fb4c:	0291196b 	addi.w	$r11,$r11,1094(0x446)
1c01fb50:	0010358a 	add.w	$r10,$r12,$r13
1c01fb54:	5c092d4b 	bne	$r10,$r11,2348(0x92c) # 1c020480 <inst_error>
1c01fb58:	1539ff6c 	lu12i.w	$r12,-405509(0x9cffb)
1c01fb5c:	02b5218c 	addi.w	$r12,$r12,-696(0xd48)
1c01fb60:	15f5948d 	lu12i.w	$r13,-21340(0xfaca4)
1c01fb64:	02b071ad 	addi.w	$r13,$r13,-996(0xc1c)
1c01fb68:	152f93eb 	lu12i.w	$r11,-426849(0x97c9f)
1c01fb6c:	02a5916b 	addi.w	$r11,$r11,-1692(0x964)
1c01fb70:	0010358a 	add.w	$r10,$r12,$r13
1c01fb74:	5c090d4b 	bne	$r10,$r11,2316(0x90c) # 1c020480 <inst_error>
1c01fb78:	1468594c 	lu12i.w	$r12,213706(0x342ca)
1c01fb7c:	02b7e18c 	addi.w	$r12,$r12,-520(0xdf8)
1c01fb80:	14ebd8ad 	lu12i.w	$r13,483013(0x75ec5)
1c01fb84:	029a25ad 	addi.w	$r13,$r13,1673(0x689)
1c01fb88:	155431eb 	lu12i.w	$r11,-351857(0xaa18f)
1c01fb8c:	0292056b 	addi.w	$r11,$r11,1153(0x481)
1c01fb90:	0010358a 	add.w	$r10,$r12,$r13
1c01fb94:	5c08ed4b 	bne	$r10,$r11,2284(0x8ec) # 1c020480 <inst_error>
1c01fb98:	14adfa6c 	lu12i.w	$r12,356307(0x56fd3)
1c01fb9c:	02ac018c 	addi.w	$r12,$r12,-1280(0xb00)
1c01fba0:	14e225cd 	lu12i.w	$r13,463150(0x7112e)
1c01fba4:	02881dad 	addi.w	$r13,$r13,519(0x207)
1c01fba8:	1590202b 	lu12i.w	$r11,-229119(0xc8101)
1c01fbac:	02b41d6b 	addi.w	$r11,$r11,-761(0xd07)
1c01fbb0:	0010358a 	add.w	$r10,$r12,$r13
1c01fbb4:	5c08cd4b 	bne	$r10,$r11,2252(0x8cc) # 1c020480 <inst_error>
1c01fbb8:	14fb670c 	lu12i.w	$r12,514872(0x7db38)
1c01fbbc:	0282998c 	addi.w	$r12,$r12,166(0xa6)
1c01fbc0:	1585f6cd 	lu12i.w	$r13,-249930(0xc2fb6)
1c01fbc4:	02b371ad 	addi.w	$r13,$r13,-804(0xcdc)
1c01fbc8:	14815dcb 	lu12i.w	$r11,264942(0x40aee)
1c01fbcc:	02b6096b 	addi.w	$r11,$r11,-638(0xd82)
1c01fbd0:	0010358a 	add.w	$r10,$r12,$r13
1c01fbd4:	5c08ad4b 	bne	$r10,$r11,2220(0x8ac) # 1c020480 <inst_error>
1c01fbd8:	15cc7c2c 	lu12i.w	$r12,-105503(0xe63e1)
1c01fbdc:	029f018c 	addi.w	$r12,$r12,1984(0x7c0)
1c01fbe0:	144ed3cd 	lu12i.w	$r13,161438(0x2769e)
1c01fbe4:	02b639ad 	addi.w	$r13,$r13,-626(0xd8e)
1c01fbe8:	141b4feb 	lu12i.w	$r11,55935(0xda7f)
1c01fbec:	0295396b 	addi.w	$r11,$r11,1358(0x54e)
1c01fbf0:	0010358a 	add.w	$r10,$r12,$r13
1c01fbf4:	5c088d4b 	bne	$r10,$r11,2188(0x88c) # 1c020480 <inst_error>
1c01fbf8:	15d2c5ec 	lu12i.w	$r12,-92625(0xe962f)
1c01fbfc:	02a3318c 	addi.w	$r12,$r12,-1844(0x8cc)
1c01fc00:	1561fe0d 	lu12i.w	$r13,-323600(0xb0ff0)
1c01fc04:	02b379ad 	addi.w	$r13,$r13,-802(0xcde)
1c01fc08:	1534c3cb 	lu12i.w	$r11,-416226(0x9a61e)
1c01fc0c:	0296a96b 	addi.w	$r11,$r11,1450(0x5aa)
1c01fc10:	0010358a 	add.w	$r10,$r12,$r13
1c01fc14:	5c086d4b 	bne	$r10,$r11,2156(0x86c) # 1c020480 <inst_error>
1c01fc18:	14fa4b2c 	lu12i.w	$r12,512601(0x7d259)
1c01fc1c:	0284018c 	addi.w	$r12,$r12,256(0x100)
1c01fc20:	15913dcd 	lu12i.w	$r13,-226834(0xc89ee)
1c01fc24:	02a691ad 	addi.w	$r13,$r13,-1628(0x9a4)
1c01fc28:	148b88eb 	lu12i.w	$r11,285767(0x45c47)
1c01fc2c:	02aa916b 	addi.w	$r11,$r11,-1372(0xaa4)
1c01fc30:	0010358a 	add.w	$r10,$r12,$r13
1c01fc34:	5c084d4b 	bne	$r10,$r11,2124(0x84c) # 1c020480 <inst_error>
1c01fc38:	1471852c 	lu12i.w	$r12,232489(0x38c29)
1c01fc3c:	02a0018c 	addi.w	$r12,$r12,-2048(0x800)
1c01fc40:	152b7d0d 	lu12i.w	$r13,-435224(0x95be8)
1c01fc44:	02a511ad 	addi.w	$r13,$r13,-1724(0x944)
1c01fc48:	159d020b 	lu12i.w	$r11,-202736(0xce810)
1c01fc4c:	0285116b 	addi.w	$r11,$r11,324(0x144)
1c01fc50:	0010358a 	add.w	$r10,$r12,$r13
1c01fc54:	5c082d4b 	bne	$r10,$r11,2092(0x82c) # 1c020480 <inst_error>
1c01fc58:	14349d6c 	lu12i.w	$r12,107755(0x1a4eb)
1c01fc5c:	02a4998c 	addi.w	$r12,$r12,-1754(0x926)
1c01fc60:	14c33b8d 	lu12i.w	$r13,399836(0x619dc)
1c01fc64:	029f8dad 	addi.w	$r13,$r13,2019(0x7e3)
1c01fc68:	14f7d8eb 	lu12i.w	$r11,507591(0x7bec7)
1c01fc6c:	0284256b 	addi.w	$r11,$r11,265(0x109)
1c01fc70:	0010358a 	add.w	$r10,$r12,$r13
1c01fc74:	5c080d4b 	bne	$r10,$r11,2060(0x80c) # 1c020480 <inst_error>
1c01fc78:	153beeac 	lu12i.w	$r12,-401547(0x9df75)
1c01fc7c:	02b7a18c 	addi.w	$r12,$r12,-536(0xde8)
1c01fc80:	148f5f2d 	lu12i.w	$r13,293625(0x47af9)
1c01fc84:	029061ad 	addi.w	$r13,$r13,1048(0x418)
1c01fc88:	15cb4dcb 	lu12i.w	$r11,-107922(0xe5a6e)
1c01fc8c:	0288016b 	addi.w	$r11,$r11,512(0x200)
1c01fc90:	0010358a 	add.w	$r10,$r12,$r13
1c01fc94:	5c07ed4b 	bne	$r10,$r11,2028(0x7ec) # 1c020480 <inst_error>
1c01fc98:	141b9e4c 	lu12i.w	$r12,56562(0xdcf2)
1c01fc9c:	029a418c 	addi.w	$r12,$r12,1680(0x690)
1c01fca0:	15a405ed 	lu12i.w	$r13,-188369(0xd202f)
1c01fca4:	028fa9ad 	addi.w	$r13,$r13,1002(0x3ea)
1c01fca8:	15bfa44b 	lu12i.w	$r11,-131806(0xdfd22)
1c01fcac:	02a9e96b 	addi.w	$r11,$r11,-1414(0xa7a)
1c01fcb0:	0010358a 	add.w	$r10,$r12,$r13
1c01fcb4:	5c07cd4b 	bne	$r10,$r11,1996(0x7cc) # 1c020480 <inst_error>
1c01fcb8:	14fdb3ac 	lu12i.w	$r12,519581(0x7ed9d)
1c01fcbc:	02b2418c 	addi.w	$r12,$r12,-880(0xc90)
1c01fcc0:	158614ed 	lu12i.w	$r13,-249689(0xc30a7)
1c01fcc4:	02a161ad 	addi.w	$r13,$r13,-1960(0x858)
1c01fcc8:	1483c86b 	lu12i.w	$r11,269891(0x41e43)
1c01fccc:	0293a16b 	addi.w	$r11,$r11,1256(0x4e8)
1c01fcd0:	0010358a 	add.w	$r10,$r12,$r13
1c01fcd4:	5c07ad4b 	bne	$r10,$r11,1964(0x7ac) # 1c020480 <inst_error>
1c01fcd8:	1599a6ac 	lu12i.w	$r12,-209611(0xccd35)
1c01fcdc:	0285cd8c 	addi.w	$r12,$r12,371(0x173)
1c01fce0:	15f2fa2d 	lu12i.w	$r13,-26671(0xf97d1)
1c01fce4:	029711ad 	addi.w	$r13,$r13,1476(0x5c4)
1c01fce8:	158ca0cb 	lu12i.w	$r11,-236282(0xc6506)
1c01fcec:	029cdd6b 	addi.w	$r11,$r11,1847(0x737)
1c01fcf0:	0010358a 	add.w	$r10,$r12,$r13
1c01fcf4:	5c078d4b 	bne	$r10,$r11,1932(0x78c) # 1c020480 <inst_error>
1c01fcf8:	1567250c 	lu12i.w	$r12,-313048(0xb3928)
1c01fcfc:	0289618c 	addi.w	$r12,$r12,600(0x258)
1c01fd00:	15d312ed 	lu12i.w	$r13,-92009(0xe9897)
1c01fd04:	02bd01ad 	addi.w	$r13,$r13,-192(0xf40)
1c01fd08:	153a37eb 	lu12i.w	$r11,-405057(0x9d1bf)
1c01fd0c:	0286616b 	addi.w	$r11,$r11,408(0x198)
1c01fd10:	0010358a 	add.w	$r10,$r12,$r13
1c01fd14:	5c076d4b 	bne	$r10,$r11,1900(0x76c) # 1c020480 <inst_error>
1c01fd18:	146236ac 	lu12i.w	$r12,201141(0x311b5)
1c01fd1c:	02ba418c 	addi.w	$r12,$r12,-368(0xe90)
1c01fd20:	155ad3ed 	lu12i.w	$r13,-338273(0xad69f)
1c01fd24:	02b641ad 	addi.w	$r13,$r13,-624(0xd90)
1c01fd28:	15bd0a8b 	lu12i.w	$r11,-137132(0xde854)
1c01fd2c:	02b0816b 	addi.w	$r11,$r11,-992(0xc20)
1c01fd30:	0010358a 	add.w	$r10,$r12,$r13
1c01fd34:	5c074d4b 	bne	$r10,$r11,1868(0x74c) # 1c020480 <inst_error>
1c01fd38:	148c286c 	lu12i.w	$r12,287043(0x46143)
1c01fd3c:	0284d18c 	addi.w	$r12,$r12,308(0x134)
1c01fd40:	159d84cd 	lu12i.w	$r13,-201690(0xcec26)
1c01fd44:	028e79ad 	addi.w	$r13,$r13,926(0x39e)
1c01fd48:	1429ad2b 	lu12i.w	$r11,85353(0x14d69)
1c01fd4c:	0293496b 	addi.w	$r11,$r11,1234(0x4d2)
1c01fd50:	0010358a 	add.w	$r10,$r12,$r13
1c01fd54:	5c072d4b 	bne	$r10,$r11,1836(0x72c) # 1c020480 <inst_error>
1c01fd58:	1588cdac 	lu12i.w	$r12,-244115(0xc466d)
1c01fd5c:	02a3518c 	addi.w	$r12,$r12,-1836(0x8d4)
1c01fd60:	15f409ad 	lu12i.w	$r13,-24499(0xfa04d)
1c01fd64:	02b299ad 	addi.w	$r13,$r13,-858(0xca6)
1c01fd68:	157cd72b 	lu12i.w	$r11,-268615(0xbe6b9)
1c01fd6c:	0295e96b 	addi.w	$r11,$r11,1402(0x57a)
1c01fd70:	0010358a 	add.w	$r10,$r12,$r13
1c01fd74:	5c070d4b 	bne	$r10,$r11,1804(0x70c) # 1c020480 <inst_error>
1c01fd78:	14f1d0ac 	lu12i.w	$r12,495237(0x78e85)
1c01fd7c:	0293818c 	addi.w	$r12,$r12,1248(0x4e0)
1c01fd80:	15642acd 	lu12i.w	$r13,-319146(0xb2156)
1c01fd84:	0299c1ad 	addi.w	$r13,$r13,1648(0x670)
1c01fd88:	1455fb8b 	lu12i.w	$r11,176092(0x2afdc)
1c01fd8c:	02ad416b 	addi.w	$r11,$r11,-1200(0xb50)
1c01fd90:	0010358a 	add.w	$r10,$r12,$r13
1c01fd94:	5c06ed4b 	bne	$r10,$r11,1772(0x6ec) # 1c020480 <inst_error>
1c01fd98:	1590de4c 	lu12i.w	$r12,-227598(0xc86f2)
1c01fd9c:	0287818c 	addi.w	$r12,$r12,480(0x1e0)
1c01fda0:	1552750d 	lu12i.w	$r13,-355416(0xa93a8)
1c01fda4:	02b1e1ad 	addi.w	$r13,$r13,-904(0xc78)
1c01fda8:	14e3534b 	lu12i.w	$r11,465562(0x71a9a)
1c01fdac:	02b9616b 	addi.w	$r11,$r11,-424(0xe58)
1c01fdb0:	0010358a 	add.w	$r10,$r12,$r13
1c01fdb4:	5c06cd4b 	bne	$r10,$r11,1740(0x6cc) # 1c020480 <inst_error>
1c01fdb8:	15290bac 	lu12i.w	$r12,-440227(0x9485d)
1c01fdbc:	02a7c18c 	addi.w	$r12,$r12,-1552(0x9f0)
1c01fdc0:	14a7766d 	lu12i.w	$r13,342963(0x53bb3)
1c01fdc4:	02af21ad 	addi.w	$r13,$r13,-1080(0xbc8)
1c01fdc8:	15d081eb 	lu12i.w	$r11,-97265(0xe840f)
1c01fdcc:	0296e16b 	addi.w	$r11,$r11,1464(0x5b8)
1c01fdd0:	0010358a 	add.w	$r10,$r12,$r13
1c01fdd4:	5c06ad4b 	bne	$r10,$r11,1708(0x6ac) # 1c020480 <inst_error>
1c01fdd8:	141f9dcc 	lu12i.w	$r12,64750(0xfcee)
1c01fddc:	0284d18c 	addi.w	$r12,$r12,308(0x134)
1c01fde0:	1455478d 	lu12i.w	$r13,174652(0x2aa3c)
1c01fde4:	029a11ad 	addi.w	$r13,$r13,1668(0x684)
1c01fde8:	1474e54b 	lu12i.w	$r11,239402(0x3a72a)
1c01fdec:	029ee16b 	addi.w	$r11,$r11,1976(0x7b8)
1c01fdf0:	0010358a 	add.w	$r10,$r12,$r13
1c01fdf4:	5c068d4b 	bne	$r10,$r11,1676(0x68c) # 1c020480 <inst_error>
1c01fdf8:	156c20cc 	lu12i.w	$r12,-302842(0xb6106)
1c01fdfc:	02b00d8c 	addi.w	$r12,$r12,-1021(0xc03)
1c01fe00:	15f879cd 	lu12i.w	$r13,-15410(0xfc3ce)
1c01fe04:	02a169ad 	addi.w	$r13,$r13,-1958(0x85a)
1c01fe08:	15649a6b 	lu12i.w	$r11,-318253(0xb24d3)
1c01fe0c:	0291756b 	addi.w	$r11,$r11,1117(0x45d)
1c01fe10:	0010358a 	add.w	$r10,$r12,$r13
1c01fe14:	5c066d4b 	bne	$r10,$r11,1644(0x66c) # 1c020480 <inst_error>
1c01fe18:	14efe4cc 	lu12i.w	$r12,491302(0x77f26)
1c01fe1c:	02a4618c 	addi.w	$r12,$r12,-1768(0x918)
1c01fe20:	149d21cd 	lu12i.w	$r13,321806(0x4e90e)
1c01fe24:	02af81ad 	addi.w	$r13,$r13,-1056(0xbe0)
1c01fe28:	158d066b 	lu12i.w	$r11,-235469(0xc6833)
1c01fe2c:	0293e16b 	addi.w	$r11,$r11,1272(0x4f8)
1c01fe30:	0010358a 	add.w	$r10,$r12,$r13
1c01fe34:	5c064d4b 	bne	$r10,$r11,1612(0x64c) # 1c020480 <inst_error>
1c01fe38:	15d14a8c 	lu12i.w	$r12,-95660(0xe8a54)
1c01fe3c:	028c018c 	addi.w	$r12,$r12,768(0x300)
1c01fe40:	143dfe8d 	lu12i.w	$r13,126964(0x1eff4)
1c01fe44:	02a371ad 	addi.w	$r13,$r13,-1828(0x8dc)
1c01fe48:	140f490b 	lu12i.w	$r11,31304(0x7a48)
1c01fe4c:	02af716b 	addi.w	$r11,$r11,-1060(0xbdc)
1c01fe50:	0010358a 	add.w	$r10,$r12,$r13
1c01fe54:	5c062d4b 	bne	$r10,$r11,1580(0x62c) # 1c020480 <inst_error>
1c01fe58:	14f1e8ac 	lu12i.w	$r12,495429(0x78f45)
1c01fe5c:	028a758c 	addi.w	$r12,$r12,669(0x29d)
1c01fe60:	14321a0d 	lu12i.w	$r13,102608(0x190d0)
1c01fe64:	02b011ad 	addi.w	$r13,$r13,-1020(0xc04)
1c01fe68:	152402ab 	lu12i.w	$r11,-450539(0x92015)
1c01fe6c:	02ba856b 	addi.w	$r11,$r11,-351(0xea1)
1c01fe70:	0010358a 	add.w	$r10,$r12,$r13
1c01fe74:	5c060d4b 	bne	$r10,$r11,1548(0x60c) # 1c020480 <inst_error>
1c01fe78:	156ee36c 	lu12i.w	$r12,-297189(0xb771b)
1c01fe7c:	02bf818c 	addi.w	$r12,$r12,-32(0xfe0)
1c01fe80:	152e5fad 	lu12i.w	$r13,-429315(0x972fd)
1c01fe84:	02af11ad 	addi.w	$r13,$r13,-1084(0xbc4)
1c01fe88:	149d430b 	lu12i.w	$r11,322072(0x4ea18)
1c01fe8c:	02ae916b 	addi.w	$r11,$r11,-1116(0xba4)
1c01fe90:	0010358a 	add.w	$r10,$r12,$r13
1c01fe94:	5c05ed4b 	bne	$r10,$r11,1516(0x5ec) # 1c020480 <inst_error>
1c01fe98:	1532e8ac 	lu12i.w	$r12,-420027(0x99745)
1c01fe9c:	0288018c 	addi.w	$r12,$r12,512(0x200)
1c01fea0:	155bd1cd 	lu12i.w	$r13,-336242(0xade8e)
1c01fea4:	0280a5ad 	addi.w	$r13,$r13,41(0x29)
1c01fea8:	148eba6b 	lu12i.w	$r11,292307(0x475d3)
1c01feac:	0288a56b 	addi.w	$r11,$r11,553(0x229)
1c01feb0:	0010358a 	add.w	$r10,$r12,$r13
1c01feb4:	5c05cd4b 	bne	$r10,$r11,1484(0x5cc) # 1c020480 <inst_error>
1c01feb8:	1484df0c 	lu12i.w	$r12,272120(0x426f8)
1c01febc:	02b1c18c 	addi.w	$r12,$r12,-912(0xc70)
1c01fec0:	1566a0ad 	lu12i.w	$r13,-314107(0xb3505)
1c01fec4:	028f59ad 	addi.w	$r13,$r13,982(0x3d6)
1c01fec8:	15eb7fab 	lu12i.w	$r11,-41987(0xf5bfd)
1c01fecc:	0281196b 	addi.w	$r11,$r11,70(0x46)
1c01fed0:	0010358a 	add.w	$r10,$r12,$r13
1c01fed4:	5c05ad4b 	bne	$r10,$r11,1452(0x5ac) # 1c020480 <inst_error>
1c01fed8:	152ef98c 	lu12i.w	$r12,-428084(0x977cc)
1c01fedc:	02bcf98c 	addi.w	$r12,$r12,-194(0xf3e)
1c01fee0:	154e7a6d 	lu12i.w	$r13,-363565(0xa73d3)
1c01fee4:	02bdddad 	addi.w	$r13,$r13,-137(0xf77)
1c01fee8:	147d73eb 	lu12i.w	$r11,256927(0x3eb9f)
1c01feec:	02bad56b 	addi.w	$r11,$r11,-331(0xeb5)
1c01fef0:	0010358a 	add.w	$r10,$r12,$r13
1c01fef4:	5c058d4b 	bne	$r10,$r11,1420(0x58c) # 1c020480 <inst_error>
1c01fef8:	14ab048c 	lu12i.w	$r12,350244(0x55824)
1c01fefc:	02a2718c 	addi.w	$r12,$r12,-1892(0x89c)
1c01ff00:	15823a6d 	lu12i.w	$r13,-257581(0xc11d3)
1c01ff04:	02bc41ad 	addi.w	$r13,$r13,-240(0xf10)
1c01ff08:	142d3ecb 	lu12i.w	$r11,92662(0x169f6)
1c01ff0c:	029eb16b 	addi.w	$r11,$r11,1964(0x7ac)
1c01ff10:	0010358a 	add.w	$r10,$r12,$r13
1c01ff14:	5c056d4b 	bne	$r10,$r11,1388(0x56c) # 1c020480 <inst_error>
1c01ff18:	15d4b28c 	lu12i.w	$r12,-88684(0xea594)
1c01ff1c:	02b2718c 	addi.w	$r12,$r12,-868(0xc9c)
1c01ff20:	14d7856d 	lu12i.w	$r13,441387(0x6bc2b)
1c01ff24:	02a6adad 	addi.w	$r13,$r13,-1621(0x9ab)
1c01ff28:	14ac37cb 	lu12i.w	$r11,352702(0x561be)
1c01ff2c:	02991d6b 	addi.w	$r11,$r11,1607(0x647)
1c01ff30:	0010358a 	add.w	$r10,$r12,$r13
1c01ff34:	5c054d4b 	bne	$r10,$r11,1356(0x54c) # 1c020480 <inst_error>
1c01ff38:	14a2b2cc 	lu12i.w	$r12,333206(0x51596)
1c01ff3c:	02be018c 	addi.w	$r12,$r12,-128(0xf80)
1c01ff40:	15fab54d 	lu12i.w	$r13,-10838(0xfd5aa)
1c01ff44:	0291b5ad 	addi.w	$r13,$r13,1133(0x46d)
1c01ff48:	149d680b 	lu12i.w	$r11,322368(0x4eb40)
1c01ff4c:	028fb56b 	addi.w	$r11,$r11,1005(0x3ed)
1c01ff50:	0010358a 	add.w	$r10,$r12,$r13
1c01ff54:	5c052d4b 	bne	$r10,$r11,1324(0x52c) # 1c020480 <inst_error>
1c01ff58:	141f698c 	lu12i.w	$r12,64332(0xfb4c)
1c01ff5c:	028b698c 	addi.w	$r12,$r12,730(0x2da)
1c01ff60:	1506284d 	lu12i.w	$r13,-511678(0x83142)
1c01ff64:	02a969ad 	addi.w	$r13,$r13,-1446(0xa5a)
1c01ff68:	152591cb 	lu12i.w	$r11,-447346(0x92c8e)
1c01ff6c:	02b4d16b 	addi.w	$r11,$r11,-716(0xd34)
1c01ff70:	0010358a 	add.w	$r10,$r12,$r13
1c01ff74:	5c050d4b 	bne	$r10,$r11,1292(0x50c) # 1c020480 <inst_error>
1c01ff78:	15e07c6c 	lu12i.w	$r12,-64541(0xf03e3)
1c01ff7c:	0280d18c 	addi.w	$r12,$r12,52(0x34)
1c01ff80:	1417152d 	lu12i.w	$r13,47273(0xb8a9)
1c01ff84:	029c01ad 	addi.w	$r13,$r13,1792(0x700)
1c01ff88:	15f7918b 	lu12i.w	$r11,-17268(0xfbc8c)
1c01ff8c:	029cd16b 	addi.w	$r11,$r11,1844(0x734)
1c01ff90:	0010358a 	add.w	$r10,$r12,$r13
1c01ff94:	5c04ed4b 	bne	$r10,$r11,1260(0x4ec) # 1c020480 <inst_error>
1c01ff98:	155aa80c 	lu12i.w	$r12,-338624(0xad540)
1c01ff9c:	02b1398c 	addi.w	$r12,$r12,-946(0xc4e)
1c01ffa0:	152d986d 	lu12i.w	$r13,-430909(0x96cc3)
1c01ffa4:	028da1ad 	addi.w	$r13,$r13,872(0x368)
1c01ffa8:	1488406b 	lu12i.w	$r11,279043(0x44203)
1c01ffac:	02bed96b 	addi.w	$r11,$r11,-74(0xfb6)
1c01ffb0:	0010358a 	add.w	$r10,$r12,$r13
1c01ffb4:	5c04cd4b 	bne	$r10,$r11,1228(0x4cc) # 1c020480 <inst_error>
1c01ffb8:	14f31f0c 	lu12i.w	$r12,497912(0x798f8)
1c01ffbc:	02b8ed8c 	addi.w	$r12,$r12,-453(0xe3b)
1c01ffc0:	14d6760d 	lu12i.w	$r13,439216(0x6b3b0)
1c01ffc4:	028601ad 	addi.w	$r13,$r13,384(0x180)
1c01ffc8:	15c9950b 	lu12i.w	$r11,-111448(0xe4ca8)
1c01ffcc:	02beed6b 	addi.w	$r11,$r11,-69(0xfbb)
1c01ffd0:	0010358a 	add.w	$r10,$r12,$r13
1c01ffd4:	5c04ad4b 	bne	$r10,$r11,1196(0x4ac) # 1c020480 <inst_error>
1c01ffd8:	14d366ac 	lu12i.w	$r12,432949(0x69b35)
1c01ffdc:	02a7e18c 	addi.w	$r12,$r12,-1544(0x9f8)
1c01ffe0:	1579ef4d 	lu12i.w	$r13,-274566(0xbcf7a)
1c01ffe4:	02b661ad 	addi.w	$r13,$r13,-616(0xd98)
1c01ffe8:	144d55cb 	lu12i.w	$r11,158382(0x26aae)
1c01ffec:	029e416b 	addi.w	$r11,$r11,1936(0x790)
1c01fff0:	0010358a 	add.w	$r10,$r12,$r13
1c01fff4:	5c048d4b 	bne	$r10,$r11,1164(0x48c) # 1c020480 <inst_error>
1c01fff8:	1583ec6c 	lu12i.w	$r12,-254109(0xc1f63)
1c01fffc:	029cc18c 	addi.w	$r12,$r12,1840(0x730)
1c020000:	145ac86d 	lu12i.w	$r13,185923(0x2d643)
1c020004:	028e41ad 	addi.w	$r13,$r13,912(0x390)
1c020008:	15deb4eb 	lu12i.w	$r11,-68185(0xef5a7)
1c02000c:	02ab016b 	addi.w	$r11,$r11,-1344(0xac0)
1c020010:	0010358a 	add.w	$r10,$r12,$r13
1c020014:	5c046d4b 	bne	$r10,$r11,1132(0x46c) # 1c020480 <inst_error>
1c020018:	15f4ce6c 	lu12i.w	$r12,-22925(0xfa673)
1c02001c:	02a0c18c 	addi.w	$r12,$r12,-2000(0x830)
1c020020:	1535f3cd 	lu12i.w	$r13,-413794(0x9af9e)
1c020024:	02a681ad 	addi.w	$r13,$r13,-1632(0x9a0)
1c020028:	152ac20b 	lu12i.w	$r11,-436720(0x95610)
1c02002c:	0287416b 	addi.w	$r11,$r11,464(0x1d0)
1c020030:	0010358a 	add.w	$r10,$r12,$r13
1c020034:	5c044d4b 	bne	$r10,$r11,1100(0x44c) # 1c020480 <inst_error>
1c020038:	1525ffec 	lu12i.w	$r12,-446465(0x92fff)
1c02003c:	02ac218c 	addi.w	$r12,$r12,-1272(0xb08)
1c020040:	14bc2b8d 	lu12i.w	$r13,385372(0x5e15c)
1c020044:	029431ad 	addi.w	$r13,$r13,1292(0x50c)
1c020048:	15e22b6b 	lu12i.w	$r11,-61093(0xf115b)
1c02004c:	0280516b 	addi.w	$r11,$r11,20(0x14)
1c020050:	0010358a 	add.w	$r10,$r12,$r13
1c020054:	5c042d4b 	bne	$r10,$r11,1068(0x42c) # 1c020480 <inst_error>
1c020058:	1449966c 	lu12i.w	$r12,150707(0x24cb3)
1c02005c:	0288b18c 	addi.w	$r12,$r12,556(0x22c)
1c020060:	1534e66d 	lu12i.w	$r13,-415949(0x9a733)
1c020064:	02a559ad 	addi.w	$r13,$r13,-1706(0x956)
1c020068:	157e7ccb 	lu12i.w	$r11,-265242(0xbf3e6)
1c02006c:	02ae096b 	addi.w	$r11,$r11,-1150(0xb82)
1c020070:	0010358a 	add.w	$r10,$r12,$r13
1c020074:	5c040d4b 	bne	$r10,$r11,1036(0x40c) # 1c020480 <inst_error>
1c020078:	1516ffac 	lu12i.w	$r12,-477187(0x8b7fd)
1c02007c:	02b2818c 	addi.w	$r12,$r12,-864(0xca0)
1c020080:	15bcfa6d 	lu12i.w	$r13,-137261(0xde7d3)
1c020084:	02b4c1ad 	addi.w	$r13,$r13,-720(0xd30)
1c020088:	14d3fa0b 	lu12i.w	$r11,434128(0x69fd0)
1c02008c:	02a7416b 	addi.w	$r11,$r11,-1584(0x9d0)
1c020090:	0010358a 	add.w	$r10,$r12,$r13
1c020094:	5c03ed4b 	bne	$r10,$r11,1004(0x3ec) # 1c020480 <inst_error>
1c020098:	1435066c 	lu12i.w	$r12,108595(0x1a833)
1c02009c:	02bdc18c 	addi.w	$r12,$r12,-144(0xf70)
1c0200a0:	150a00cd 	lu12i.w	$r13,-503802(0x85006)
1c0200a4:	02b291ad 	addi.w	$r13,$r13,-860(0xca4)
1c0200a8:	153f072b 	lu12i.w	$r11,-395207(0x9f839)
1c0200ac:	02b0516b 	addi.w	$r11,$r11,-1004(0xc14)
1c0200b0:	0010358a 	add.w	$r10,$r12,$r13
1c0200b4:	5c03cd4b 	bne	$r10,$r11,972(0x3cc) # 1c020480 <inst_error>
1c0200b8:	14c4e52c 	lu12i.w	$r12,403241(0x62729)
1c0200bc:	029c018c 	addi.w	$r12,$r12,1792(0x700)
1c0200c0:	1471748d 	lu12i.w	$r13,232356(0x38ba4)
1c0200c4:	0283d1ad 	addi.w	$r13,$r13,244(0xf4)
1c0200c8:	153659ab 	lu12i.w	$r11,-412979(0x9b2cd)
1c0200cc:	029fd16b 	addi.w	$r11,$r11,2036(0x7f4)
1c0200d0:	0010358a 	add.w	$r10,$r12,$r13
1c0200d4:	5c03ad4b 	bne	$r10,$r11,940(0x3ac) # 1c020480 <inst_error>
1c0200d8:	152a53ac 	lu12i.w	$r12,-437603(0x9529d)
1c0200dc:	0290118c 	addi.w	$r12,$r12,1028(0x404)
1c0200e0:	158a758d 	lu12i.w	$r13,-240724(0xc53ac)
1c0200e4:	02ac81ad 	addi.w	$r13,$r13,-1248(0xb20)
1c0200e8:	14b4c92b 	lu12i.w	$r11,370249(0x5a649)
1c0200ec:	02bc916b 	addi.w	$r11,$r11,-220(0xf24)
1c0200f0:	0010358a 	add.w	$r10,$r12,$r13
1c0200f4:	5c038d4b 	bne	$r10,$r11,908(0x38c) # 1c020480 <inst_error>
1c0200f8:	158644ac 	lu12i.w	$r12,-249307(0xc3225)
1c0200fc:	02b9cd8c 	addi.w	$r12,$r12,-397(0xe73)
1c020100:	145563cd 	lu12i.w	$r13,174878(0x2ab1e)
1c020104:	029f41ad 	addi.w	$r13,$r13,2000(0x7d0)
1c020108:	15dba86b 	lu12i.w	$r11,-74429(0xedd43)
1c02010c:	02990d6b 	addi.w	$r11,$r11,1603(0x643)
1c020110:	0010358a 	add.w	$r10,$r12,$r13
1c020114:	5c036d4b 	bne	$r10,$r11,876(0x36c) # 1c020480 <inst_error>
1c020118:	144b8a6c 	lu12i.w	$r12,154707(0x25c53)
1c02011c:	0292c18c 	addi.w	$r12,$r12,1200(0x4b0)
1c020120:	14e149ad 	lu12i.w	$r13,461389(0x70a4d)
1c020124:	029a01ad 	addi.w	$r13,$r13,1664(0x680)
1c020128:	152cd42b 	lu12i.w	$r11,-432479(0x966a1)
1c02012c:	02acc16b 	addi.w	$r11,$r11,-1232(0xb30)
1c020130:	0010358a 	add.w	$r10,$r12,$r13
1c020134:	5c034d4b 	bne	$r10,$r11,844(0x34c) # 1c020480 <inst_error>
1c020138:	150b82cc 	lu12i.w	$r12,-500714(0x85c16)
1c02013c:	02a9018c 	addi.w	$r12,$r12,-1472(0xa40)
1c020140:	14e6c3ed 	lu12i.w	$r13,472607(0x7361f)
1c020144:	02888dad 	addi.w	$r13,$r13,547(0x223)
1c020148:	15f246ab 	lu12i.w	$r11,-28107(0xf9235)
1c02014c:	02b18d6b 	addi.w	$r11,$r11,-925(0xc63)
1c020150:	0010358a 	add.w	$r10,$r12,$r13
1c020154:	5c032d4b 	bne	$r10,$r11,812(0x32c) # 1c020480 <inst_error>
1c020158:	141cadec 	lu12i.w	$r12,58735(0xe56f)
1c02015c:	029d818c 	addi.w	$r12,$r12,1888(0x760)
1c020160:	147cb3cd 	lu12i.w	$r13,255390(0x3e59e)
1c020164:	02a101ad 	addi.w	$r13,$r13,-1984(0x840)
1c020168:	149961ab 	lu12i.w	$r11,314125(0x4cb0d)
1c02016c:	02be816b 	addi.w	$r11,$r11,-96(0xfa0)
1c020170:	0010358a 	add.w	$r10,$r12,$r13
1c020174:	5c030d4b 	bne	$r10,$r11,780(0x30c) # 1c020480 <inst_error>
1c020178:	147043ac 	lu12i.w	$r12,229917(0x3821d)
1c02017c:	02a7118c 	addi.w	$r12,$r12,-1596(0x9c4)
1c020180:	1562feed 	lu12i.w	$r13,-321545(0xb17f7)
1c020184:	028001ad 	addi.w	$r13,$r13,0
1c020188:	15d3428b 	lu12i.w	$r11,-91628(0xe9a14)
1c02018c:	02a7116b 	addi.w	$r11,$r11,-1596(0x9c4)
1c020190:	0010358a 	add.w	$r10,$r12,$r13
1c020194:	5c02ed4b 	bne	$r10,$r11,748(0x2ec) # 1c020480 <inst_error>
1c020198:	15a9062c 	lu12i.w	$r12,-178127(0xd4831)
1c02019c:	0287c18c 	addi.w	$r12,$r12,496(0x1f0)
1c0201a0:	154c18ad 	lu12i.w	$r13,-368443(0xa60c5)
1c0201a4:	0283e1ad 	addi.w	$r13,$r13,248(0xf8)
1c0201a8:	14f51ecb 	lu12i.w	$r11,502006(0x7a8f6)
1c0201ac:	028ba16b 	addi.w	$r11,$r11,744(0x2e8)
1c0201b0:	0010358a 	add.w	$r10,$r12,$r13
1c0201b4:	5c02cd4b 	bne	$r10,$r11,716(0x2cc) # 1c020480 <inst_error>
1c0201b8:	150f0eec 	lu12i.w	$r12,-493449(0x87877)
1c0201bc:	0296318c 	addi.w	$r12,$r12,1420(0x58c)
1c0201c0:	14ecb34d 	lu12i.w	$r13,484762(0x7659a)
1c0201c4:	02a331ad 	addi.w	$r13,$r13,-1844(0x8cc)
1c0201c8:	15fbc22b 	lu12i.w	$r11,-8687(0xfde11)
1c0201cc:	02b9616b 	addi.w	$r11,$r11,-424(0xe58)
1c0201d0:	0010358a 	add.w	$r10,$r12,$r13
1c0201d4:	5c02ad4b 	bne	$r10,$r11,684(0x2ac) # 1c020480 <inst_error>
1c0201d8:	15efb98c 	lu12i.w	$r12,-33332(0xf7dcc)
1c0201dc:	0286218c 	addi.w	$r12,$r12,392(0x188)
1c0201e0:	1550020d 	lu12i.w	$r13,-360432(0xa8010)
1c0201e4:	02a3a9ad 	addi.w	$r13,$r13,-1814(0x8ea)
1c0201e8:	153fbb8b 	lu12i.w	$r11,-393764(0x9fddc)
1c0201ec:	02a9c96b 	addi.w	$r11,$r11,-1422(0xa72)
1c0201f0:	0010358a 	add.w	$r10,$r12,$r13
1c0201f4:	5c028d4b 	bne	$r10,$r11,652(0x28c) # 1c020480 <inst_error>
1c0201f8:	15ea532c 	lu12i.w	$r12,-44391(0xf5299)
1c0201fc:	02a0718c 	addi.w	$r12,$r12,-2020(0x81c)
1c020200:	15e247ad 	lu12i.w	$r13,-60867(0xf123d)
1c020204:	029135ad 	addi.w	$r13,$r13,1101(0x44d)
1c020208:	15cc9acb 	lu12i.w	$r11,-105258(0xe64d6)
1c02020c:	02b1a56b 	addi.w	$r11,$r11,-919(0xc69)
1c020210:	0010358a 	add.w	$r10,$r12,$r13
1c020214:	5c026d4b 	bne	$r10,$r11,620(0x26c) # 1c020480 <inst_error>
1c020218:	15f104cc 	lu12i.w	$r12,-30682(0xf8826)
1c02021c:	028a558c 	addi.w	$r12,$r12,661(0x295)
1c020220:	154960cd 	lu12i.w	$r13,-374010(0xa4b06)
1c020224:	02b145ad 	addi.w	$r13,$r13,-943(0xc51)
1c020228:	153a658b 	lu12i.w	$r11,-404692(0x9d32c)
1c02022c:	02bb996b 	addi.w	$r11,$r11,-282(0xee6)
1c020230:	0010358a 	add.w	$r10,$r12,$r13
1c020234:	5c024d4b 	bne	$r10,$r11,588(0x24c) # 1c020480 <inst_error>
1c020238:	15d4d14c 	lu12i.w	$r12,-88438(0xea68a)
1c02023c:	02b2a98c 	addi.w	$r12,$r12,-854(0xcaa)
1c020240:	1534158d 	lu12i.w	$r13,-417620(0x9a0ac)
1c020244:	029549ad 	addi.w	$r13,$r13,1362(0x552)
1c020248:	1508e6cb 	lu12i.w	$r11,-506058(0x84736)
1c02024c:	0287f16b 	addi.w	$r11,$r11,508(0x1fc)
1c020250:	0010358a 	add.w	$r10,$r12,$r13
1c020254:	5c022d4b 	bne	$r10,$r11,556(0x22c) # 1c020480 <inst_error>
1c020258:	141204ac 	lu12i.w	$r12,36901(0x9025)
1c02025c:	0282018c 	addi.w	$r12,$r12,128(0x80)
1c020260:	14bef2cd 	lu12i.w	$r13,391062(0x5f796)
1c020264:	02a715ad 	addi.w	$r13,$r13,-1595(0x9c5)
1c020268:	14d0f76b 	lu12i.w	$r11,427963(0x687bb)
1c02026c:	02a9156b 	addi.w	$r11,$r11,-1467(0xa45)
1c020270:	0010358a 	add.w	$r10,$r12,$r13
1c020274:	5c020d4b 	bne	$r10,$r11,524(0x20c) # 1c020480 <inst_error>
1c020278:	15b1850c 	lu12i.w	$r12,-160728(0xd8c28)
1c02027c:	0295558c 	addi.w	$r12,$r12,1365(0x555)
1c020280:	150ec3ad 	lu12i.w	$r13,-494051(0x8761d)
1c020284:	02bb81ad 	addi.w	$r13,$r13,-288(0xee0)
1c020288:	14c048ab 	lu12i.w	$r11,393797(0x60245)
1c02028c:	0290d56b 	addi.w	$r11,$r11,1077(0x435)
1c020290:	0010358a 	add.w	$r10,$r12,$r13
1c020294:	5c01ed4b 	bne	$r10,$r11,492(0x1ec) # 1c020480 <inst_error>
1c020298:	14fa390c 	lu12i.w	$r12,512456(0x7d1c8)
1c02029c:	0292c58c 	addi.w	$r12,$r12,1201(0x4b1)
1c0202a0:	15d68e0d 	lu12i.w	$r13,-84880(0xeb470)
1c0202a4:	02be71ad 	addi.w	$r13,$r13,-100(0xf9c)
1c0202a8:	14d0c70b 	lu12i.w	$r11,427576(0x68638)
1c0202ac:	0291356b 	addi.w	$r11,$r11,1101(0x44d)
1c0202b0:	0010358a 	add.w	$r10,$r12,$r13
1c0202b4:	5c01cd4b 	bne	$r10,$r11,460(0x1cc) # 1c020480 <inst_error>
1c0202b8:	15cf066c 	lu12i.w	$r12,-100301(0xe7833)
1c0202bc:	02ba618c 	addi.w	$r12,$r12,-360(0xe98)
1c0202c0:	158de3cd 	lu12i.w	$r13,-233698(0xc6f1e)
1c0202c4:	02aec1ad 	addi.w	$r13,$r13,-1104(0xbb0)
1c0202c8:	155cea2b 	lu12i.w	$r11,-333999(0xae751)
1c0202cc:	02a9216b 	addi.w	$r11,$r11,-1464(0xa48)
1c0202d0:	0010358a 	add.w	$r10,$r12,$r13
1c0202d4:	5c01ad4b 	bne	$r10,$r11,428(0x1ac) # 1c020480 <inst_error>
1c0202d8:	14e03fac 	lu12i.w	$r12,459261(0x701fd)
1c0202dc:	0296b98c 	addi.w	$r12,$r12,1454(0x5ae)
1c0202e0:	1415390d 	lu12i.w	$r13,43464(0xa9c8)
1c0202e4:	02a251ad 	addi.w	$r13,$r13,-1900(0x894)
1c0202e8:	14f578ab 	lu12i.w	$r11,502725(0x7abc5)
1c0202ec:	02b9096b 	addi.w	$r11,$r11,-446(0xe42)
1c0202f0:	0010358a 	add.w	$r10,$r12,$r13
1c0202f4:	5c018d4b 	bne	$r10,$r11,396(0x18c) # 1c020480 <inst_error>
1c0202f8:	15772eec 	lu12i.w	$r12,-280201(0xbb977)
1c0202fc:	02bb418c 	addi.w	$r12,$r12,-304(0xed0)
1c020300:	150d880d 	lu12i.w	$r13,-496576(0x86c40)
1c020304:	02ab89ad 	addi.w	$r13,$r13,-1310(0xae2)
1c020308:	1484b6eb 	lu12i.w	$r11,271799(0x425b7)
1c02030c:	02a6c96b 	addi.w	$r11,$r11,-1614(0x9b2)
1c020310:	0010358a 	add.w	$r10,$r12,$r13
1c020314:	5c016d4b 	bne	$r10,$r11,364(0x16c) # 1c020480 <inst_error>
1c020318:	15b6f96c 	lu12i.w	$r12,-149557(0xdb7cb)
1c02031c:	028c318c 	addi.w	$r12,$r12,780(0x30c)
1c020320:	142424cd 	lu12i.w	$r13,74022(0x12126)
1c020324:	02aaa9ad 	addi.w	$r13,$r13,-1366(0xaaa)
1c020328:	15db1e2b 	lu12i.w	$r11,-75535(0xed8f1)
1c02032c:	02b6d96b 	addi.w	$r11,$r11,-586(0xdb6)
1c020330:	0010358a 	add.w	$r10,$r12,$r13
1c020334:	5c014d4b 	bne	$r10,$r11,332(0x14c) # 1c020480 <inst_error>
1c020338:	141e1e0c 	lu12i.w	$r12,61680(0xf0f0)
1c02033c:	02a47d8c 	addi.w	$r12,$r12,-1761(0x91f)
1c020340:	15e54f0d 	lu12i.w	$r13,-54664(0xf2a78)
1c020344:	02b4edad 	addi.w	$r13,$r13,-709(0xd3b)
1c020348:	14036ceb 	lu12i.w	$r11,7015(0x1b67)
1c02034c:	0299696b 	addi.w	$r11,$r11,1626(0x65a)
1c020350:	0010358a 	add.w	$r10,$r12,$r13
1c020354:	5c012d4b 	bne	$r10,$r11,300(0x12c) # 1c020480 <inst_error>
1c020358:	1580246c 	lu12i.w	$r12,-261853(0xc0123)
1c02035c:	029c218c 	addi.w	$r12,$r12,1800(0x708)
1c020360:	154bcf4d 	lu12i.w	$r13,-369030(0xa5e7a)
1c020364:	0295e1ad 	addi.w	$r13,$r13,1400(0x578)
1c020368:	14cbf3cb 	lu12i.w	$r11,417694(0x65f9e)
1c02036c:	02b2016b 	addi.w	$r11,$r11,-896(0xc80)
1c020370:	0010358a 	add.w	$r10,$r12,$r13
1c020374:	5c010d4b 	bne	$r10,$r11,268(0x10c) # 1c020480 <inst_error>
1c020378:	143972ac 	lu12i.w	$r12,117653(0x1cb95)
1c02037c:	02ab058c 	addi.w	$r12,$r12,-1343(0xac1)
1c020380:	159f3a0d 	lu12i.w	$r13,-198192(0xcf9d0)
1c020384:	0285a1ad 	addi.w	$r13,$r13,360(0x168)
1c020388:	15d8acab 	lu12i.w	$r11,-80539(0xec565)
1c02038c:	02b0a56b 	addi.w	$r11,$r11,-983(0xc29)
1c020390:	0010358a 	add.w	$r10,$r12,$r13
1c020394:	5c00ed4b 	bne	$r10,$r11,236(0xec) # 1c020480 <inst_error>
1c020398:	14d374ec 	lu12i.w	$r12,433063(0x69ba7)
1c02039c:	02aba98c 	addi.w	$r12,$r12,-1302(0xaea)
1c0203a0:	141fad6d 	lu12i.w	$r13,64875(0xfd6b)
1c0203a4:	02a171ad 	addi.w	$r13,$r13,-1956(0x85c)
1c0203a8:	14f3222b 	lu12i.w	$r11,497937(0x79911)
1c0203ac:	028d196b 	addi.w	$r11,$r11,838(0x346)
1c0203b0:	0010358a 	add.w	$r10,$r12,$r13
1c0203b4:	5c00cd4b 	bne	$r10,$r11,204(0xcc) # 1c020480 <inst_error>
1c0203b8:	14c277ac 	lu12i.w	$r12,398269(0x613bd)
1c0203bc:	02b5718c 	addi.w	$r12,$r12,-676(0xd5c)
1c0203c0:	1489068d 	lu12i.w	$r13,280628(0x44834)
1c0203c4:	029c19ad 	addi.w	$r13,$r13,1798(0x706)
1c0203c8:	154b7e2b 	lu12i.w	$r11,-369679(0xa5bf1)
1c0203cc:	0291896b 	addi.w	$r11,$r11,1122(0x462)
1c0203d0:	0010358a 	add.w	$r10,$r12,$r13
1c0203d4:	5c00ad4b 	bne	$r10,$r11,172(0xac) # 1c020480 <inst_error>
1c0203d8:	154efb8c 	lu12i.w	$r12,-362532(0xa77dc)
1c0203dc:	028d358c 	addi.w	$r12,$r12,845(0x34d)
1c0203e0:	142c36cd 	lu12i.w	$r13,90550(0x161b6)
1c0203e4:	02b5e1ad 	addi.w	$r13,$r13,-648(0xd78)
1c0203e8:	157b324b 	lu12i.w	$r11,-271982(0xbd992)
1c0203ec:	0283156b 	addi.w	$r11,$r11,197(0xc5)
1c0203f0:	0010358a 	add.w	$r10,$r12,$r13
1c0203f4:	5c008d4b 	bne	$r10,$r11,140(0x8c) # 1c020480 <inst_error>
1c0203f8:	1599f70c 	lu12i.w	$r12,-208968(0xccfb8)
1c0203fc:	0283798c 	addi.w	$r12,$r12,222(0xde)
1c020400:	14bcca8d 	lu12i.w	$r13,386644(0x5e654)
1c020404:	02bf61ad 	addi.w	$r13,$r13,-40(0xfd8)
1c020408:	1456c18b 	lu12i.w	$r11,177676(0x2b60c)
1c02040c:	0282d96b 	addi.w	$r11,$r11,182(0xb6)
1c020410:	0010358a 	add.w	$r10,$r12,$r13
1c020414:	5c006d4b 	bne	$r10,$r11,108(0x6c) # 1c020480 <inst_error>
1c020418:	14909d8c 	lu12i.w	$r12,296172(0x484ec)
1c02041c:	0297018c 	addi.w	$r12,$r12,1472(0x5c0)
1c020420:	15706ccd 	lu12i.w	$r13,-294042(0xb8366)
1c020424:	02a835ad 	addi.w	$r13,$r13,-1523(0xa0d)
1c020428:	14010a4b 	lu12i.w	$r11,2130(0x852)
1c02042c:	02bf356b 	addi.w	$r11,$r11,-51(0xfcd)
1c020430:	0010358a 	add.w	$r10,$r12,$r13
1c020434:	5c004d4b 	bne	$r10,$r11,76(0x4c) # 1c020480 <inst_error>
1c020438:	1589b0ac 	lu12i.w	$r12,-242299(0xc4d85)
1c02043c:	028f818c 	addi.w	$r12,$r12,992(0x3e0)
1c020440:	14201a4d 	lu12i.w	$r13,65746(0x100d2)
1c020444:	02bf01ad 	addi.w	$r13,$r13,-64(0xfc0)
1c020448:	15a9caeb 	lu12i.w	$r11,-176553(0xd4e57)
1c02044c:	028e816b 	addi.w	$r11,$r11,928(0x3a0)
1c020450:	0010358a 	add.w	$r10,$r12,$r13
1c020454:	5c002d4b 	bne	$r10,$r11,44(0x2c) # 1c020480 <inst_error>
1c020458:	141d6ccc 	lu12i.w	$r12,60262(0xeb66)
1c02045c:	0287358c 	addi.w	$r12,$r12,461(0x1cd)
1c020460:	1439078d 	lu12i.w	$r13,116796(0x1c83c)
1c020464:	02a539ad 	addi.w	$r13,$r13,-1714(0x94e)
1c020468:	1456744b 	lu12i.w	$r11,177058(0x2b3a2)
1c02046c:	02ac6d6b 	addi.w	$r11,$r11,-1253(0xb1b)
1c020470:	0010358a 	add.w	$r10,$r12,$r13
1c020474:	5c000d4b 	bne	$r10,$r11,12(0xc) # 1c020480 <inst_error>
1c020478:	5c000b20 	bne	$r25,$r0,8(0x8) # 1c020480 <inst_error>
1c02047c:	0280075a 	addi.w	$r26,$r26,1(0x1)

1c020480 <inst_error>:
1c020480:	0040e2ed 	slli.w	$r13,$r23,0x18
1c020484:	001569ac 	or	$r12,$r13,$r26
1c020488:	2980030c 	st.w	$r12,$r24,0
1c02048c:	4c000020 	jirl	$r0,$r1,0

1c020490 <n8_or_test>:
n8_or_test():
1c020490:	028006f7 	addi.w	$r23,$r23,1(0x1)
1c020494:	00150019 	move	$r25,$r0
1c020498:	14a1c82c 	lu12i.w	$r12,331329(0x50e41)
1c02049c:	0292118c 	addi.w	$r12,$r12,1156(0x484)
1c0204a0:	155a6bed 	lu12i.w	$r13,-339105(0xad35f)
1c0204a4:	02aa51ad 	addi.w	$r13,$r13,-1388(0xa94)
1c0204a8:	15fbec0b 	lu12i.w	$r11,-8352(0xfdf60)
1c0204ac:	02ba516b 	addi.w	$r11,$r11,-364(0xe94)
1c0204b0:	0015358a 	or	$r10,$r12,$r13
1c0204b4:	5c058d4b 	bne	$r10,$r11,1420(0x58c) # 1c020a40 <inst_error>
1c0204b8:	15777f6c 	lu12i.w	$r12,-279557(0xbbbfb)
1c0204bc:	02bf918c 	addi.w	$r12,$r12,-28(0xfe4)
1c0204c0:	1591d28d 	lu12i.w	$r13,-225644(0xc8e94)
1c0204c4:	029001ad 	addi.w	$r13,$r13,1024(0x400)
1c0204c8:	15f7ffeb 	lu12i.w	$r11,-16385(0xfbfff)
1c0204cc:	02bf916b 	addi.w	$r11,$r11,-28(0xfe4)
1c0204d0:	0015358a 	or	$r10,$r12,$r13
1c0204d4:	5c056d4b 	bne	$r10,$r11,1388(0x56c) # 1c020a40 <inst_error>
1c0204d8:	15e527ec 	lu12i.w	$r12,-54977(0xf293f)
1c0204dc:	0284d18c 	addi.w	$r12,$r12,308(0x134)
1c0204e0:	154f990d 	lu12i.w	$r13,-361272(0xa7cc8)
1c0204e4:	02a629ad 	addi.w	$r13,$r13,-1654(0x98a)
1c0204e8:	15efc00b 	lu12i.w	$r11,-33280(0xf7e00)
1c0204ec:	02a6f96b 	addi.w	$r11,$r11,-1602(0x9be)
1c0204f0:	0015358a 	or	$r10,$r12,$r13
1c0204f4:	5c054d4b 	bne	$r10,$r11,1356(0x54c) # 1c020a40 <inst_error>
1c0204f8:	15f69dec 	lu12i.w	$r12,-19217(0xfb4ef)
1c0204fc:	02b9798c 	addi.w	$r12,$r12,-418(0xe5e)
1c020500:	14cd2d2d 	lu12i.w	$r13,420201(0x66969)
1c020504:	02aa41ad 	addi.w	$r13,$r13,-1392(0xa90)
1c020508:	15ffbdeb 	lu12i.w	$r11,-529(0xffdef)
1c02050c:	02bb796b 	addi.w	$r11,$r11,-290(0xede)
1c020510:	0015358a 	or	$r10,$r12,$r13
1c020514:	5c052d4b 	bne	$r10,$r11,1324(0x52c) # 1c020a40 <inst_error>
1c020518:	1579312c 	lu12i.w	$r12,-276087(0xbc989)
1c02051c:	02abdd8c 	addi.w	$r12,$r12,-1289(0xaf7)
1c020520:	1530dc4d 	lu12i.w	$r13,-424222(0x986e2)
1c020524:	0284d9ad 	addi.w	$r13,$r13,310(0x136)
1c020528:	1579fd6b 	lu12i.w	$r11,-274453(0xbcfeb)
1c02052c:	02afdd6b 	addi.w	$r11,$r11,-1033(0xbf7)
1c020530:	0015358a 	or	$r10,$r12,$r13
1c020534:	5c050d4b 	bne	$r10,$r11,1292(0x50c) # 1c020a40 <inst_error>
1c020538:	143d8f0c 	lu12i.w	$r12,126072(0x1ec78)
1c02053c:	02ae518c 	addi.w	$r12,$r12,-1132(0xb94)
1c020540:	1437e56d 	lu12i.w	$r13,114475(0x1bf2b)
1c020544:	029731ad 	addi.w	$r13,$r13,1484(0x5cc)
1c020548:	143ff00b 	lu12i.w	$r11,130944(0x1ff80)
1c02054c:	02bf716b 	addi.w	$r11,$r11,-36(0xfdc)
1c020550:	0015358a 	or	$r10,$r12,$r13
1c020554:	5c04ed4b 	bne	$r10,$r11,1260(0x4ec) # 1c020a40 <inst_error>
1c020558:	147e9e8c 	lu12i.w	$r12,259316(0x3f4f4)
1c02055c:	0283298c 	addi.w	$r12,$r12,202(0xca)
1c020560:	15137f0d 	lu12i.w	$r13,-484360(0x89bf8)
1c020564:	029ac9ad 	addi.w	$r13,$r13,1714(0x6b2)
1c020568:	157fff8b 	lu12i.w	$r11,-262148(0xbfffc)
1c02056c:	029be96b 	addi.w	$r11,$r11,1786(0x6fa)
1c020570:	0015358a 	or	$r10,$r12,$r13
1c020574:	5c04cd4b 	bne	$r10,$r11,1228(0x4cc) # 1c020a40 <inst_error>
1c020578:	159f2f6c 	lu12i.w	$r12,-198277(0xcf97b)
1c02057c:	02bfa18c 	addi.w	$r12,$r12,-24(0xfe8)
1c020580:	147908cd 	lu12i.w	$r13,247878(0x3c846)
1c020584:	02aa25ad 	addi.w	$r13,$r13,-1399(0xa89)
1c020588:	15ff300b 	lu12i.w	$r11,-1664(0xff980)
1c02058c:	02bfa56b 	addi.w	$r11,$r11,-23(0xfe9)
1c020590:	0015358a 	or	$r10,$r12,$r13
1c020594:	5c04ad4b 	bne	$r10,$r11,1196(0x4ac) # 1c020a40 <inst_error>
1c020598:	14e924ec 	lu12i.w	$r12,477479(0x74927)
1c02059c:	02bbb18c 	addi.w	$r12,$r12,-276(0xeec)
1c0205a0:	14aadb8d 	lu12i.w	$r13,349916(0x556dc)
1c0205a4:	028771ad 	addi.w	$r13,$r13,476(0x1dc)
1c0205a8:	14ebffeb 	lu12i.w	$r11,483327(0x75fff)
1c0205ac:	02bff16b 	addi.w	$r11,$r11,-4(0xffc)
1c0205b0:	0015358a 	or	$r10,$r12,$r13
1c0205b4:	5c048d4b 	bne	$r10,$r11,1164(0x48c) # 1c020a40 <inst_error>
1c0205b8:	157738ac 	lu12i.w	$r12,-280123(0xbb9c5)
1c0205bc:	0289618c 	addi.w	$r12,$r12,600(0x258)
1c0205c0:	1581216d 	lu12i.w	$r13,-259829(0xc090b)
1c0205c4:	02a841ad 	addi.w	$r13,$r13,-1520(0xa10)
1c0205c8:	15f73a0b 	lu12i.w	$r11,-17968(0xfb9d0)
1c0205cc:	02a9616b 	addi.w	$r11,$r11,-1448(0xa58)
1c0205d0:	0015358a 	or	$r10,$r12,$r13
1c0205d4:	5c046d4b 	bne	$r10,$r11,1132(0x46c) # 1c020a40 <inst_error>
1c0205d8:	1595ae8c 	lu12i.w	$r12,-217740(0xcad74)
1c0205dc:	0299018c 	addi.w	$r12,$r12,1600(0x640)
1c0205e0:	15b651cd 	lu12i.w	$r13,-150898(0xdb28e)
1c0205e4:	028605ad 	addi.w	$r13,$r13,385(0x181)
1c0205e8:	15b7ffcb 	lu12i.w	$r11,-147458(0xdbffe)
1c0205ec:	029f056b 	addi.w	$r11,$r11,1985(0x7c1)
1c0205f0:	0015358a 	or	$r10,$r12,$r13
1c0205f4:	5c044d4b 	bne	$r10,$r11,1100(0x44c) # 1c020a40 <inst_error>
1c0205f8:	1467642c 	lu12i.w	$r12,211745(0x33b21)
1c0205fc:	0292e18c 	addi.w	$r12,$r12,1208(0x4b8)
1c020600:	1594f28d 	lu12i.w	$r13,-219244(0xca794)
1c020604:	02b1a9ad 	addi.w	$r13,$r13,-918(0xc6a)
1c020608:	15f7f68b 	lu12i.w	$r11,-16460(0xfbfb4)
1c02060c:	02b3e96b 	addi.w	$r11,$r11,-774(0xcfa)
1c020610:	0015358a 	or	$r10,$r12,$r13
1c020614:	5c042d4b 	bne	$r10,$r11,1068(0x42c) # 1c020a40 <inst_error>
1c020618:	14c5c72c 	lu12i.w	$r12,405049(0x62e39)
1c02061c:	0285318c 	addi.w	$r12,$r12,332(0x14c)
1c020620:	14cec56d 	lu12i.w	$r13,423467(0x6762b)
1c020624:	02ad15ad 	addi.w	$r13,$r13,-1211(0xb45)
1c020628:	14cfc78b 	lu12i.w	$r11,425532(0x67e3c)
1c02062c:	02ad356b 	addi.w	$r11,$r11,-1203(0xb4d)
1c020630:	0015358a 	or	$r10,$r12,$r13
1c020634:	5c040d4b 	bne	$r10,$r11,1036(0x40c) # 1c020a40 <inst_error>
1c020638:	14d3ff4c 	lu12i.w	$r12,434170(0x69ffa)
1c02063c:	02ba818c 	addi.w	$r12,$r12,-352(0xea0)
1c020640:	1492208d 	lu12i.w	$r13,299268(0x49104)
1c020644:	0294b1ad 	addi.w	$r13,$r13,1324(0x52c)
1c020648:	14d3ffcb 	lu12i.w	$r11,434174(0x69ffe)
1c02064c:	02beb16b 	addi.w	$r11,$r11,-84(0xfac)
1c020650:	0015358a 	or	$r10,$r12,$r13
1c020654:	5c03ed4b 	bne	$r10,$r11,1004(0x3ec) # 1c020a40 <inst_error>
1c020658:	1438978c 	lu12i.w	$r12,115900(0x1c4bc)
1c02065c:	0293a18c 	addi.w	$r12,$r12,1256(0x4e8)
1c020660:	14b5d56d 	lu12i.w	$r13,372395(0x5aeab)
1c020664:	029851ad 	addi.w	$r13,$r13,1556(0x614)
1c020668:	14bdd7eb 	lu12i.w	$r11,388799(0x5eebf)
1c02066c:	029bf16b 	addi.w	$r11,$r11,1788(0x6fc)
1c020670:	0015358a 	or	$r10,$r12,$r13
1c020674:	5c03cd4b 	bne	$r10,$r11,972(0x3cc) # 1c020a40 <inst_error>
1c020678:	141950cc 	lu12i.w	$r12,51846(0xca86)
1c02067c:	0285118c 	addi.w	$r12,$r12,324(0x144)
1c020680:	147ffb6d 	lu12i.w	$r13,262107(0x3ffdb)
1c020684:	029531ad 	addi.w	$r13,$r13,1356(0x54c)
1c020688:	147ffbeb 	lu12i.w	$r11,262111(0x3ffdf)
1c02068c:	0295316b 	addi.w	$r11,$r11,1356(0x54c)
1c020690:	0015358a 	or	$r10,$r12,$r13
1c020694:	5c03ad4b 	bne	$r10,$r11,940(0x3ac) # 1c020a40 <inst_error>
1c020698:	15638eec 	lu12i.w	$r12,-320393(0xb1c77)
1c02069c:	028c698c 	addi.w	$r12,$r12,794(0x31a)
1c0206a0:	15f492cd 	lu12i.w	$r13,-23402(0xfa496)
1c0206a4:	028871ad 	addi.w	$r13,$r13,540(0x21c)
1c0206a8:	15f79eeb 	lu12i.w	$r11,-17161(0xfbcf7)
1c0206ac:	028c796b 	addi.w	$r11,$r11,798(0x31e)
1c0206b0:	0015358a 	or	$r10,$r12,$r13
1c0206b4:	5c038d4b 	bne	$r10,$r11,908(0x38c) # 1c020a40 <inst_error>
1c0206b8:	1567b10c 	lu12i.w	$r12,-311928(0xb3d88)
1c0206bc:	0299258c 	addi.w	$r12,$r12,1609(0x649)
1c0206c0:	152c146d 	lu12i.w	$r13,-434013(0x960a3)
1c0206c4:	02a0b9ad 	addi.w	$r13,$r13,-2002(0x82e)
1c0206c8:	156fb56b 	lu12i.w	$r11,-295509(0xb7dab)
1c0206cc:	02b9bd6b 	addi.w	$r11,$r11,-401(0xe6f)
1c0206d0:	0015358a 	or	$r10,$r12,$r13
1c0206d4:	5c036d4b 	bne	$r10,$r11,876(0x36c) # 1c020a40 <inst_error>
1c0206d8:	14af5b8c 	lu12i.w	$r12,359132(0x57adc)
1c0206dc:	02be518c 	addi.w	$r12,$r12,-108(0xf94)
1c0206e0:	153435ad 	lu12i.w	$r13,-417363(0x9a1ad)
1c0206e4:	02bd01ad 	addi.w	$r13,$r13,-192(0xf40)
1c0206e8:	15bf800b 	lu12i.w	$r11,-132096(0xdfc00)
1c0206ec:	02bf516b 	addi.w	$r11,$r11,-44(0xfd4)
1c0206f0:	0015358a 	or	$r10,$r12,$r13
1c0206f4:	5c034d4b 	bne	$r10,$r11,844(0x34c) # 1c020a40 <inst_error>
1c0206f8:	15ebfbec 	lu12i.w	$r12,-40993(0xf5fdf)
1c0206fc:	0288e18c 	addi.w	$r12,$r12,568(0x238)
1c020700:	14fcee0d 	lu12i.w	$r13,518000(0x7e770)
1c020704:	0297d9ad 	addi.w	$r13,$r13,1526(0x5f6)
1c020708:	15ffffeb 	lu12i.w	$r11,-1(0xfffff)
1c02070c:	029ff96b 	addi.w	$r11,$r11,2046(0x7fe)
1c020710:	0015358a 	or	$r10,$r12,$r13
1c020714:	5c032d4b 	bne	$r10,$r11,812(0x32c) # 1c020a40 <inst_error>
1c020718:	15af1f8c 	lu12i.w	$r12,-165636(0xd78fc)
1c02071c:	02b8018c 	addi.w	$r12,$r12,-512(0xe00)
1c020720:	14f8ab8d 	lu12i.w	$r13,509276(0x7c55c)
1c020724:	028a01ad 	addi.w	$r13,$r13,640(0x280)
1c020728:	15ffc00b 	lu12i.w	$r11,-512(0xffe00)
1c02072c:	02ba016b 	addi.w	$r11,$r11,-384(0xe80)
1c020730:	0015358a 	or	$r10,$r12,$r13
1c020734:	5c030d4b 	bne	$r10,$r11,780(0x30c) # 1c020a40 <inst_error>
1c020738:	15d868ac 	lu12i.w	$r12,-81083(0xec345)
1c02073c:	02b0798c 	addi.w	$r12,$r12,-994(0xc1e)
1c020740:	155b026d 	lu12i.w	$r13,-337901(0xad813)
1c020744:	029d79ad 	addi.w	$r13,$r13,1886(0x75e)
1c020748:	15db6b0b 	lu12i.w	$r11,-74920(0xedb58)
1c02074c:	02bd796b 	addi.w	$r11,$r11,-162(0xf5e)
1c020750:	0015358a 	or	$r10,$r12,$r13
1c020754:	5c02ed4b 	bne	$r10,$r11,748(0x2ec) # 1c020a40 <inst_error>
1c020758:	143befec 	lu12i.w	$r12,122751(0x1df7f)
1c02075c:	02a9f18c 	addi.w	$r12,$r12,-1412(0xa7c)
1c020760:	157e80ed 	lu12i.w	$r13,-265209(0xbf407)
1c020764:	029729ad 	addi.w	$r13,$r13,1482(0x5ca)
1c020768:	157ff00b 	lu12i.w	$r11,-262272(0xbff80)
1c02076c:	02bff96b 	addi.w	$r11,$r11,-2(0xffe)
1c020770:	0015358a 	or	$r10,$r12,$r13
1c020774:	5c02cd4b 	bne	$r10,$r11,716(0x2cc) # 1c020a40 <inst_error>
1c020778:	15636bac 	lu12i.w	$r12,-320675(0xb1b5d)
1c02077c:	02b5918c 	addi.w	$r12,$r12,-668(0xd64)
1c020780:	15fdd2cd 	lu12i.w	$r13,-4458(0xfee96)
1c020784:	02a481ad 	addi.w	$r13,$r13,-1760(0x920)
1c020788:	15fffbcb 	lu12i.w	$r11,-34(0xfffde)
1c02078c:	02b5916b 	addi.w	$r11,$r11,-668(0xd64)
1c020790:	0015358a 	or	$r10,$r12,$r13
1c020794:	5c02ad4b 	bne	$r10,$r11,684(0x2ac) # 1c020a40 <inst_error>
1c020798:	14621f0c 	lu12i.w	$r12,200952(0x310f8)
1c02079c:	028e818c 	addi.w	$r12,$r12,928(0x3a0)
1c0207a0:	15b2d4ad 	lu12i.w	$r13,-158043(0xd96a5)
1c0207a4:	028421ad 	addi.w	$r13,$r13,264(0x108)
1c0207a8:	15f2dfab 	lu12i.w	$r11,-26883(0xf96fd)
1c0207ac:	028ea16b 	addi.w	$r11,$r11,936(0x3a8)
1c0207b0:	0015358a 	or	$r10,$r12,$r13
1c0207b4:	5c028d4b 	bne	$r10,$r11,652(0x28c) # 1c020a40 <inst_error>
1c0207b8:	14965f8c 	lu12i.w	$r12,307964(0x4b2fc)
1c0207bc:	02bbdd8c 	addi.w	$r12,$r12,-265(0xef7)
1c0207c0:	14b8852d 	lu12i.w	$r13,377897(0x5c429)
1c0207c4:	0298c9ad 	addi.w	$r13,$r13,1586(0x632)
1c0207c8:	14bedf8b 	lu12i.w	$r11,390908(0x5f6fc)
1c0207cc:	02bbdd6b 	addi.w	$r11,$r11,-265(0xef7)
1c0207d0:	0015358a 	or	$r10,$r12,$r13
1c0207d4:	5c026d4b 	bne	$r10,$r11,620(0x26c) # 1c020a40 <inst_error>
1c0207d8:	15d5ee8c 	lu12i.w	$r12,-86156(0xeaf74)
1c0207dc:	0297298c 	addi.w	$r12,$r12,1482(0x5ca)
1c0207e0:	14cac0ad 	lu12i.w	$r13,415237(0x65605)
1c0207e4:	02a771ad 	addi.w	$r13,$r13,-1572(0x9dc)
1c0207e8:	15dfeeab 	lu12i.w	$r11,-65675(0xeff75)
1c0207ec:	02b7796b 	addi.w	$r11,$r11,-546(0xdde)
1c0207f0:	0015358a 	or	$r10,$r12,$r13
1c0207f4:	5c024d4b 	bne	$r10,$r11,588(0x24c) # 1c020a40 <inst_error>
1c0207f8:	157835ec 	lu12i.w	$r12,-278097(0xbc1af)
1c0207fc:	0282218c 	addi.w	$r12,$r12,136(0x88)
1c020800:	15119d2d 	lu12i.w	$r13,-488215(0x88ce9)
1c020804:	028a29ad 	addi.w	$r13,$r13,650(0x28a)
1c020808:	1579bdeb 	lu12i.w	$r11,-274961(0xbcdef)
1c02080c:	028a296b 	addi.w	$r11,$r11,650(0x28a)
1c020810:	0015358a 	or	$r10,$r12,$r13
1c020814:	5c022d4b 	bne	$r10,$r11,556(0x22c) # 1c020a40 <inst_error>
1c020818:	14ac106c 	lu12i.w	$r12,352387(0x56083)
1c02081c:	02b3818c 	addi.w	$r12,$r12,-800(0xce0)
1c020820:	141e478d 	lu12i.w	$r13,62012(0xf23c)
1c020824:	029541ad 	addi.w	$r13,$r13,1360(0x550)
1c020828:	14be57eb 	lu12i.w	$r11,389823(0x5f2bf)
1c02082c:	02b7c16b 	addi.w	$r11,$r11,-528(0xdf0)
1c020830:	0015358a 	or	$r10,$r12,$r13
1c020834:	5c020d4b 	bne	$r10,$r11,524(0x20c) # 1c020a40 <inst_error>
1c020838:	15b746ec 	lu12i.w	$r12,-148937(0xdba37)
1c02083c:	02b0258c 	addi.w	$r12,$r12,-1015(0xc09)
1c020840:	148bd34d 	lu12i.w	$r13,286362(0x45e9a)
1c020844:	029261ad 	addi.w	$r13,$r13,1176(0x498)
1c020848:	15bfd7eb 	lu12i.w	$r11,-131393(0xdfebf)
1c02084c:	02b2656b 	addi.w	$r11,$r11,-871(0xc99)
1c020850:	0015358a 	or	$r10,$r12,$r13
1c020854:	5c01ed4b 	bne	$r10,$r11,492(0x1ec) # 1c020a40 <inst_error>
1c020858:	147d3b2c 	lu12i.w	$r12,256473(0x3e9d9)
1c02085c:	028c818c 	addi.w	$r12,$r12,800(0x320)
1c020860:	14cd298d 	lu12i.w	$r13,420172(0x6694c)
1c020864:	02aee5ad 	addi.w	$r13,$r13,-1095(0xbb9)
1c020868:	14fd3b8b 	lu12i.w	$r11,518620(0x7e9dc)
1c02086c:	02aee56b 	addi.w	$r11,$r11,-1095(0xbb9)
1c020870:	0015358a 	or	$r10,$r12,$r13
1c020874:	5c01cd4b 	bne	$r10,$r11,460(0x1cc) # 1c020a40 <inst_error>
1c020878:	1561016c 	lu12i.w	$r12,-325621(0xb080b)
1c02087c:	02af9d8c 	addi.w	$r12,$r12,-1049(0xbe7)
1c020880:	148ce08d 	lu12i.w	$r13,288516(0x46704)
1c020884:	028f39ad 	addi.w	$r13,$r13,974(0x3ce)
1c020888:	15ede1eb 	lu12i.w	$r11,-37105(0xf6f0f)
1c02088c:	02afbd6b 	addi.w	$r11,$r11,-1041(0xbef)
1c020890:	0015358a 	or	$r10,$r12,$r13
1c020894:	5c01ad4b 	bne	$r10,$r11,428(0x1ac) # 1c020a40 <inst_error>
1c020898:	14e8338c 	lu12i.w	$r12,475548(0x7419c)
1c02089c:	02bac18c 	addi.w	$r12,$r12,-336(0xeb0)
1c0208a0:	1469596d 	lu12i.w	$r13,215755(0x34acb)
1c0208a4:	028301ad 	addi.w	$r13,$r13,192(0xc0)
1c0208a8:	14e97b8b 	lu12i.w	$r11,478172(0x74bdc)
1c0208ac:	02bbc16b 	addi.w	$r11,$r11,-272(0xef0)
1c0208b0:	0015358a 	or	$r10,$r12,$r13
1c0208b4:	5c018d4b 	bne	$r10,$r11,396(0x18c) # 1c020a40 <inst_error>
1c0208b8:	1462ec6c 	lu12i.w	$r12,202595(0x31763)
1c0208bc:	0297e18c 	addi.w	$r12,$r12,1528(0x5f8)
1c0208c0:	142326cd 	lu12i.w	$r13,71990(0x11936)
1c0208c4:	02ad31ad 	addi.w	$r13,$r13,-1204(0xb4c)
1c0208c8:	1463ef0b 	lu12i.w	$r11,204664(0x31f78)
1c0208cc:	02bff16b 	addi.w	$r11,$r11,-4(0xffc)
1c0208d0:	0015358a 	or	$r10,$r12,$r13
1c0208d4:	5c016d4b 	bne	$r10,$r11,364(0x16c) # 1c020a40 <inst_error>
1c0208d8:	15e0a4cc 	lu12i.w	$r12,-64218(0xf0526)
1c0208dc:	02b2818c 	addi.w	$r12,$r12,-864(0xca0)
1c0208e0:	14a5d0cd 	lu12i.w	$r13,339590(0x52e86)
1c0208e4:	02b0b9ad 	addi.w	$r13,$r13,-978(0xc2e)
1c0208e8:	15e5f4cb 	lu12i.w	$r11,-53338(0xf2fa6)
1c0208ec:	02b2b96b 	addi.w	$r11,$r11,-850(0xcae)
1c0208f0:	0015358a 	or	$r10,$r12,$r13
1c0208f4:	5c014d4b 	bne	$r10,$r11,332(0x14c) # 1c020a40 <inst_error>
1c0208f8:	1554866c 	lu12i.w	$r12,-351181(0xaa433)
1c0208fc:	0298018c 	addi.w	$r12,$r12,1536(0x600)
1c020900:	14e8ff4d 	lu12i.w	$r13,477178(0x747fa)
1c020904:	02aa05ad 	addi.w	$r13,$r13,-1407(0xa81)
1c020908:	15fcff8b 	lu12i.w	$r11,-6148(0xfe7fc)
1c02090c:	02ba056b 	addi.w	$r11,$r11,-383(0xe81)
1c020910:	0015358a 	or	$r10,$r12,$r13
1c020914:	5c012d4b 	bne	$r10,$r11,300(0x12c) # 1c020a40 <inst_error>
1c020918:	155c0d0c 	lu12i.w	$r12,-335768(0xae068)
1c02091c:	02a9418c 	addi.w	$r12,$r12,-1456(0xa50)
1c020920:	159c0b2d 	lu12i.w	$r13,-204711(0xce059)
1c020924:	02b9b9ad 	addi.w	$r13,$r13,-402(0xe6e)
1c020928:	15dc100b 	lu12i.w	$r11,-73600(0xee080)
1c02092c:	02b9f96b 	addi.w	$r11,$r11,-386(0xe7e)
1c020930:	0015358a 	or	$r10,$r12,$r13
1c020934:	5c010d4b 	bne	$r10,$r11,268(0x10c) # 1c020a40 <inst_error>
1c020938:	14eb4e0c 	lu12i.w	$r12,481904(0x75a70)
1c02093c:	0298618c 	addi.w	$r12,$r12,1560(0x618)
1c020940:	141e316d 	lu12i.w	$r13,61835(0xf18b)
1c020944:	028031ad 	addi.w	$r13,$r13,12(0xc)
1c020948:	14ff7f6b 	lu12i.w	$r11,523259(0x7fbfb)
1c02094c:	0298716b 	addi.w	$r11,$r11,1564(0x61c)
1c020950:	0015358a 	or	$r10,$r12,$r13
1c020954:	5c00ed4b 	bne	$r10,$r11,236(0xec) # 1c020a40 <inst_error>
1c020958:	149f1b4c 	lu12i.w	$r12,325850(0x4f8da)
1c02095c:	0296018c 	addi.w	$r12,$r12,1408(0x580)
1c020960:	14b52ced 	lu12i.w	$r13,371047(0x5a967)
1c020964:	02be39ad 	addi.w	$r13,$r13,-114(0xf8e)
1c020968:	14bf3feb 	lu12i.w	$r11,391679(0x5f9ff)
1c02096c:	02be396b 	addi.w	$r11,$r11,-114(0xf8e)
1c020970:	0015358a 	or	$r10,$r12,$r13
1c020974:	5c00cd4b 	bne	$r10,$r11,204(0xcc) # 1c020a40 <inst_error>
1c020978:	15f1adcc 	lu12i.w	$r12,-29330(0xf8d6e)
1c02097c:	0297318c 	addi.w	$r12,$r12,1484(0x5cc)
1c020980:	1510394d 	lu12i.w	$r13,-491062(0x881ca)
1c020984:	02a5c1ad 	addi.w	$r13,$r13,-1680(0x970)
1c020988:	15f1be0b 	lu12i.w	$r11,-29200(0xf8df0)
1c02098c:	02b7f16b 	addi.w	$r11,$r11,-516(0xdfc)
1c020990:	0015358a 	or	$r10,$r12,$r13
1c020994:	5c00ad4b 	bne	$r10,$r11,172(0xac) # 1c020a40 <inst_error>
1c020998:	158f132c 	lu12i.w	$r12,-231271(0xc7899)
1c02099c:	02bf718c 	addi.w	$r12,$r12,-36(0xfdc)
1c0209a0:	159294ad 	lu12i.w	$r13,-224091(0xc94a5)
1c0209a4:	02acc1ad 	addi.w	$r13,$r13,-1232(0xb30)
1c0209a8:	159f97ab 	lu12i.w	$r11,-197443(0xcfcbd)
1c0209ac:	02bff16b 	addi.w	$r11,$r11,-4(0xffc)
1c0209b0:	0015358a 	or	$r10,$r12,$r13
1c0209b4:	5c008d4b 	bne	$r10,$r11,140(0x8c) # 1c020a40 <inst_error>
1c0209b8:	151b784c 	lu12i.w	$r12,-468030(0x8dbc2)
1c0209bc:	0299218c 	addi.w	$r12,$r12,1608(0x648)
1c0209c0:	154379ad 	lu12i.w	$r13,-386099(0xa1bcd)
1c0209c4:	02a401ad 	addi.w	$r13,$r13,-1792(0x900)
1c0209c8:	155b79eb 	lu12i.w	$r11,-336945(0xadbcf)
1c0209cc:	02bd216b 	addi.w	$r11,$r11,-184(0xf48)
1c0209d0:	0015358a 	or	$r10,$r12,$r13
1c0209d4:	5c006d4b 	bne	$r10,$r11,108(0x6c) # 1c020a40 <inst_error>
1c0209d8:	151cb20c 	lu12i.w	$r12,-465520(0x8e590)
1c0209dc:	02a8418c 	addi.w	$r12,$r12,-1520(0xa10)
1c0209e0:	15f3aead 	lu12i.w	$r13,-25227(0xf9d75)
1c0209e4:	02a941ad 	addi.w	$r13,$r13,-1456(0xa50)
1c0209e8:	15ffc00b 	lu12i.w	$r11,-512(0xffe00)
1c0209ec:	02a9416b 	addi.w	$r11,$r11,-1456(0xa50)
1c0209f0:	0015358a 	or	$r10,$r12,$r13
1c0209f4:	5c004d4b 	bne	$r10,$r11,76(0x4c) # 1c020a40 <inst_error>
1c0209f8:	14530f4c 	lu12i.w	$r12,170106(0x2987a)
1c0209fc:	0288598c 	addi.w	$r12,$r12,534(0x216)
1c020a00:	1552f52d 	lu12i.w	$r13,-354391(0xa97a9)
1c020a04:	029401ad 	addi.w	$r13,$r13,1280(0x500)
1c020a08:	1553ff6b 	lu12i.w	$r11,-352261(0xa9ffb)
1c020a0c:	029c596b 	addi.w	$r11,$r11,1814(0x716)
1c020a10:	0015358a 	or	$r10,$r12,$r13
1c020a14:	5c002d4b 	bne	$r10,$r11,44(0x2c) # 1c020a40 <inst_error>
1c020a18:	15ef9c8c 	lu12i.w	$r12,-33564(0xf7ce4)
1c020a1c:	02b9d18c 	addi.w	$r12,$r12,-396(0xe74)
1c020a20:	151c3aad 	lu12i.w	$r13,-466475(0x8e1d5)
1c020a24:	02ae01ad 	addi.w	$r13,$r13,-1152(0xb80)
1c020a28:	15ffbf0b 	lu12i.w	$r11,-520(0xffdf8)
1c020a2c:	02bfd16b 	addi.w	$r11,$r11,-12(0xff4)
1c020a30:	0015358a 	or	$r10,$r12,$r13
1c020a34:	5c000d4b 	bne	$r10,$r11,12(0xc) # 1c020a40 <inst_error>
1c020a38:	5c000b20 	bne	$r25,$r0,8(0x8) # 1c020a40 <inst_error>
1c020a3c:	0280075a 	addi.w	$r26,$r26,1(0x1)

1c020a40 <inst_error>:
1c020a40:	0040e2ed 	slli.w	$r13,$r23,0x18
1c020a44:	001569ac 	or	$r12,$r13,$r26
1c020a48:	2980030c 	st.w	$r12,$r24,0
1c020a4c:	4c000020 	jirl	$r0,$r1,0

1c020a50 <n11_slli_w_test>:
n11_slli_w_test():
1c020a50:	028006f7 	addi.w	$r23,$r23,1(0x1)
1c020a54:	00150019 	move	$r25,$r0
1c020a58:	148f32ac 	lu12i.w	$r12,293269(0x47995)
1c020a5c:	02b9798c 	addi.w	$r12,$r12,-418(0xe5e)
1c020a60:	151e654b 	lu12i.w	$r11,-462038(0x8f32a)
1c020a64:	02b2f16b 	addi.w	$r11,$r11,-836(0xcbc)
1c020a68:	0040858a 	slli.w	$r10,$r12,0x1
1c020a6c:	5c06254b 	bne	$r10,$r11,1572(0x624) # 1c021090 <inst_error>
1c020a70:	1490558c 	lu12i.w	$r12,295596(0x482ac)
1c020a74:	0295e18c 	addi.w	$r12,$r12,1400(0x578)
1c020a78:	14ab15eb 	lu12i.w	$r11,350383(0x558af)
1c020a7c:	0280016b 	addi.w	$r11,$r11,0
1c020a80:	0040a58a 	slli.w	$r10,$r12,0x9
1c020a84:	5c060d4b 	bne	$r10,$r11,1548(0x60c) # 1c021090 <inst_error>
1c020a88:	14e8322c 	lu12i.w	$r12,475537(0x74191)
1c020a8c:	02a4698c 	addi.w	$r12,$r12,-1766(0x91a)
1c020a90:	159091ab 	lu12i.w	$r11,-228211(0xc848d)
1c020a94:	0280016b 	addi.w	$r11,$r11,0
1c020a98:	0040ad8a 	slli.w	$r10,$r12,0xb
1c020a9c:	5c05f54b 	bne	$r10,$r11,1524(0x5f4) # 1c021090 <inst_error>
1c020aa0:	1574cb6c 	lu12i.w	$r12,-285093(0xba65b)
1c020aa4:	02b5c98c 	addi.w	$r12,$r12,-654(0xd72)
1c020aa8:	15a65aeb 	lu12i.w	$r11,-183593(0xd32d7)
1c020aac:	02ae416b 	addi.w	$r11,$r11,-1136(0xb90)
1c020ab0:	00408d8a 	slli.w	$r10,$r12,0x3
1c020ab4:	5c05dd4b 	bne	$r10,$r11,1500(0x5dc) # 1c021090 <inst_error>
1c020ab8:	14a14bec 	lu12i.w	$r12,330335(0x50a5f)
1c020abc:	029e018c 	addi.w	$r12,$r12,1920(0x780)
1c020ac0:	1500000b 	lu12i.w	$r11,-524288(0x80000)
1c020ac4:	0280016b 	addi.w	$r11,$r11,0
1c020ac8:	0040e18a 	slli.w	$r10,$r12,0x18
1c020acc:	5c05c54b 	bne	$r10,$r11,1476(0x5c4) # 1c021090 <inst_error>
1c020ad0:	14e71a6c 	lu12i.w	$r12,473299(0x738d3)
1c020ad4:	02a1c58c 	addi.w	$r12,$r12,-1935(0x871)
1c020ad8:	1528710b 	lu12i.w	$r11,-441464(0x94388)
1c020adc:	0280016b 	addi.w	$r11,$r11,0
1c020ae0:	0040bd8a 	slli.w	$r10,$r12,0xf
1c020ae4:	5c05ad4b 	bne	$r10,$r11,1452(0x5ac) # 1c021090 <inst_error>
1c020ae8:	14aadf6c 	lu12i.w	$r12,349947(0x556fb)
1c020aec:	02bc018c 	addi.w	$r12,$r12,-256(0xf00)
1c020af0:	155e000b 	lu12i.w	$r11,-331776(0xaf000)
1c020af4:	0280016b 	addi.w	$r11,$r11,0
1c020af8:	0040c18a 	slli.w	$r10,$r12,0x10
1c020afc:	5c05954b 	bne	$r10,$r11,1428(0x594) # 1c021090 <inst_error>
1c020b00:	14600a6c 	lu12i.w	$r12,196691(0x30053)
1c020b04:	0297598c 	addi.w	$r12,$r12,1494(0x5d6)
1c020b08:	140a6bab 	lu12i.w	$r11,21341(0x535d)
1c020b0c:	0298016b 	addi.w	$r11,$r11,1536(0x600)
1c020b10:	0040a18a 	slli.w	$r10,$r12,0x8
1c020b14:	5c057d4b 	bne	$r10,$r11,1404(0x57c) # 1c021090 <inst_error>
1c020b18:	1449d84c 	lu12i.w	$r12,151234(0x24ec2)
1c020b1c:	0296418c 	addi.w	$r12,$r12,1424(0x590)
1c020b20:	144ec26b 	lu12i.w	$r11,161299(0x27613)
1c020b24:	02b2016b 	addi.w	$r11,$r11,-896(0xc80)
1c020b28:	00408d8a 	slli.w	$r10,$r12,0x3
1c020b2c:	5c05654b 	bne	$r10,$r11,1380(0x564) # 1c021090 <inst_error>
1c020b30:	15c7968c 	lu12i.w	$r12,-115532(0xe3cb4)
1c020b34:	02a9618c 	addi.w	$r12,$r12,-1448(0xa58)
1c020b38:	15674b0b 	lu12i.w	$r11,-312744(0xb3a58)
1c020b3c:	0280016b 	addi.w	$r11,$r11,0
1c020b40:	0040b18a 	slli.w	$r10,$r12,0xc
1c020b44:	5c054d4b 	bne	$r10,$r11,1356(0x54c) # 1c021090 <inst_error>
1c020b48:	15441a2c 	lu12i.w	$r12,-384815(0xa20d1)
1c020b4c:	02ac418c 	addi.w	$r12,$r12,-1264(0xb10)
1c020b50:	148342cb 	lu12i.w	$r11,268822(0x41a16)
1c020b54:	0288016b 	addi.w	$r11,$r11,512(0x200)
1c020b58:	0040958a 	slli.w	$r10,$r12,0x5
1c020b5c:	5c05354b 	bne	$r10,$r11,1332(0x534) # 1c021090 <inst_error>
1c020b60:	144c7f8c 	lu12i.w	$r12,156668(0x263fc)
1c020b64:	0295818c 	addi.w	$r12,$r12,1376(0x560)
1c020b68:	158ff16b 	lu12i.w	$r11,-229493(0xc7f8b)
1c020b6c:	02b0016b 	addi.w	$r11,$r11,-1024(0xc00)
1c020b70:	0040958a 	slli.w	$r10,$r12,0x5
1c020b74:	5c051d4b 	bne	$r10,$r11,1308(0x51c) # 1c021090 <inst_error>
1c020b78:	1562b94c 	lu12i.w	$r12,-322102(0xb15ca)
1c020b7c:	02bc418c 	addi.w	$r12,$r12,-240(0xf10)
1c020b80:	1400000b 	lu12i.w	$r11,0
1c020b84:	0280016b 	addi.w	$r11,$r11,0
1c020b88:	0040f18a 	slli.w	$r10,$r12,0x1c
1c020b8c:	5c05054b 	bne	$r10,$r11,1284(0x504) # 1c021090 <inst_error>
1c020b90:	149caeec 	lu12i.w	$r12,320887(0x4e577)
1c020b94:	02b7c18c 	addi.w	$r12,$r12,-528(0xdf0)
1c020b98:	1400000b 	lu12i.w	$r11,0
1c020b9c:	0280016b 	addi.w	$r11,$r11,0
1c020ba0:	0040f58a 	slli.w	$r10,$r12,0x1d
1c020ba4:	5c04ed4b 	bne	$r10,$r11,1260(0x4ec) # 1c021090 <inst_error>
1c020ba8:	14f5b4ac 	lu12i.w	$r12,503205(0x7ada5)
1c020bac:	02b6018c 	addi.w	$r12,$r12,-640(0xd80)
1c020bb0:	156d26cb 	lu12i.w	$r11,-300746(0xb6936)
1c020bb4:	0280016b 	addi.w	$r11,$r11,0
1c020bb8:	0040998a 	slli.w	$r10,$r12,0x6
1c020bbc:	5c04d54b 	bne	$r10,$r11,1236(0x4d4) # 1c021090 <inst_error>
1c020bc0:	14efa60c 	lu12i.w	$r12,490800(0x77d30)
1c020bc4:	0286218c 	addi.w	$r12,$r12,392(0x188)
1c020bc8:	1420000b 	lu12i.w	$r11,65536(0x10000)
1c020bcc:	0280016b 	addi.w	$r11,$r11,0
1c020bd0:	0040e58a 	slli.w	$r10,$r12,0x19
1c020bd4:	5c04bd4b 	bne	$r10,$r11,1212(0x4bc) # 1c021090 <inst_error>
1c020bd8:	15fb352c 	lu12i.w	$r12,-9815(0xfd9a9)
1c020bdc:	02aa418c 	addi.w	$r12,$r12,-1392(0xa90)
1c020be0:	15a8a90b 	lu12i.w	$r11,-178872(0xd4548)
1c020be4:	0280016b 	addi.w	$r11,$r11,0
1c020be8:	0040ad8a 	slli.w	$r10,$r12,0xb
1c020bec:	5c04a54b 	bne	$r10,$r11,1188(0x4a4) # 1c021090 <inst_error>
1c020bf0:	15972e8c 	lu12i.w	$r12,-214668(0xcb974)
1c020bf4:	02a2418c 	addi.w	$r12,$r12,-1904(0x890)
1c020bf8:	159738ab 	lu12i.w	$r11,-214587(0xcb9c5)
1c020bfc:	02a0016b 	addi.w	$r11,$r11,-2048(0x800)
1c020c00:	00409d8a 	slli.w	$r10,$r12,0x7
1c020c04:	5c048d4b 	bne	$r10,$r11,1164(0x48c) # 1c021090 <inst_error>
1c020c08:	159b9f6c 	lu12i.w	$r12,-205573(0xcdcfb)
1c020c0c:	0280018c 	addi.w	$r12,$r12,0
1c020c10:	1400000b 	lu12i.w	$r11,0
1c020c14:	0280016b 	addi.w	$r11,$r11,0
1c020c18:	0040dd8a 	slli.w	$r10,$r12,0x17
1c020c1c:	5c04754b 	bne	$r10,$r11,1140(0x474) # 1c021090 <inst_error>
1c020c20:	1598686c 	lu12i.w	$r12,-212157(0xcc343)
1c020c24:	029e098c 	addi.w	$r12,$r12,1922(0x782)
1c020c28:	1578200b 	lu12i.w	$r11,-278272(0xbc100)
1c020c2c:	0280016b 	addi.w	$r11,$r11,0
1c020c30:	0040cd8a 	slli.w	$r10,$r12,0x13
1c020c34:	5c045d4b 	bne	$r10,$r11,1116(0x45c) # 1c021090 <inst_error>
1c020c38:	15af170c 	lu12i.w	$r12,-165704(0xd78b8)
1c020c3c:	02b4018c 	addi.w	$r12,$r12,-768(0xd00)
1c020c40:	15be800b 	lu12i.w	$r11,-134144(0xdf400)
1c020c44:	0280016b 	addi.w	$r11,$r11,0
1c020c48:	0040b98a 	slli.w	$r10,$r12,0xe
1c020c4c:	5c04454b 	bne	$r10,$r11,1092(0x444) # 1c021090 <inst_error>
1c020c50:	14343e6c 	lu12i.w	$r12,106995(0x1a1f3)
1c020c54:	02a3398c 	addi.w	$r12,$r12,-1842(0x8ce)
1c020c58:	14f9468b 	lu12i.w	$r11,510516(0x7ca34)
1c020c5c:	02a0016b 	addi.w	$r11,$r11,-2048(0x800)
1c020c60:	0040a98a 	slli.w	$r10,$r12,0xa
1c020c64:	5c042d4b 	bne	$r10,$r11,1068(0x42c) # 1c021090 <inst_error>
1c020c68:	153f618c 	lu12i.w	$r12,-394484(0x9fb0c)
1c020c6c:	0297d98c 	addi.w	$r12,$r12,1526(0x5f6)
1c020c70:	14bec00b 	lu12i.w	$r11,390656(0x5f600)
1c020c74:	0280016b 	addi.w	$r11,$r11,0
1c020c78:	0040d18a 	slli.w	$r10,$r12,0x14
1c020c7c:	5c04154b 	bne	$r10,$r11,1044(0x414) # 1c021090 <inst_error>
1c020c80:	15ee00cc 	lu12i.w	$r12,-36858(0xf7006)
1c020c84:	02a3418c 	addi.w	$r12,$r12,-1840(0x8d0)
1c020c88:	1400000b 	lu12i.w	$r11,0
1c020c8c:	0280016b 	addi.w	$r11,$r11,0
1c020c90:	0040f98a 	slli.w	$r10,$r12,0x1e
1c020c94:	5c03fd4b 	bne	$r10,$r11,1020(0x3fc) # 1c021090 <inst_error>
1c020c98:	147819ac 	lu12i.w	$r12,245965(0x3c0cd)
1c020c9c:	029eb98c 	addi.w	$r12,$r12,1966(0x7ae)
1c020ca0:	14b8000b 	lu12i.w	$r11,376832(0x5c000)
1c020ca4:	0280016b 	addi.w	$r11,$r11,0
1c020ca8:	0040e58a 	slli.w	$r10,$r12,0x19
1c020cac:	5c03e54b 	bne	$r10,$r11,996(0x3e4) # 1c021090 <inst_error>
1c020cb0:	15e99c2c 	lu12i.w	$r12,-45855(0xf4ce1)
1c020cb4:	029e698c 	addi.w	$r12,$r12,1946(0x79a)
1c020cb8:	15c2f34b 	lu12i.w	$r11,-125030(0xe179a)
1c020cbc:	0280016b 	addi.w	$r11,$r11,0
1c020cc0:	0040b18a 	slli.w	$r10,$r12,0xc
1c020cc4:	5c03cd4b 	bne	$r10,$r11,972(0x3cc) # 1c021090 <inst_error>
1c020cc8:	148d1cec 	lu12i.w	$r12,288999(0x468e7)
1c020ccc:	02ac718c 	addi.w	$r12,$r12,-1252(0xb1c)
1c020cd0:	1400000b 	lu12i.w	$r11,0
1c020cd4:	0280016b 	addi.w	$r11,$r11,0
1c020cd8:	0040fd8a 	slli.w	$r10,$r12,0x1f
1c020cdc:	5c03b54b 	bne	$r10,$r11,948(0x3b4) # 1c021090 <inst_error>
1c020ce0:	154ccacc 	lu12i.w	$r12,-367018(0xa6656)
1c020ce4:	029a618c 	addi.w	$r12,$r12,1688(0x698)
1c020ce8:	14acd30b 	lu12i.w	$r11,353944(0x56698)
1c020cec:	0280016b 	addi.w	$r11,$r11,0
1c020cf0:	0040b18a 	slli.w	$r10,$r12,0xc
1c020cf4:	5c039d4b 	bne	$r10,$r11,924(0x39c) # 1c021090 <inst_error>
1c020cf8:	15b1132c 	lu12i.w	$r12,-161639(0xd8899)
1c020cfc:	0288b18c 	addi.w	$r12,$r12,556(0x22c)
1c020d00:	14c44cab 	lu12i.w	$r11,402021(0x62265)
1c020d04:	02a2c16b 	addi.w	$r11,$r11,-1872(0x8b0)
1c020d08:	0040898a 	slli.w	$r10,$r12,0x2
1c020d0c:	5c03854b 	bne	$r10,$r11,900(0x384) # 1c021090 <inst_error>
1c020d10:	153f1d4c 	lu12i.w	$r12,-395030(0x9f8ea)
1c020d14:	02a7c18c 	addi.w	$r12,$r12,-1552(0x9f0)
1c020d18:	1499f00b 	lu12i.w	$r11,315264(0x4cf80)
1c020d1c:	0280016b 	addi.w	$r11,$r11,0
1c020d20:	0040bd8a 	slli.w	$r10,$r12,0xf
1c020d24:	5c036d4b 	bne	$r10,$r11,876(0x36c) # 1c021090 <inst_error>
1c020d28:	14b9982c 	lu12i.w	$r12,380097(0x5ccc1)
1c020d2c:	0294318c 	addi.w	$r12,$r12,1292(0x50c)
1c020d30:	1543000b 	lu12i.w	$r11,-387072(0xa1800)
1c020d34:	0280016b 	addi.w	$r11,$r11,0
1c020d38:	0040d58a 	slli.w	$r10,$r12,0x15
1c020d3c:	5c03554b 	bne	$r10,$r11,852(0x354) # 1c021090 <inst_error>
1c020d40:	14b4b8ec 	lu12i.w	$r12,370119(0x5a5c7)
1c020d44:	02a81d8c 	addi.w	$r12,$r12,-1529(0xa07)
1c020d48:	1407000b 	lu12i.w	$r11,14336(0x3800)
1c020d4c:	0280016b 	addi.w	$r11,$r11,0
1c020d50:	0040dd8a 	slli.w	$r10,$r12,0x17
1c020d54:	5c033d4b 	bne	$r10,$r11,828(0x33c) # 1c021090 <inst_error>
1c020d58:	147deeac 	lu12i.w	$r12,257909(0x3ef75)
1c020d5c:	0299c98c 	addi.w	$r12,$r12,1650(0x672)
1c020d60:	1559c80b 	lu12i.w	$r11,-340416(0xace40)
1c020d64:	0280016b 	addi.w	$r11,$r11,0
1c020d68:	0040c58a 	slli.w	$r10,$r12,0x11
1c020d6c:	5c03254b 	bne	$r10,$r11,804(0x324) # 1c021090 <inst_error>
1c020d70:	144ab8ec 	lu12i.w	$r12,153031(0x255c7)
1c020d74:	0283718c 	addi.w	$r12,$r12,220(0xdc)
1c020d78:	1437000b 	lu12i.w	$r11,112640(0x1b800)
1c020d7c:	0280016b 	addi.w	$r11,$r11,0
1c020d80:	0040d58a 	slli.w	$r10,$r12,0x15
1c020d84:	5c030d4b 	bne	$r10,$r11,780(0x30c) # 1c021090 <inst_error>
1c020d88:	14094f2c 	lu12i.w	$r12,19065(0x4a79)
1c020d8c:	02a3c18c 	addi.w	$r12,$r12,-1808(0x8f0)
1c020d90:	148f000b 	lu12i.w	$r11,292864(0x47800)
1c020d94:	0280016b 	addi.w	$r11,$r11,0
1c020d98:	0040cd8a 	slli.w	$r10,$r12,0x13
1c020d9c:	5c02f54b 	bne	$r10,$r11,756(0x2f4) # 1c021090 <inst_error>
1c020da0:	145e3ecc 	lu12i.w	$r12,193014(0x2f1f6)
1c020da4:	02a1018c 	addi.w	$r12,$r12,-1984(0x840)
1c020da8:	1561000b 	lu12i.w	$r11,-325632(0xb0800)
1c020dac:	0280016b 	addi.w	$r11,$r11,0
1c020db0:	0040c58a 	slli.w	$r10,$r12,0x11
1c020db4:	5c02dd4b 	bne	$r10,$r11,732(0x2dc) # 1c021090 <inst_error>
1c020db8:	15b357ec 	lu12i.w	$r12,-156993(0xd9abf)
1c020dbc:	0287718c 	addi.w	$r12,$r12,476(0x1dc)
1c020dc0:	15c0000b 	lu12i.w	$r11,-131072(0xe0000)
1c020dc4:	0280016b 	addi.w	$r11,$r11,0
1c020dc8:	0040ed8a 	slli.w	$r10,$r12,0x1b
1c020dcc:	5c02c54b 	bne	$r10,$r11,708(0x2c4) # 1c021090 <inst_error>
1c020dd0:	15544f8c 	lu12i.w	$r12,-351620(0xaa27c)
1c020dd4:	02ba098c 	addi.w	$r12,$r12,-382(0xe82)
1c020dd8:	1408000b 	lu12i.w	$r11,16384(0x4000)
1c020ddc:	0280016b 	addi.w	$r11,$r11,0
1c020de0:	0040e58a 	slli.w	$r10,$r12,0x19
1c020de4:	5c02ad4b 	bne	$r10,$r11,684(0x2ac) # 1c021090 <inst_error>
1c020de8:	1538b96c 	lu12i.w	$r12,-408117(0x9c5cb)
1c020dec:	0289e18c 	addi.w	$r12,$r12,632(0x278)
1c020df0:	158b964b 	lu12i.w	$r11,-238414(0xc5cb2)
1c020df4:	029e016b 	addi.w	$r11,$r11,1920(0x780)
1c020df8:	0040918a 	slli.w	$r10,$r12,0x4
1c020dfc:	5c02954b 	bne	$r10,$r11,660(0x294) # 1c021090 <inst_error>
1c020e00:	14afa4cc 	lu12i.w	$r12,359718(0x57d26)
1c020e04:	02a8e18c 	addi.w	$r12,$r12,-1480(0xa38)
1c020e08:	1500000b 	lu12i.w	$r11,-524288(0x80000)
1c020e0c:	0280016b 	addi.w	$r11,$r11,0
1c020e10:	0040f18a 	slli.w	$r10,$r12,0x1c
1c020e14:	5c027d4b 	bne	$r10,$r11,636(0x27c) # 1c021090 <inst_error>
1c020e18:	149ff72c 	lu12i.w	$r12,327609(0x4ffb9)
1c020e1c:	028fb18c 	addi.w	$r12,$r12,1004(0x3ec)
1c020e20:	14ffb94b 	lu12i.w	$r11,523722(0x7fdca)
1c020e24:	02bd816b 	addi.w	$r11,$r11,-160(0xf60)
1c020e28:	00408d8a 	slli.w	$r10,$r12,0x3
1c020e2c:	5c02654b 	bne	$r10,$r11,612(0x264) # 1c021090 <inst_error>
1c020e30:	14cf73cc 	lu12i.w	$r12,424862(0x67b9e)
1c020e34:	028bc18c 	addi.w	$r12,$r12,752(0x2f0)
1c020e38:	14bc000b 	lu12i.w	$r11,385024(0x5e000)
1c020e3c:	0280016b 	addi.w	$r11,$r11,0
1c020e40:	0040d58a 	slli.w	$r10,$r12,0x15
1c020e44:	5c024d4b 	bne	$r10,$r11,588(0x24c) # 1c021090 <inst_error>
1c020e48:	144b136c 	lu12i.w	$r12,153755(0x2589b)
1c020e4c:	0290218c 	addi.w	$r12,$r12,1032(0x408)
1c020e50:	1404000b 	lu12i.w	$r11,8192(0x2000)
1c020e54:	0280016b 	addi.w	$r11,$r11,0
1c020e58:	0040d98a 	slli.w	$r10,$r12,0x16
1c020e5c:	5c02354b 	bne	$r10,$r11,564(0x234) # 1c021090 <inst_error>
1c020e60:	152aa70c 	lu12i.w	$r12,-436936(0x95538)
1c020e64:	02b1118c 	addi.w	$r12,$r12,-956(0xc44)
1c020e68:	14a9be2b 	lu12i.w	$r11,347633(0x54df1)
1c020e6c:	0284016b 	addi.w	$r11,$r11,256(0x100)
1c020e70:	0040998a 	slli.w	$r10,$r12,0x6
1c020e74:	5c021d4b 	bne	$r10,$r11,540(0x21c) # 1c021090 <inst_error>
1c020e78:	14738ecc 	lu12i.w	$r12,236662(0x39c76)
1c020e7c:	029ce98c 	addi.w	$r12,$r12,1850(0x73a)
1c020e80:	14738ecb 	lu12i.w	$r11,236662(0x39c76)
1c020e84:	029ce96b 	addi.w	$r11,$r11,1850(0x73a)
1c020e88:	0040818a 	slli.w	$r10,$r12,0x0
1c020e8c:	5c02054b 	bne	$r10,$r11,516(0x204) # 1c021090 <inst_error>
1c020e90:	15b3184c 	lu12i.w	$r12,-157502(0xd98c2)
1c020e94:	02bb818c 	addi.w	$r12,$r12,-288(0xee0)
1c020e98:	15b3184b 	lu12i.w	$r11,-157502(0xd98c2)
1c020e9c:	02bb816b 	addi.w	$r11,$r11,-288(0xee0)
1c020ea0:	0040818a 	slli.w	$r10,$r12,0x0
1c020ea4:	5c01ed4b 	bne	$r10,$r11,492(0x1ec) # 1c021090 <inst_error>
1c020ea8:	15ef7aac 	lu12i.w	$r12,-33835(0xf7bd5)
1c020eac:	02a3998c 	addi.w	$r12,$r12,-1818(0x8e6)
1c020eb0:	15ef7aab 	lu12i.w	$r11,-33835(0xf7bd5)
1c020eb4:	02a3996b 	addi.w	$r11,$r11,-1818(0x8e6)
1c020eb8:	0040818a 	slli.w	$r10,$r12,0x0
1c020ebc:	5c01d54b 	bne	$r10,$r11,468(0x1d4) # 1c021090 <inst_error>
1c020ec0:	1455142c 	lu12i.w	$r12,174241(0x2a8a1)
1c020ec4:	0285018c 	addi.w	$r12,$r12,320(0x140)
1c020ec8:	1455142b 	lu12i.w	$r11,174241(0x2a8a1)
1c020ecc:	0285016b 	addi.w	$r11,$r11,320(0x140)
1c020ed0:	0040818a 	slli.w	$r10,$r12,0x0
1c020ed4:	5c01bd4b 	bne	$r10,$r11,444(0x1bc) # 1c021090 <inst_error>
1c020ed8:	14e7210c 	lu12i.w	$r12,473352(0x73908)
1c020edc:	0291618c 	addi.w	$r12,$r12,1112(0x458)
1c020ee0:	14e7210b 	lu12i.w	$r11,473352(0x73908)
1c020ee4:	0291616b 	addi.w	$r11,$r11,1112(0x458)
1c020ee8:	0040818a 	slli.w	$r10,$r12,0x0
1c020eec:	5c01a54b 	bne	$r10,$r11,420(0x1a4) # 1c021090 <inst_error>
1c020ef0:	15a8e12c 	lu12i.w	$r12,-178423(0xd4709)
1c020ef4:	028d418c 	addi.w	$r12,$r12,848(0x350)
1c020ef8:	15a8e12b 	lu12i.w	$r11,-178423(0xd4709)
1c020efc:	028d416b 	addi.w	$r11,$r11,848(0x350)
1c020f00:	0040818a 	slli.w	$r10,$r12,0x0
1c020f04:	5c018d4b 	bne	$r10,$r11,396(0x18c) # 1c021090 <inst_error>
1c020f08:	14bacfec 	lu12i.w	$r12,382591(0x5d67f)
1c020f0c:	02ba018c 	addi.w	$r12,$r12,-384(0xe80)
1c020f10:	14bacfeb 	lu12i.w	$r11,382591(0x5d67f)
1c020f14:	02ba016b 	addi.w	$r11,$r11,-384(0xe80)
1c020f18:	0040818a 	slli.w	$r10,$r12,0x0
1c020f1c:	5c01754b 	bne	$r10,$r11,372(0x174) # 1c021090 <inst_error>
1c020f20:	1472544c 	lu12i.w	$r12,234146(0x392a2)
1c020f24:	0292818c 	addi.w	$r12,$r12,1184(0x4a0)
1c020f28:	1472544b 	lu12i.w	$r11,234146(0x392a2)
1c020f2c:	0292816b 	addi.w	$r11,$r11,1184(0x4a0)
1c020f30:	0040818a 	slli.w	$r10,$r12,0x0
1c020f34:	5c015d4b 	bne	$r10,$r11,348(0x15c) # 1c021090 <inst_error>
1c020f38:	142bfecc 	lu12i.w	$r12,90102(0x15ff6)
1c020f3c:	02bb658c 	addi.w	$r12,$r12,-295(0xed9)
1c020f40:	142bfecb 	lu12i.w	$r11,90102(0x15ff6)
1c020f44:	02bb656b 	addi.w	$r11,$r11,-295(0xed9)
1c020f48:	0040818a 	slli.w	$r10,$r12,0x0
1c020f4c:	5c01454b 	bne	$r10,$r11,324(0x144) # 1c021090 <inst_error>
1c020f50:	147c3fac 	lu12i.w	$r12,254461(0x3e1fd)
1c020f54:	0288658c 	addi.w	$r12,$r12,537(0x219)
1c020f58:	147c3fab 	lu12i.w	$r11,254461(0x3e1fd)
1c020f5c:	0288656b 	addi.w	$r11,$r11,537(0x219)
1c020f60:	0040818a 	slli.w	$r10,$r12,0x0
1c020f64:	5c012d4b 	bne	$r10,$r11,300(0x12c) # 1c021090 <inst_error>
1c020f68:	1536f34c 	lu12i.w	$r12,-411750(0x9b79a)
1c020f6c:	028ba18c 	addi.w	$r12,$r12,744(0x2e8)
1c020f70:	1536f34b 	lu12i.w	$r11,-411750(0x9b79a)
1c020f74:	028ba16b 	addi.w	$r11,$r11,744(0x2e8)
1c020f78:	0040818a 	slli.w	$r10,$r12,0x0
1c020f7c:	5c01154b 	bne	$r10,$r11,276(0x114) # 1c021090 <inst_error>
1c020f80:	1437292c 	lu12i.w	$r12,112969(0x1b949)
1c020f84:	0298b18c 	addi.w	$r12,$r12,1580(0x62c)
1c020f88:	1437292b 	lu12i.w	$r11,112969(0x1b949)
1c020f8c:	0298b16b 	addi.w	$r11,$r11,1580(0x62c)
1c020f90:	0040818a 	slli.w	$r10,$r12,0x0
1c020f94:	5c00fd4b 	bne	$r10,$r11,252(0xfc) # 1c021090 <inst_error>
1c020f98:	15550b2c 	lu12i.w	$r12,-350119(0xaa859)
1c020f9c:	0291198c 	addi.w	$r12,$r12,1094(0x446)
1c020fa0:	15550b2b 	lu12i.w	$r11,-350119(0xaa859)
1c020fa4:	0291196b 	addi.w	$r11,$r11,1094(0x446)
1c020fa8:	0040818a 	slli.w	$r10,$r12,0x0
1c020fac:	5c00e54b 	bne	$r10,$r11,228(0xe4) # 1c021090 <inst_error>
1c020fb0:	14067d2c 	lu12i.w	$r12,13289(0x33e9)
1c020fb4:	02b9d18c 	addi.w	$r12,$r12,-396(0xe74)
1c020fb8:	14067d2b 	lu12i.w	$r11,13289(0x33e9)
1c020fbc:	02b9d16b 	addi.w	$r11,$r11,-396(0xe74)
1c020fc0:	0040818a 	slli.w	$r10,$r12,0x0
1c020fc4:	5c00cd4b 	bne	$r10,$r11,204(0xcc) # 1c021090 <inst_error>
1c020fc8:	149095cc 	lu12i.w	$r12,296110(0x484ae)
1c020fcc:	028af18c 	addi.w	$r12,$r12,700(0x2bc)
1c020fd0:	149095cb 	lu12i.w	$r11,296110(0x484ae)
1c020fd4:	028af16b 	addi.w	$r11,$r11,700(0x2bc)
1c020fd8:	0040818a 	slli.w	$r10,$r12,0x0
1c020fdc:	5c00b54b 	bne	$r10,$r11,180(0xb4) # 1c021090 <inst_error>
1c020fe0:	158e034c 	lu12i.w	$r12,-233446(0xc701a)
1c020fe4:	02b7818c 	addi.w	$r12,$r12,-544(0xde0)
1c020fe8:	158e034b 	lu12i.w	$r11,-233446(0xc701a)
1c020fec:	02b7816b 	addi.w	$r11,$r11,-544(0xde0)
1c020ff0:	0040818a 	slli.w	$r10,$r12,0x0
1c020ff4:	5c009d4b 	bne	$r10,$r11,156(0x9c) # 1c021090 <inst_error>
1c020ff8:	15254c6c 	lu12i.w	$r12,-447901(0x92a63)
1c020ffc:	0293798c 	addi.w	$r12,$r12,1246(0x4de)
1c021000:	15254c6b 	lu12i.w	$r11,-447901(0x92a63)
1c021004:	0293796b 	addi.w	$r11,$r11,1246(0x4de)
1c021008:	0040818a 	slli.w	$r10,$r12,0x0
1c02100c:	5c00854b 	bne	$r10,$r11,132(0x84) # 1c021090 <inst_error>
1c021010:	1449204c 	lu12i.w	$r12,149762(0x24902)
1c021014:	02a3758c 	addi.w	$r12,$r12,-1827(0x8dd)
1c021018:	1449204b 	lu12i.w	$r11,149762(0x24902)
1c02101c:	02a3756b 	addi.w	$r11,$r11,-1827(0x8dd)
1c021020:	0040818a 	slli.w	$r10,$r12,0x0
1c021024:	5c006d4b 	bne	$r10,$r11,108(0x6c) # 1c021090 <inst_error>
1c021028:	1469a58c 	lu12i.w	$r12,216364(0x34d2c)
1c02102c:	02af118c 	addi.w	$r12,$r12,-1084(0xbc4)
1c021030:	1469a58b 	lu12i.w	$r11,216364(0x34d2c)
1c021034:	02af116b 	addi.w	$r11,$r11,-1084(0xbc4)
1c021038:	0040818a 	slli.w	$r10,$r12,0x0
1c02103c:	5c00554b 	bne	$r10,$r11,84(0x54) # 1c021090 <inst_error>
1c021040:	145ec48c 	lu12i.w	$r12,194084(0x2f624)
1c021044:	029c318c 	addi.w	$r12,$r12,1804(0x70c)
1c021048:	145ec48b 	lu12i.w	$r11,194084(0x2f624)
1c02104c:	029c316b 	addi.w	$r11,$r11,1804(0x70c)
1c021050:	0040818a 	slli.w	$r10,$r12,0x0
1c021054:	5c003d4b 	bne	$r10,$r11,60(0x3c) # 1c021090 <inst_error>
1c021058:	14fbd28c 	lu12i.w	$r12,515732(0x7de94)
1c02105c:	02bff98c 	addi.w	$r12,$r12,-2(0xffe)
1c021060:	14fbd28b 	lu12i.w	$r11,515732(0x7de94)
1c021064:	02bff96b 	addi.w	$r11,$r11,-2(0xffe)
1c021068:	0040818a 	slli.w	$r10,$r12,0x0
1c02106c:	5c00254b 	bne	$r10,$r11,36(0x24) # 1c021090 <inst_error>
1c021070:	1400000c 	lu12i.w	$r12,0
1c021074:	0280018c 	addi.w	$r12,$r12,0
1c021078:	1400000b 	lu12i.w	$r11,0
1c02107c:	0280016b 	addi.w	$r11,$r11,0
1c021080:	0040818a 	slli.w	$r10,$r12,0x0
1c021084:	5c000d4b 	bne	$r10,$r11,12(0xc) # 1c021090 <inst_error>
1c021088:	5c000b20 	bne	$r25,$r0,8(0x8) # 1c021090 <inst_error>
1c02108c:	0280075a 	addi.w	$r26,$r26,1(0x1)

1c021090 <inst_error>:
1c021090:	0040e2ed 	slli.w	$r13,$r23,0x18
1c021094:	001569ac 	or	$r12,$r13,$r26
1c021098:	2980030c 	st.w	$r12,$r24,0
1c02109c:	4c000020 	jirl	$r0,$r1,0

1c0210a0 <n14_ld_w_test>:
n14_ld_w_test():
1c0210a0:	028006f7 	addi.w	$r23,$r23,1(0x1)
1c0210a4:	00150019 	move	$r25,$r0
1c0210a8:	1590458d 	lu12i.w	$r13,-228820(0xc822c)
1c0210ac:	029fa1ad 	addi.w	$r13,$r13,2024(0x7e8)
1c0210b0:	14001a6c 	lu12i.w	$r12,211(0xd3)
1c0210b4:	0293018c 	addi.w	$r12,$r12,1216(0x4c0)
1c0210b8:	1590458b 	lu12i.w	$r11,-228820(0xc822c)
1c0210bc:	029fa16b 	addi.w	$r11,$r11,2024(0x7e8)
1c0210c0:	299aa18d 	st.w	$r13,$r12,1704(0x6a8)
1c0210c4:	02801184 	addi.w	$r4,$r12,4(0x4)
1c0210c8:	02bfe185 	addi.w	$r5,$r12,-8(0xff8)
1c0210cc:	299aa084 	st.w	$r4,$r4,1704(0x6a8)
1c0210d0:	299aa0a5 	st.w	$r5,$r5,1704(0x6a8)
1c0210d4:	289aa18a 	ld.w	$r10,$r12,1704(0x6a8)
1c0210d8:	289aa086 	ld.w	$r6,$r4,1704(0x6a8)
1c0210dc:	289aa0a4 	ld.w	$r4,$r5,1704(0x6a8)
1c0210e0:	289aa0a6 	ld.w	$r6,$r5,1704(0x6a8)
1c0210e4:	5c094d4b 	bne	$r10,$r11,2380(0x94c) # 1c021a30 <inst_error>
1c0210e8:	14e2e70d 	lu12i.w	$r13,464696(0x71738)
1c0210ec:	02b041ad 	addi.w	$r13,$r13,-1008(0xc10)
1c0210f0:	14001bec 	lu12i.w	$r12,223(0xdf)
1c0210f4:	0299818c 	addi.w	$r12,$r12,1632(0x660)
1c0210f8:	14e2e70b 	lu12i.w	$r11,464696(0x71738)
1c0210fc:	02b0416b 	addi.w	$r11,$r11,-1008(0xc10)
1c021100:	2983918d 	st.w	$r13,$r12,228(0xe4)
1c021104:	02801184 	addi.w	$r4,$r12,4(0x4)
1c021108:	02bfe185 	addi.w	$r5,$r12,-8(0xff8)
1c02110c:	29839084 	st.w	$r4,$r4,228(0xe4)
1c021110:	298390a5 	st.w	$r5,$r5,228(0xe4)
1c021114:	2883918a 	ld.w	$r10,$r12,228(0xe4)
1c021118:	28839086 	ld.w	$r6,$r4,228(0xe4)
1c02111c:	288390a4 	ld.w	$r4,$r5,228(0xe4)
1c021120:	288390a6 	ld.w	$r6,$r5,228(0xe4)
1c021124:	5c090d4b 	bne	$r10,$r11,2316(0x90c) # 1c021a30 <inst_error>
1c021128:	1406d04d 	lu12i.w	$r13,13954(0x3682)
1c02112c:	029081ad 	addi.w	$r13,$r13,1056(0x420)
1c021130:	14001a4c 	lu12i.w	$r12,210(0xd2)
1c021134:	0293918c 	addi.w	$r12,$r12,1252(0x4e4)
1c021138:	1406d04b 	lu12i.w	$r11,13954(0x3682)
1c02113c:	0290816b 	addi.w	$r11,$r11,1056(0x420)
1c021140:	2986018d 	st.w	$r13,$r12,384(0x180)
1c021144:	02801184 	addi.w	$r4,$r12,4(0x4)
1c021148:	02bfe185 	addi.w	$r5,$r12,-8(0xff8)
1c02114c:	29860084 	st.w	$r4,$r4,384(0x180)
1c021150:	298600a5 	st.w	$r5,$r5,384(0x180)
1c021154:	2886018a 	ld.w	$r10,$r12,384(0x180)
1c021158:	28860086 	ld.w	$r6,$r4,384(0x180)
1c02115c:	288600a4 	ld.w	$r4,$r5,384(0x180)
1c021160:	288600a6 	ld.w	$r6,$r5,384(0x180)
1c021164:	5c08cd4b 	bne	$r10,$r11,2252(0x8cc) # 1c021a30 <inst_error>
1c021168:	14deb3ed 	lu12i.w	$r13,456095(0x6f59f)
1c02116c:	02974dad 	addi.w	$r13,$r13,1491(0x5d3)
1c021170:	14001b6c 	lu12i.w	$r12,219(0xdb)
1c021174:	02af718c 	addi.w	$r12,$r12,-1060(0xbdc)
1c021178:	14deb3eb 	lu12i.w	$r11,456095(0x6f59f)
1c02117c:	02974d6b 	addi.w	$r11,$r11,1491(0x5d3)
1c021180:	2982c18d 	st.w	$r13,$r12,176(0xb0)
1c021184:	02801184 	addi.w	$r4,$r12,4(0x4)
1c021188:	02bfe185 	addi.w	$r5,$r12,-8(0xff8)
1c02118c:	2982c084 	st.w	$r4,$r4,176(0xb0)
1c021190:	2982c0a5 	st.w	$r5,$r5,176(0xb0)
1c021194:	2882c18a 	ld.w	$r10,$r12,176(0xb0)
1c021198:	2882c086 	ld.w	$r6,$r4,176(0xb0)
1c02119c:	2882c0a4 	ld.w	$r4,$r5,176(0xb0)
1c0211a0:	2882c0a6 	ld.w	$r6,$r5,176(0xb0)
1c0211a4:	5c088d4b 	bne	$r10,$r11,2188(0x88c) # 1c021a30 <inst_error>
1c0211a8:	14adb20d 	lu12i.w	$r13,355728(0x56d90)
1c0211ac:	029a59ad 	addi.w	$r13,$r13,1686(0x696)
1c0211b0:	14001a6c 	lu12i.w	$r12,211(0xd3)
1c0211b4:	02a2d18c 	addi.w	$r12,$r12,-1868(0x8b4)
1c0211b8:	14adb20b 	lu12i.w	$r11,355728(0x56d90)
1c0211bc:	029a596b 	addi.w	$r11,$r11,1686(0x696)
1c0211c0:	2987d18d 	st.w	$r13,$r12,500(0x1f4)
1c0211c4:	02801184 	addi.w	$r4,$r12,4(0x4)
1c0211c8:	02bfe185 	addi.w	$r5,$r12,-8(0xff8)
1c0211cc:	2987d084 	st.w	$r4,$r4,500(0x1f4)
1c0211d0:	2987d0a5 	st.w	$r5,$r5,500(0x1f4)
1c0211d4:	2887d18a 	ld.w	$r10,$r12,500(0x1f4)
1c0211d8:	2887d086 	ld.w	$r6,$r4,500(0x1f4)
1c0211dc:	2887d0a4 	ld.w	$r4,$r5,500(0x1f4)
1c0211e0:	2887d0a6 	ld.w	$r6,$r5,500(0x1f4)
1c0211e4:	5c084d4b 	bne	$r10,$r11,2124(0x84c) # 1c021a30 <inst_error>
1c0211e8:	15db4a4d 	lu12i.w	$r13,-75182(0xeda52)
1c0211ec:	028121ad 	addi.w	$r13,$r13,72(0x48)
1c0211f0:	14001aac 	lu12i.w	$r12,213(0xd5)
1c0211f4:	02baa18c 	addi.w	$r12,$r12,-344(0xea8)
1c0211f8:	15db4a4b 	lu12i.w	$r11,-75182(0xeda52)
1c0211fc:	0281216b 	addi.w	$r11,$r11,72(0x48)
1c021200:	298ac18d 	st.w	$r13,$r12,688(0x2b0)
1c021204:	02801184 	addi.w	$r4,$r12,4(0x4)
1c021208:	02bfe185 	addi.w	$r5,$r12,-8(0xff8)
1c02120c:	298ac084 	st.w	$r4,$r4,688(0x2b0)
1c021210:	298ac0a5 	st.w	$r5,$r5,688(0x2b0)
1c021214:	288ac18a 	ld.w	$r10,$r12,688(0x2b0)
1c021218:	288ac086 	ld.w	$r6,$r4,688(0x2b0)
1c02121c:	288ac0a4 	ld.w	$r4,$r5,688(0x2b0)
1c021220:	288ac0a6 	ld.w	$r6,$r5,688(0x2b0)
1c021224:	5c080d4b 	bne	$r10,$r11,2060(0x80c) # 1c021a30 <inst_error>
1c021228:	14707d2d 	lu12i.w	$r13,230377(0x383e9)
1c02122c:	02a5c1ad 	addi.w	$r13,$r13,-1680(0x970)
1c021230:	14001b2c 	lu12i.w	$r12,217(0xd9)
1c021234:	02ab918c 	addi.w	$r12,$r12,-1308(0xae4)
1c021238:	14707d2b 	lu12i.w	$r11,230377(0x383e9)
1c02123c:	02a5c16b 	addi.w	$r11,$r11,-1680(0x970)
1c021240:	299a218d 	st.w	$r13,$r12,1672(0x688)
1c021244:	02801184 	addi.w	$r4,$r12,4(0x4)
1c021248:	02bfe185 	addi.w	$r5,$r12,-8(0xff8)
1c02124c:	299a2084 	st.w	$r4,$r4,1672(0x688)
1c021250:	299a20a5 	st.w	$r5,$r5,1672(0x688)
1c021254:	289a218a 	ld.w	$r10,$r12,1672(0x688)
1c021258:	289a2086 	ld.w	$r6,$r4,1672(0x688)
1c02125c:	289a20a4 	ld.w	$r4,$r5,1672(0x688)
1c021260:	289a20a6 	ld.w	$r6,$r5,1672(0x688)
1c021264:	5c07cd4b 	bne	$r10,$r11,1996(0x7cc) # 1c021a30 <inst_error>
1c021268:	1451922d 	lu12i.w	$r13,167057(0x28c91)
1c02126c:	02ab29ad 	addi.w	$r13,$r13,-1334(0xaca)
1c021270:	14001a8c 	lu12i.w	$r12,212(0xd4)
1c021274:	02a1018c 	addi.w	$r12,$r12,-1984(0x840)
1c021278:	1451922b 	lu12i.w	$r11,167057(0x28c91)
1c02127c:	02ab296b 	addi.w	$r11,$r11,-1334(0xaca)
1c021280:	29ad618d 	st.w	$r13,$r12,-1192(0xb58)
1c021284:	02801184 	addi.w	$r4,$r12,4(0x4)
1c021288:	02bfe185 	addi.w	$r5,$r12,-8(0xff8)
1c02128c:	29ad6084 	st.w	$r4,$r4,-1192(0xb58)
1c021290:	29ad60a5 	st.w	$r5,$r5,-1192(0xb58)
1c021294:	28ad618a 	ld.w	$r10,$r12,-1192(0xb58)
1c021298:	28ad6086 	ld.w	$r6,$r4,-1192(0xb58)
1c02129c:	28ad60a4 	ld.w	$r4,$r5,-1192(0xb58)
1c0212a0:	28ad60a6 	ld.w	$r6,$r5,-1192(0xb58)
1c0212a4:	5c078d4b 	bne	$r10,$r11,1932(0x78c) # 1c021a30 <inst_error>
1c0212a8:	14a9594d 	lu12i.w	$r13,346826(0x54aca)
1c0212ac:	028461ad 	addi.w	$r13,$r13,280(0x118)
1c0212b0:	14001a0c 	lu12i.w	$r12,208(0xd0)
1c0212b4:	029b018c 	addi.w	$r12,$r12,1728(0x6c0)
1c0212b8:	14a9594b 	lu12i.w	$r11,346826(0x54aca)
1c0212bc:	0284616b 	addi.w	$r11,$r11,280(0x118)
1c0212c0:	29ab918d 	st.w	$r13,$r12,-1308(0xae4)
1c0212c4:	02801184 	addi.w	$r4,$r12,4(0x4)
1c0212c8:	02bfe185 	addi.w	$r5,$r12,-8(0xff8)
1c0212cc:	29ab9084 	st.w	$r4,$r4,-1308(0xae4)
1c0212d0:	29ab90a5 	st.w	$r5,$r5,-1308(0xae4)
1c0212d4:	28ab918a 	ld.w	$r10,$r12,-1308(0xae4)
1c0212d8:	28ab9086 	ld.w	$r6,$r4,-1308(0xae4)
1c0212dc:	28ab90a4 	ld.w	$r4,$r5,-1308(0xae4)
1c0212e0:	28ab90a6 	ld.w	$r6,$r5,-1308(0xae4)
1c0212e4:	5c074d4b 	bne	$r10,$r11,1868(0x74c) # 1c021a30 <inst_error>
1c0212e8:	15213c6d 	lu12i.w	$r13,-456221(0x909e3)
1c0212ec:	029349ad 	addi.w	$r13,$r13,1234(0x4d2)
1c0212f0:	14001a6c 	lu12i.w	$r12,211(0xd3)
1c0212f4:	029f018c 	addi.w	$r12,$r12,1984(0x7c0)
1c0212f8:	15213c6b 	lu12i.w	$r11,-456221(0x909e3)
1c0212fc:	0293496b 	addi.w	$r11,$r11,1234(0x4d2)
1c021300:	29ab318d 	st.w	$r13,$r12,-1332(0xacc)
1c021304:	02801184 	addi.w	$r4,$r12,4(0x4)
1c021308:	02bfe185 	addi.w	$r5,$r12,-8(0xff8)
1c02130c:	29ab3084 	st.w	$r4,$r4,-1332(0xacc)
1c021310:	29ab30a5 	st.w	$r5,$r5,-1332(0xacc)
1c021314:	28ab318a 	ld.w	$r10,$r12,-1332(0xacc)
1c021318:	28ab3086 	ld.w	$r6,$r4,-1332(0xacc)
1c02131c:	28ab30a4 	ld.w	$r4,$r5,-1332(0xacc)
1c021320:	28ab30a6 	ld.w	$r6,$r5,-1332(0xacc)
1c021324:	5c070d4b 	bne	$r10,$r11,1804(0x70c) # 1c021a30 <inst_error>
1c021328:	1589640d 	lu12i.w	$r13,-242912(0xc4b20)
1c02132c:	02bac1ad 	addi.w	$r13,$r13,-336(0xeb0)
1c021330:	14001a2c 	lu12i.w	$r12,209(0xd1)
1c021334:	02b3e18c 	addi.w	$r12,$r12,-776(0xcf8)
1c021338:	1589640b 	lu12i.w	$r11,-242912(0xc4b20)
1c02133c:	02bac16b 	addi.w	$r11,$r11,-336(0xeb0)
1c021340:	2986218d 	st.w	$r13,$r12,392(0x188)
1c021344:	02801184 	addi.w	$r4,$r12,4(0x4)
1c021348:	02bfe185 	addi.w	$r5,$r12,-8(0xff8)
1c02134c:	29862084 	st.w	$r4,$r4,392(0x188)
1c021350:	298620a5 	st.w	$r5,$r5,392(0x188)
1c021354:	2886218a 	ld.w	$r10,$r12,392(0x188)
1c021358:	28862086 	ld.w	$r6,$r4,392(0x188)
1c02135c:	288620a4 	ld.w	$r4,$r5,392(0x188)
1c021360:	288620a6 	ld.w	$r6,$r5,392(0x188)
1c021364:	5c06cd4b 	bne	$r10,$r11,1740(0x6cc) # 1c021a30 <inst_error>
1c021368:	1596d9cd 	lu12i.w	$r13,-215346(0xcb6ce)
1c02136c:	02a301ad 	addi.w	$r13,$r13,-1856(0x8c0)
1c021370:	14001aec 	lu12i.w	$r12,215(0xd7)
1c021374:	02b6e18c 	addi.w	$r12,$r12,-584(0xdb8)
1c021378:	1596d9cb 	lu12i.w	$r11,-215346(0xcb6ce)
1c02137c:	02a3016b 	addi.w	$r11,$r11,-1856(0x8c0)
1c021380:	2989418d 	st.w	$r13,$r12,592(0x250)
1c021384:	02801184 	addi.w	$r4,$r12,4(0x4)
1c021388:	02bfe185 	addi.w	$r5,$r12,-8(0xff8)
1c02138c:	29894084 	st.w	$r4,$r4,592(0x250)
1c021390:	298940a5 	st.w	$r5,$r5,592(0x250)
1c021394:	2889418a 	ld.w	$r10,$r12,592(0x250)
1c021398:	28894086 	ld.w	$r6,$r4,592(0x250)
1c02139c:	288940a4 	ld.w	$r4,$r5,592(0x250)
1c0213a0:	288940a6 	ld.w	$r6,$r5,592(0x250)
1c0213a4:	5c068d4b 	bne	$r10,$r11,1676(0x68c) # 1c021a30 <inst_error>
1c0213a8:	14cc72ad 	lu12i.w	$r13,418709(0x66395)
1c0213ac:	02abb9ad 	addi.w	$r13,$r13,-1298(0xaee)
1c0213b0:	14001aac 	lu12i.w	$r12,213(0xd5)
1c0213b4:	0288b18c 	addi.w	$r12,$r12,556(0x22c)
1c0213b8:	14cc72ab 	lu12i.w	$r11,418709(0x66395)
1c0213bc:	02abb96b 	addi.w	$r11,$r11,-1298(0xaee)
1c0213c0:	29a7918d 	st.w	$r13,$r12,-1564(0x9e4)
1c0213c4:	02801184 	addi.w	$r4,$r12,4(0x4)
1c0213c8:	02bfe185 	addi.w	$r5,$r12,-8(0xff8)
1c0213cc:	29a79084 	st.w	$r4,$r4,-1564(0x9e4)
1c0213d0:	29a790a5 	st.w	$r5,$r5,-1564(0x9e4)
1c0213d4:	28a7918a 	ld.w	$r10,$r12,-1564(0x9e4)
1c0213d8:	28a79086 	ld.w	$r6,$r4,-1564(0x9e4)
1c0213dc:	28a790a4 	ld.w	$r4,$r5,-1564(0x9e4)
1c0213e0:	28a790a6 	ld.w	$r6,$r5,-1564(0x9e4)
1c0213e4:	5c064d4b 	bne	$r10,$r11,1612(0x64c) # 1c021a30 <inst_error>
1c0213e8:	1491a6ad 	lu12i.w	$r13,298293(0x48d35)
1c0213ec:	029791ad 	addi.w	$r13,$r13,1508(0x5e4)
1c0213f0:	14001aec 	lu12i.w	$r12,215(0xd7)
1c0213f4:	02ae418c 	addi.w	$r12,$r12,-1136(0xb90)
1c0213f8:	1491a6ab 	lu12i.w	$r11,298293(0x48d35)
1c0213fc:	0297916b 	addi.w	$r11,$r11,1508(0x5e4)
1c021400:	2993c18d 	st.w	$r13,$r12,1264(0x4f0)
1c021404:	02801184 	addi.w	$r4,$r12,4(0x4)
1c021408:	02bfe185 	addi.w	$r5,$r12,-8(0xff8)
1c02140c:	2993c084 	st.w	$r4,$r4,1264(0x4f0)
1c021410:	2993c0a5 	st.w	$r5,$r5,1264(0x4f0)
1c021414:	2893c18a 	ld.w	$r10,$r12,1264(0x4f0)
1c021418:	2893c086 	ld.w	$r6,$r4,1264(0x4f0)
1c02141c:	2893c0a4 	ld.w	$r4,$r5,1264(0x4f0)
1c021420:	2893c0a6 	ld.w	$r6,$r5,1264(0x4f0)
1c021424:	5c060d4b 	bne	$r10,$r11,1548(0x60c) # 1c021a30 <inst_error>
1c021428:	1437682d 	lu12i.w	$r13,113473(0x1bb41)
1c02142c:	02ad21ad 	addi.w	$r13,$r13,-1208(0xb48)
1c021430:	14001a6c 	lu12i.w	$r12,211(0xd3)
1c021434:	02b9b18c 	addi.w	$r12,$r12,-404(0xe6c)
1c021438:	1437682b 	lu12i.w	$r11,113473(0x1bb41)
1c02143c:	02ad216b 	addi.w	$r11,$r11,-1208(0xb48)
1c021440:	29a5a18d 	st.w	$r13,$r12,-1688(0x968)
1c021444:	02801184 	addi.w	$r4,$r12,4(0x4)
1c021448:	02bfe185 	addi.w	$r5,$r12,-8(0xff8)
1c02144c:	29a5a084 	st.w	$r4,$r4,-1688(0x968)
1c021450:	29a5a0a5 	st.w	$r5,$r5,-1688(0x968)
1c021454:	28a5a18a 	ld.w	$r10,$r12,-1688(0x968)
1c021458:	28a5a086 	ld.w	$r6,$r4,-1688(0x968)
1c02145c:	28a5a0a4 	ld.w	$r4,$r5,-1688(0x968)
1c021460:	28a5a0a6 	ld.w	$r6,$r5,-1688(0x968)
1c021464:	5c05cd4b 	bne	$r10,$r11,1484(0x5cc) # 1c021a30 <inst_error>
1c021468:	1454e92d 	lu12i.w	$r13,173897(0x2a749)
1c02146c:	02ac89ad 	addi.w	$r13,$r13,-1246(0xb22)
1c021470:	14001aec 	lu12i.w	$r12,215(0xd7)
1c021474:	0285818c 	addi.w	$r12,$r12,352(0x160)
1c021478:	1454e92b 	lu12i.w	$r11,173897(0x2a749)
1c02147c:	02ac896b 	addi.w	$r11,$r11,-1246(0xb22)
1c021480:	29a3c18d 	st.w	$r13,$r12,-1808(0x8f0)
1c021484:	02801184 	addi.w	$r4,$r12,4(0x4)
1c021488:	02bfe185 	addi.w	$r5,$r12,-8(0xff8)
1c02148c:	29a3c084 	st.w	$r4,$r4,-1808(0x8f0)
1c021490:	29a3c0a5 	st.w	$r5,$r5,-1808(0x8f0)
1c021494:	28a3c18a 	ld.w	$r10,$r12,-1808(0x8f0)
1c021498:	28a3c086 	ld.w	$r6,$r4,-1808(0x8f0)
1c02149c:	28a3c0a4 	ld.w	$r4,$r5,-1808(0x8f0)
1c0214a0:	28a3c0a6 	ld.w	$r6,$r5,-1808(0x8f0)
1c0214a4:	5c058d4b 	bne	$r10,$r11,1420(0x58c) # 1c021a30 <inst_error>
1c0214a8:	15ab9f6d 	lu12i.w	$r13,-172805(0xd5cfb)
1c0214ac:	028e51ad 	addi.w	$r13,$r13,916(0x394)
1c0214b0:	14001b0c 	lu12i.w	$r12,216(0xd8)
1c0214b4:	02bc018c 	addi.w	$r12,$r12,-256(0xf00)
1c0214b8:	15ab9f6b 	lu12i.w	$r11,-172805(0xd5cfb)
1c0214bc:	028e516b 	addi.w	$r11,$r11,916(0x394)
1c0214c0:	2980518d 	st.w	$r13,$r12,20(0x14)
1c0214c4:	02801184 	addi.w	$r4,$r12,4(0x4)
1c0214c8:	02bfe185 	addi.w	$r5,$r12,-8(0xff8)
1c0214cc:	29805084 	st.w	$r4,$r4,20(0x14)
1c0214d0:	298050a5 	st.w	$r5,$r5,20(0x14)
1c0214d4:	2880518a 	ld.w	$r10,$r12,20(0x14)
1c0214d8:	28805086 	ld.w	$r6,$r4,20(0x14)
1c0214dc:	288050a4 	ld.w	$r4,$r5,20(0x14)
1c0214e0:	288050a6 	ld.w	$r6,$r5,20(0x14)
1c0214e4:	5c054d4b 	bne	$r10,$r11,1356(0x54c) # 1c021a30 <inst_error>
1c0214e8:	14e488cd 	lu12i.w	$r13,468038(0x72446)
1c0214ec:	02b381ad 	addi.w	$r13,$r13,-800(0xce0)
1c0214f0:	14001acc 	lu12i.w	$r12,214(0xd6)
1c0214f4:	02a7918c 	addi.w	$r12,$r12,-1564(0x9e4)
1c0214f8:	14e488cb 	lu12i.w	$r11,468038(0x72446)
1c0214fc:	02b3816b 	addi.w	$r11,$r11,-800(0xce0)
1c021500:	29a4518d 	st.w	$r13,$r12,-1772(0x914)
1c021504:	02801184 	addi.w	$r4,$r12,4(0x4)
1c021508:	02bfe185 	addi.w	$r5,$r12,-8(0xff8)
1c02150c:	29a45084 	st.w	$r4,$r4,-1772(0x914)
1c021510:	29a450a5 	st.w	$r5,$r5,-1772(0x914)
1c021514:	28a4518a 	ld.w	$r10,$r12,-1772(0x914)
1c021518:	28a45086 	ld.w	$r6,$r4,-1772(0x914)
1c02151c:	28a450a4 	ld.w	$r4,$r5,-1772(0x914)
1c021520:	28a450a6 	ld.w	$r6,$r5,-1772(0x914)
1c021524:	5c050d4b 	bne	$r10,$r11,1292(0x50c) # 1c021a30 <inst_error>
1c021528:	15802e0d 	lu12i.w	$r13,-261776(0xc0170)
1c02152c:	028b39ad 	addi.w	$r13,$r13,718(0x2ce)
1c021530:	14001a0c 	lu12i.w	$r12,208(0xd0)
1c021534:	028b618c 	addi.w	$r12,$r12,728(0x2d8)
1c021538:	15802e0b 	lu12i.w	$r11,-261776(0xc0170)
1c02153c:	028b396b 	addi.w	$r11,$r11,718(0x2ce)
1c021540:	299f518d 	st.w	$r13,$r12,2004(0x7d4)
1c021544:	02801184 	addi.w	$r4,$r12,4(0x4)
1c021548:	02bfe185 	addi.w	$r5,$r12,-8(0xff8)
1c02154c:	299f5084 	st.w	$r4,$r4,2004(0x7d4)
1c021550:	299f50a5 	st.w	$r5,$r5,2004(0x7d4)
1c021554:	289f518a 	ld.w	$r10,$r12,2004(0x7d4)
1c021558:	289f5086 	ld.w	$r6,$r4,2004(0x7d4)
1c02155c:	289f50a4 	ld.w	$r4,$r5,2004(0x7d4)
1c021560:	289f50a6 	ld.w	$r6,$r5,2004(0x7d4)
1c021564:	5c04cd4b 	bne	$r10,$r11,1228(0x4cc) # 1c021a30 <inst_error>
1c021568:	154c2dad 	lu12i.w	$r13,-368275(0xa616d)
1c02156c:	0286f9ad 	addi.w	$r13,$r13,446(0x1be)
1c021570:	14001a0c 	lu12i.w	$r12,208(0xd0)
1c021574:	029fc18c 	addi.w	$r12,$r12,2032(0x7f0)
1c021578:	154c2dab 	lu12i.w	$r11,-368275(0xa616d)
1c02157c:	0286f96b 	addi.w	$r11,$r11,446(0x1be)
1c021580:	2983118d 	st.w	$r13,$r12,196(0xc4)
1c021584:	02801184 	addi.w	$r4,$r12,4(0x4)
1c021588:	02bfe185 	addi.w	$r5,$r12,-8(0xff8)
1c02158c:	29831084 	st.w	$r4,$r4,196(0xc4)
1c021590:	298310a5 	st.w	$r5,$r5,196(0xc4)
1c021594:	2883118a 	ld.w	$r10,$r12,196(0xc4)
1c021598:	28831086 	ld.w	$r6,$r4,196(0xc4)
1c02159c:	288310a4 	ld.w	$r4,$r5,196(0xc4)
1c0215a0:	288310a6 	ld.w	$r6,$r5,196(0xc4)
1c0215a4:	5c048d4b 	bne	$r10,$r11,1164(0x48c) # 1c021a30 <inst_error>
1c0215a8:	15e28aed 	lu12i.w	$r13,-60329(0xf1457)
1c0215ac:	02b655ad 	addi.w	$r13,$r13,-619(0xd95)
1c0215b0:	14001aec 	lu12i.w	$r12,215(0xd7)
1c0215b4:	029d518c 	addi.w	$r12,$r12,1876(0x754)
1c0215b8:	15e28aeb 	lu12i.w	$r11,-60329(0xf1457)
1c0215bc:	02b6556b 	addi.w	$r11,$r11,-619(0xd95)
1c0215c0:	2985618d 	st.w	$r13,$r12,344(0x158)
1c0215c4:	02801184 	addi.w	$r4,$r12,4(0x4)
1c0215c8:	02bfe185 	addi.w	$r5,$r12,-8(0xff8)
1c0215cc:	29856084 	st.w	$r4,$r4,344(0x158)
1c0215d0:	298560a5 	st.w	$r5,$r5,344(0x158)
1c0215d4:	2885618a 	ld.w	$r10,$r12,344(0x158)
1c0215d8:	28856086 	ld.w	$r6,$r4,344(0x158)
1c0215dc:	288560a4 	ld.w	$r4,$r5,344(0x158)
1c0215e0:	288560a6 	ld.w	$r6,$r5,344(0x158)
1c0215e4:	5c044d4b 	bne	$r10,$r11,1100(0x44c) # 1c021a30 <inst_error>
1c0215e8:	1573140d 	lu12i.w	$r13,-288608(0xb98a0)
1c0215ec:	029de1ad 	addi.w	$r13,$r13,1912(0x778)
1c0215f0:	14001a4c 	lu12i.w	$r12,210(0xd2)
1c0215f4:	02a9d18c 	addi.w	$r12,$r12,-1420(0xa74)
1c0215f8:	1573140b 	lu12i.w	$r11,-288608(0xb98a0)
1c0215fc:	029de16b 	addi.w	$r11,$r11,1912(0x778)
1c021600:	298c218d 	st.w	$r13,$r12,776(0x308)
1c021604:	02801184 	addi.w	$r4,$r12,4(0x4)
1c021608:	02bfe185 	addi.w	$r5,$r12,-8(0xff8)
1c02160c:	298c2084 	st.w	$r4,$r4,776(0x308)
1c021610:	298c20a5 	st.w	$r5,$r5,776(0x308)
1c021614:	288c218a 	ld.w	$r10,$r12,776(0x308)
1c021618:	288c2086 	ld.w	$r6,$r4,776(0x308)
1c02161c:	288c20a4 	ld.w	$r4,$r5,776(0x308)
1c021620:	288c20a6 	ld.w	$r6,$r5,776(0x308)
1c021624:	5c040d4b 	bne	$r10,$r11,1036(0x40c) # 1c021a30 <inst_error>
1c021628:	14ed0a6d 	lu12i.w	$r13,485459(0x76853)
1c02162c:	02b039ad 	addi.w	$r13,$r13,-1010(0xc0e)
1c021630:	14001b0c 	lu12i.w	$r12,216(0xd8)
1c021634:	02a2318c 	addi.w	$r12,$r12,-1908(0x88c)
1c021638:	14ed0a6b 	lu12i.w	$r11,485459(0x76853)
1c02163c:	02b0396b 	addi.w	$r11,$r11,-1010(0xc0e)
1c021640:	2983f18d 	st.w	$r13,$r12,252(0xfc)
1c021644:	02801184 	addi.w	$r4,$r12,4(0x4)
1c021648:	02bfe185 	addi.w	$r5,$r12,-8(0xff8)
1c02164c:	2983f084 	st.w	$r4,$r4,252(0xfc)
1c021650:	2983f0a5 	st.w	$r5,$r5,252(0xfc)
1c021654:	2883f18a 	ld.w	$r10,$r12,252(0xfc)
1c021658:	2883f086 	ld.w	$r6,$r4,252(0xfc)
1c02165c:	2883f0a4 	ld.w	$r4,$r5,252(0xfc)
1c021660:	2883f0a6 	ld.w	$r6,$r5,252(0xfc)
1c021664:	5c03cd4b 	bne	$r10,$r11,972(0x3cc) # 1c021a30 <inst_error>
1c021668:	14749ccd 	lu12i.w	$r13,238822(0x3a4e6)
1c02166c:	028ce1ad 	addi.w	$r13,$r13,824(0x338)
1c021670:	14001a0c 	lu12i.w	$r12,208(0xd0)
1c021674:	0280018c 	addi.w	$r12,$r12,0
1c021678:	14749ccb 	lu12i.w	$r11,238822(0x3a4e6)
1c02167c:	028ce16b 	addi.w	$r11,$r11,824(0x338)
1c021680:	29baa18d 	st.w	$r13,$r12,-344(0xea8)
1c021684:	02801184 	addi.w	$r4,$r12,4(0x4)
1c021688:	02bfe185 	addi.w	$r5,$r12,-8(0xff8)
1c02168c:	29baa084 	st.w	$r4,$r4,-344(0xea8)
1c021690:	29baa0a5 	st.w	$r5,$r5,-344(0xea8)
1c021694:	28baa18a 	ld.w	$r10,$r12,-344(0xea8)
1c021698:	28baa086 	ld.w	$r6,$r4,-344(0xea8)
1c02169c:	28baa0a4 	ld.w	$r4,$r5,-344(0xea8)
1c0216a0:	28baa0a6 	ld.w	$r6,$r5,-344(0xea8)
1c0216a4:	5c038d4b 	bne	$r10,$r11,908(0x38c) # 1c021a30 <inst_error>
1c0216a8:	150c4bed 	lu12i.w	$r13,-499105(0x8625f)
1c0216ac:	0290b1ad 	addi.w	$r13,$r13,1068(0x42c)
1c0216b0:	14001a0c 	lu12i.w	$r12,208(0xd0)
1c0216b4:	0280018c 	addi.w	$r12,$r12,0
1c0216b8:	150c4beb 	lu12i.w	$r11,-499105(0x8625f)
1c0216bc:	0290b16b 	addi.w	$r11,$r11,1068(0x42c)
1c0216c0:	29bf018d 	st.w	$r13,$r12,-64(0xfc0)
1c0216c4:	02801184 	addi.w	$r4,$r12,4(0x4)
1c0216c8:	02bfe185 	addi.w	$r5,$r12,-8(0xff8)
1c0216cc:	29bf0084 	st.w	$r4,$r4,-64(0xfc0)
1c0216d0:	29bf00a5 	st.w	$r5,$r5,-64(0xfc0)
1c0216d4:	28bf018a 	ld.w	$r10,$r12,-64(0xfc0)
1c0216d8:	28bf0086 	ld.w	$r6,$r4,-64(0xfc0)
1c0216dc:	28bf00a4 	ld.w	$r4,$r5,-64(0xfc0)
1c0216e0:	28bf00a6 	ld.w	$r6,$r5,-64(0xfc0)
1c0216e4:	5c034d4b 	bne	$r10,$r11,844(0x34c) # 1c021a30 <inst_error>
1c0216e8:	142c482d 	lu12i.w	$r13,90689(0x16241)
1c0216ec:	02b681ad 	addi.w	$r13,$r13,-608(0xda0)
1c0216f0:	14001a0c 	lu12i.w	$r12,208(0xd0)
1c0216f4:	0280018c 	addi.w	$r12,$r12,0
1c0216f8:	142c482b 	lu12i.w	$r11,90689(0x16241)
1c0216fc:	02b6816b 	addi.w	$r11,$r11,-608(0xda0)
1c021700:	29bf118d 	st.w	$r13,$r12,-60(0xfc4)
1c021704:	02801184 	addi.w	$r4,$r12,4(0x4)
1c021708:	02bfe185 	addi.w	$r5,$r12,-8(0xff8)
1c02170c:	29bf1084 	st.w	$r4,$r4,-60(0xfc4)
1c021710:	29bf10a5 	st.w	$r5,$r5,-60(0xfc4)
1c021714:	28bf118a 	ld.w	$r10,$r12,-60(0xfc4)
1c021718:	28bf1086 	ld.w	$r6,$r4,-60(0xfc4)
1c02171c:	28bf10a4 	ld.w	$r4,$r5,-60(0xfc4)
1c021720:	28bf10a6 	ld.w	$r6,$r5,-60(0xfc4)
1c021724:	5c030d4b 	bne	$r10,$r11,780(0x30c) # 1c021a30 <inst_error>
1c021728:	1464b4ad 	lu12i.w	$r13,206245(0x325a5)
1c02172c:	028b31ad 	addi.w	$r13,$r13,716(0x2cc)
1c021730:	14001a0c 	lu12i.w	$r12,208(0xd0)
1c021734:	0280018c 	addi.w	$r12,$r12,0
1c021738:	1464b4ab 	lu12i.w	$r11,206245(0x325a5)
1c02173c:	028b316b 	addi.w	$r11,$r11,716(0x2cc)
1c021740:	2984418d 	st.w	$r13,$r12,272(0x110)
1c021744:	02801184 	addi.w	$r4,$r12,4(0x4)
1c021748:	02bfe185 	addi.w	$r5,$r12,-8(0xff8)
1c02174c:	29844084 	st.w	$r4,$r4,272(0x110)
1c021750:	298440a5 	st.w	$r5,$r5,272(0x110)
1c021754:	2884418a 	ld.w	$r10,$r12,272(0x110)
1c021758:	28844086 	ld.w	$r6,$r4,272(0x110)
1c02175c:	288440a4 	ld.w	$r4,$r5,272(0x110)
1c021760:	288440a6 	ld.w	$r6,$r5,272(0x110)
1c021764:	5c02cd4b 	bne	$r10,$r11,716(0x2cc) # 1c021a30 <inst_error>
1c021768:	1509198d 	lu12i.w	$r13,-505652(0x848cc)
1c02176c:	02ab7dad 	addi.w	$r13,$r13,-1313(0xadf)
1c021770:	14001a0c 	lu12i.w	$r12,208(0xd0)
1c021774:	0280018c 	addi.w	$r12,$r12,0
1c021778:	1509198b 	lu12i.w	$r11,-505652(0x848cc)
1c02177c:	02ab7d6b 	addi.w	$r11,$r11,-1313(0xadf)
1c021780:	2980a18d 	st.w	$r13,$r12,40(0x28)
1c021784:	02801184 	addi.w	$r4,$r12,4(0x4)
1c021788:	02bfe185 	addi.w	$r5,$r12,-8(0xff8)
1c02178c:	2980a084 	st.w	$r4,$r4,40(0x28)
1c021790:	2980a0a5 	st.w	$r5,$r5,40(0x28)
1c021794:	2880a18a 	ld.w	$r10,$r12,40(0x28)
1c021798:	2880a086 	ld.w	$r6,$r4,40(0x28)
1c02179c:	2880a0a4 	ld.w	$r4,$r5,40(0x28)
1c0217a0:	2880a0a6 	ld.w	$r6,$r5,40(0x28)
1c0217a4:	5c028d4b 	bne	$r10,$r11,652(0x28c) # 1c021a30 <inst_error>
1c0217a8:	152ad2cd 	lu12i.w	$r13,-436586(0x95696)
1c0217ac:	028e01ad 	addi.w	$r13,$r13,896(0x380)
1c0217b0:	14001a0c 	lu12i.w	$r12,208(0xd0)
1c0217b4:	0280018c 	addi.w	$r12,$r12,0
1c0217b8:	152ad2cb 	lu12i.w	$r11,-436586(0x95696)
1c0217bc:	028e016b 	addi.w	$r11,$r11,896(0x380)
1c0217c0:	29b8818d 	st.w	$r13,$r12,-480(0xe20)
1c0217c4:	02801184 	addi.w	$r4,$r12,4(0x4)
1c0217c8:	02bfe185 	addi.w	$r5,$r12,-8(0xff8)
1c0217cc:	29b88084 	st.w	$r4,$r4,-480(0xe20)
1c0217d0:	29b880a5 	st.w	$r5,$r5,-480(0xe20)
1c0217d4:	28b8818a 	ld.w	$r10,$r12,-480(0xe20)
1c0217d8:	28b88086 	ld.w	$r6,$r4,-480(0xe20)
1c0217dc:	28b880a4 	ld.w	$r4,$r5,-480(0xe20)
1c0217e0:	28b880a6 	ld.w	$r6,$r5,-480(0xe20)
1c0217e4:	5c024d4b 	bne	$r10,$r11,588(0x24c) # 1c021a30 <inst_error>
1c0217e8:	159ebf0d 	lu12i.w	$r13,-199176(0xcf5f8)
1c0217ec:	02bb01ad 	addi.w	$r13,$r13,-320(0xec0)
1c0217f0:	14001a0c 	lu12i.w	$r12,208(0xd0)
1c0217f4:	0280018c 	addi.w	$r12,$r12,0
1c0217f8:	159ebf0b 	lu12i.w	$r11,-199176(0xcf5f8)
1c0217fc:	02bb016b 	addi.w	$r11,$r11,-320(0xec0)
1c021800:	29b6318d 	st.w	$r13,$r12,-628(0xd8c)
1c021804:	02801184 	addi.w	$r4,$r12,4(0x4)
1c021808:	02bfe185 	addi.w	$r5,$r12,-8(0xff8)
1c02180c:	29b63084 	st.w	$r4,$r4,-628(0xd8c)
1c021810:	29b630a5 	st.w	$r5,$r5,-628(0xd8c)
1c021814:	28b6318a 	ld.w	$r10,$r12,-628(0xd8c)
1c021818:	28b63086 	ld.w	$r6,$r4,-628(0xd8c)
1c02181c:	28b630a4 	ld.w	$r4,$r5,-628(0xd8c)
1c021820:	28b630a6 	ld.w	$r6,$r5,-628(0xd8c)
1c021824:	5c020d4b 	bne	$r10,$r11,524(0x20c) # 1c021a30 <inst_error>
1c021828:	15055ced 	lu12i.w	$r13,-513305(0x82ae7)
1c02182c:	028341ad 	addi.w	$r13,$r13,208(0xd0)
1c021830:	14001a0c 	lu12i.w	$r12,208(0xd0)
1c021834:	0280018c 	addi.w	$r12,$r12,0
1c021838:	15055ceb 	lu12i.w	$r11,-513305(0x82ae7)
1c02183c:	0283416b 	addi.w	$r11,$r11,208(0xd0)
1c021840:	2988918d 	st.w	$r13,$r12,548(0x224)
1c021844:	02801184 	addi.w	$r4,$r12,4(0x4)
1c021848:	02bfe185 	addi.w	$r5,$r12,-8(0xff8)
1c02184c:	29889084 	st.w	$r4,$r4,548(0x224)
1c021850:	298890a5 	st.w	$r5,$r5,548(0x224)
1c021854:	2888918a 	ld.w	$r10,$r12,548(0x224)
1c021858:	28889086 	ld.w	$r6,$r4,548(0x224)
1c02185c:	288890a4 	ld.w	$r4,$r5,548(0x224)
1c021860:	288890a6 	ld.w	$r6,$r5,548(0x224)
1c021864:	5c01cd4b 	bne	$r10,$r11,460(0x1cc) # 1c021a30 <inst_error>
1c021868:	1586a94d 	lu12i.w	$r13,-248502(0xc354a)
1c02186c:	029981ad 	addi.w	$r13,$r13,1632(0x660)
1c021870:	14001a0c 	lu12i.w	$r12,208(0xd0)
1c021874:	0280018c 	addi.w	$r12,$r12,0
1c021878:	1586a94b 	lu12i.w	$r11,-248502(0xc354a)
1c02187c:	0299816b 	addi.w	$r11,$r11,1632(0x660)
1c021880:	299bc18d 	st.w	$r13,$r12,1776(0x6f0)
1c021884:	02801184 	addi.w	$r4,$r12,4(0x4)
1c021888:	02bfe185 	addi.w	$r5,$r12,-8(0xff8)
1c02188c:	299bc084 	st.w	$r4,$r4,1776(0x6f0)
1c021890:	299bc0a5 	st.w	$r5,$r5,1776(0x6f0)
1c021894:	289bc18a 	ld.w	$r10,$r12,1776(0x6f0)
1c021898:	289bc086 	ld.w	$r6,$r4,1776(0x6f0)
1c02189c:	289bc0a4 	ld.w	$r4,$r5,1776(0x6f0)
1c0218a0:	289bc0a6 	ld.w	$r6,$r5,1776(0x6f0)
1c0218a4:	5c018d4b 	bne	$r10,$r11,396(0x18c) # 1c021a30 <inst_error>
1c0218a8:	14cd472d 	lu12i.w	$r13,420409(0x66a39)
1c0218ac:	02b6d1ad 	addi.w	$r13,$r13,-588(0xdb4)
1c0218b0:	14001a0c 	lu12i.w	$r12,208(0xd0)
1c0218b4:	0280018c 	addi.w	$r12,$r12,0
1c0218b8:	14cd472b 	lu12i.w	$r11,420409(0x66a39)
1c0218bc:	02b6d16b 	addi.w	$r11,$r11,-588(0xdb4)
1c0218c0:	2988c18d 	st.w	$r13,$r12,560(0x230)
1c0218c4:	02801184 	addi.w	$r4,$r12,4(0x4)
1c0218c8:	02bfe185 	addi.w	$r5,$r12,-8(0xff8)
1c0218cc:	2988c084 	st.w	$r4,$r4,560(0x230)
1c0218d0:	2988c0a5 	st.w	$r5,$r5,560(0x230)
1c0218d4:	2888c18a 	ld.w	$r10,$r12,560(0x230)
1c0218d8:	2888c086 	ld.w	$r6,$r4,560(0x230)
1c0218dc:	2888c0a4 	ld.w	$r4,$r5,560(0x230)
1c0218e0:	2888c0a6 	ld.w	$r6,$r5,560(0x230)
1c0218e4:	5c014d4b 	bne	$r10,$r11,332(0x14c) # 1c021a30 <inst_error>
1c0218e8:	1426c92d 	lu12i.w	$r13,79433(0x13649)
1c0218ec:	0280c1ad 	addi.w	$r13,$r13,48(0x30)
1c0218f0:	14001a0c 	lu12i.w	$r12,208(0xd0)
1c0218f4:	0280018c 	addi.w	$r12,$r12,0
1c0218f8:	1426c92b 	lu12i.w	$r11,79433(0x13649)
1c0218fc:	0280c16b 	addi.w	$r11,$r11,48(0x30)
1c021900:	2997118d 	st.w	$r13,$r12,1476(0x5c4)
1c021904:	02801184 	addi.w	$r4,$r12,4(0x4)
1c021908:	02bfe185 	addi.w	$r5,$r12,-8(0xff8)
1c02190c:	29971084 	st.w	$r4,$r4,1476(0x5c4)
1c021910:	299710a5 	st.w	$r5,$r5,1476(0x5c4)
1c021914:	2897118a 	ld.w	$r10,$r12,1476(0x5c4)
1c021918:	28971086 	ld.w	$r6,$r4,1476(0x5c4)
1c02191c:	289710a4 	ld.w	$r4,$r5,1476(0x5c4)
1c021920:	289710a6 	ld.w	$r6,$r5,1476(0x5c4)
1c021924:	5c010d4b 	bne	$r10,$r11,268(0x10c) # 1c021a30 <inst_error>
1c021928:	156feced 	lu12i.w	$r13,-295065(0xb7f67)
1c02192c:	02b891ad 	addi.w	$r13,$r13,-476(0xe24)
1c021930:	14001a0c 	lu12i.w	$r12,208(0xd0)
1c021934:	0280018c 	addi.w	$r12,$r12,0
1c021938:	156feceb 	lu12i.w	$r11,-295065(0xb7f67)
1c02193c:	02b8916b 	addi.w	$r11,$r11,-476(0xe24)
1c021940:	298ac18d 	st.w	$r13,$r12,688(0x2b0)
1c021944:	02801184 	addi.w	$r4,$r12,4(0x4)
1c021948:	02bfe185 	addi.w	$r5,$r12,-8(0xff8)
1c02194c:	298ac084 	st.w	$r4,$r4,688(0x2b0)
1c021950:	298ac0a5 	st.w	$r5,$r5,688(0x2b0)
1c021954:	288ac18a 	ld.w	$r10,$r12,688(0x2b0)
1c021958:	288ac086 	ld.w	$r6,$r4,688(0x2b0)
1c02195c:	288ac0a4 	ld.w	$r4,$r5,688(0x2b0)
1c021960:	288ac0a6 	ld.w	$r6,$r5,688(0x2b0)
1c021964:	5c00cd4b 	bne	$r10,$r11,204(0xcc) # 1c021a30 <inst_error>
1c021968:	1584d14d 	lu12i.w	$r13,-252278(0xc268a)
1c02196c:	029051ad 	addi.w	$r13,$r13,1044(0x414)
1c021970:	14001a0c 	lu12i.w	$r12,208(0xd0)
1c021974:	0280018c 	addi.w	$r12,$r12,0
1c021978:	1584d14b 	lu12i.w	$r11,-252278(0xc268a)
1c02197c:	0290516b 	addi.w	$r11,$r11,1044(0x414)
1c021980:	2997018d 	st.w	$r13,$r12,1472(0x5c0)
1c021984:	02801184 	addi.w	$r4,$r12,4(0x4)
1c021988:	02bfe185 	addi.w	$r5,$r12,-8(0xff8)
1c02198c:	29970084 	st.w	$r4,$r4,1472(0x5c0)
1c021990:	299700a5 	st.w	$r5,$r5,1472(0x5c0)
1c021994:	2897018a 	ld.w	$r10,$r12,1472(0x5c0)
1c021998:	28970086 	ld.w	$r6,$r4,1472(0x5c0)
1c02199c:	289700a4 	ld.w	$r4,$r5,1472(0x5c0)
1c0219a0:	289700a6 	ld.w	$r6,$r5,1472(0x5c0)
1c0219a4:	5c008d4b 	bne	$r10,$r11,140(0x8c) # 1c021a30 <inst_error>
1c0219a8:	1420408d 	lu12i.w	$r13,66052(0x10204)
1c0219ac:	02938dad 	addi.w	$r13,$r13,1251(0x4e3)
1c0219b0:	14001a0c 	lu12i.w	$r12,208(0xd0)
1c0219b4:	0280018c 	addi.w	$r12,$r12,0
1c0219b8:	1420408b 	lu12i.w	$r11,66052(0x10204)
1c0219bc:	02938d6b 	addi.w	$r11,$r11,1251(0x4e3)
1c0219c0:	298c318d 	st.w	$r13,$r12,780(0x30c)
1c0219c4:	02801184 	addi.w	$r4,$r12,4(0x4)
1c0219c8:	02bfe185 	addi.w	$r5,$r12,-8(0xff8)
1c0219cc:	298c3084 	st.w	$r4,$r4,780(0x30c)
1c0219d0:	298c30a5 	st.w	$r5,$r5,780(0x30c)
1c0219d4:	288c318a 	ld.w	$r10,$r12,780(0x30c)
1c0219d8:	288c3086 	ld.w	$r6,$r4,780(0x30c)
1c0219dc:	288c30a4 	ld.w	$r4,$r5,780(0x30c)
1c0219e0:	288c30a6 	ld.w	$r6,$r5,780(0x30c)
1c0219e4:	5c004d4b 	bne	$r10,$r11,76(0x4c) # 1c021a30 <inst_error>
1c0219e8:	15fe1e4d 	lu12i.w	$r13,-3854(0xff0f2)
1c0219ec:	02817dad 	addi.w	$r13,$r13,95(0x5f)
1c0219f0:	14001a0c 	lu12i.w	$r12,208(0xd0)
1c0219f4:	0280018c 	addi.w	$r12,$r12,0
1c0219f8:	15fe1e4b 	lu12i.w	$r11,-3854(0xff0f2)
1c0219fc:	02817d6b 	addi.w	$r11,$r11,95(0x5f)
1c021a00:	299f818d 	st.w	$r13,$r12,2016(0x7e0)
1c021a04:	02801184 	addi.w	$r4,$r12,4(0x4)
1c021a08:	02bfe185 	addi.w	$r5,$r12,-8(0xff8)
1c021a0c:	299f8084 	st.w	$r4,$r4,2016(0x7e0)
1c021a10:	299f80a5 	st.w	$r5,$r5,2016(0x7e0)
1c021a14:	289f818a 	ld.w	$r10,$r12,2016(0x7e0)
1c021a18:	289f8086 	ld.w	$r6,$r4,2016(0x7e0)
1c021a1c:	289f80a4 	ld.w	$r4,$r5,2016(0x7e0)
1c021a20:	289f80a6 	ld.w	$r6,$r5,2016(0x7e0)
1c021a24:	5c000d4b 	bne	$r10,$r11,12(0xc) # 1c021a30 <inst_error>
1c021a28:	5c000b20 	bne	$r25,$r0,8(0x8) # 1c021a30 <inst_error>
1c021a2c:	0280075a 	addi.w	$r26,$r26,1(0x1)

1c021a30 <inst_error>:
1c021a30:	0040e2ed 	slli.w	$r13,$r23,0x18
1c021a34:	001569ac 	or	$r12,$r13,$r26
1c021a38:	2980030c 	st.w	$r12,$r24,0
1c021a3c:	4c000020 	jirl	$r0,$r1,0

1c021a40 <n15_st_w_test>:
n15_st_w_test():
1c021a40:	028006f7 	addi.w	$r23,$r23,1(0x1)
1c021a44:	00150019 	move	$r25,$r0
1c021a48:	14c2ea8d 	lu12i.w	$r13,399188(0x61754)
1c021a4c:	02910dad 	addi.w	$r13,$r13,1091(0x443)
1c021a50:	14001aec 	lu12i.w	$r12,215(0xd7)
1c021a54:	029e818c 	addi.w	$r12,$r12,1952(0x7a0)
1c021a58:	14c2ea8b 	lu12i.w	$r11,399188(0x61754)
1c021a5c:	02910d6b 	addi.w	$r11,$r11,1091(0x443)
1c021a60:	299c518d 	st.w	$r13,$r12,1812(0x714)
1c021a64:	02801184 	addi.w	$r4,$r12,4(0x4)
1c021a68:	02bff185 	addi.w	$r5,$r12,-4(0xffc)
1c021a6c:	299c5084 	st.w	$r4,$r4,1812(0x714)
1c021a70:	299c50a5 	st.w	$r5,$r5,1812(0x714)
1c021a74:	289c518a 	ld.w	$r10,$r12,1812(0x714)
1c021a78:	289c5086 	ld.w	$r6,$r4,1812(0x714)
1c021a7c:	289c50a4 	ld.w	$r4,$r5,1812(0x714)
1c021a80:	289c50a6 	ld.w	$r6,$r5,1812(0x714)
1c021a84:	5c08cd4b 	bne	$r10,$r11,2252(0x8cc) # 1c022350 <inst_error>
1c021a88:	14b89f6d 	lu12i.w	$r13,378107(0x5c4fb)
1c021a8c:	029169ad 	addi.w	$r13,$r13,1114(0x45a)
1c021a90:	14001aac 	lu12i.w	$r12,213(0xd5)
1c021a94:	02aab18c 	addi.w	$r12,$r12,-1364(0xaac)
1c021a98:	14b89f6b 	lu12i.w	$r11,378107(0x5c4fb)
1c021a9c:	0291696b 	addi.w	$r11,$r11,1114(0x45a)
1c021aa0:	299db18d 	st.w	$r13,$r12,1900(0x76c)
1c021aa4:	02801184 	addi.w	$r4,$r12,4(0x4)
1c021aa8:	02bff185 	addi.w	$r5,$r12,-4(0xffc)
1c021aac:	299db084 	st.w	$r4,$r4,1900(0x76c)
1c021ab0:	299db0a5 	st.w	$r5,$r5,1900(0x76c)
1c021ab4:	289db18a 	ld.w	$r10,$r12,1900(0x76c)
1c021ab8:	289db086 	ld.w	$r6,$r4,1900(0x76c)
1c021abc:	289db0a4 	ld.w	$r4,$r5,1900(0x76c)
1c021ac0:	289db0a6 	ld.w	$r6,$r5,1900(0x76c)
1c021ac4:	5c088d4b 	bne	$r10,$r11,2188(0x88c) # 1c022350 <inst_error>
1c021ac8:	1429210d 	lu12i.w	$r13,84232(0x14908)
1c021acc:	028c01ad 	addi.w	$r13,$r13,768(0x300)
1c021ad0:	14001aac 	lu12i.w	$r12,213(0xd5)
1c021ad4:	02aba18c 	addi.w	$r12,$r12,-1304(0xae8)
1c021ad8:	1429210b 	lu12i.w	$r11,84232(0x14908)
1c021adc:	028c016b 	addi.w	$r11,$r11,768(0x300)
1c021ae0:	2997618d 	st.w	$r13,$r12,1496(0x5d8)
1c021ae4:	02801184 	addi.w	$r4,$r12,4(0x4)
1c021ae8:	02bff185 	addi.w	$r5,$r12,-4(0xffc)
1c021aec:	29976084 	st.w	$r4,$r4,1496(0x5d8)
1c021af0:	299760a5 	st.w	$r5,$r5,1496(0x5d8)
1c021af4:	2897618a 	ld.w	$r10,$r12,1496(0x5d8)
1c021af8:	28976086 	ld.w	$r6,$r4,1496(0x5d8)
1c021afc:	289760a4 	ld.w	$r4,$r5,1496(0x5d8)
1c021b00:	289760a6 	ld.w	$r6,$r5,1496(0x5d8)
1c021b04:	5c084d4b 	bne	$r10,$r11,2124(0x84c) # 1c022350 <inst_error>
1c021b08:	14a2db4d 	lu12i.w	$r13,333530(0x516da)
1c021b0c:	029ce5ad 	addi.w	$r13,$r13,1849(0x739)
1c021b10:	14001acc 	lu12i.w	$r12,214(0xd6)
1c021b14:	0283318c 	addi.w	$r12,$r12,204(0xcc)
1c021b18:	14a2db4b 	lu12i.w	$r11,333530(0x516da)
1c021b1c:	029ce56b 	addi.w	$r11,$r11,1849(0x739)
1c021b20:	29a1418d 	st.w	$r13,$r12,-1968(0x850)
1c021b24:	02801184 	addi.w	$r4,$r12,4(0x4)
1c021b28:	02bff185 	addi.w	$r5,$r12,-4(0xffc)
1c021b2c:	29a14084 	st.w	$r4,$r4,-1968(0x850)
1c021b30:	29a140a5 	st.w	$r5,$r5,-1968(0x850)
1c021b34:	28a1418a 	ld.w	$r10,$r12,-1968(0x850)
1c021b38:	28a14086 	ld.w	$r6,$r4,-1968(0x850)
1c021b3c:	28a140a4 	ld.w	$r4,$r5,-1968(0x850)
1c021b40:	28a140a6 	ld.w	$r6,$r5,-1968(0x850)
1c021b44:	5c080d4b 	bne	$r10,$r11,2060(0x80c) # 1c022350 <inst_error>
1c021b48:	150acecd 	lu12i.w	$r13,-502154(0x85676)
1c021b4c:	02a8d1ad 	addi.w	$r13,$r13,-1484(0xa34)
1c021b50:	14001aac 	lu12i.w	$r12,213(0xd5)
1c021b54:	0294418c 	addi.w	$r12,$r12,1296(0x510)
1c021b58:	150acecb 	lu12i.w	$r11,-502154(0x85676)
1c021b5c:	02a8d16b 	addi.w	$r11,$r11,-1484(0xa34)
1c021b60:	298ec18d 	st.w	$r13,$r12,944(0x3b0)
1c021b64:	02801184 	addi.w	$r4,$r12,4(0x4)
1c021b68:	02bff185 	addi.w	$r5,$r12,-4(0xffc)
1c021b6c:	298ec084 	st.w	$r4,$r4,944(0x3b0)
1c021b70:	298ec0a5 	st.w	$r5,$r5,944(0x3b0)
1c021b74:	288ec18a 	ld.w	$r10,$r12,944(0x3b0)
1c021b78:	288ec086 	ld.w	$r6,$r4,944(0x3b0)
1c021b7c:	288ec0a4 	ld.w	$r4,$r5,944(0x3b0)
1c021b80:	288ec0a6 	ld.w	$r6,$r5,944(0x3b0)
1c021b84:	5c07cd4b 	bne	$r10,$r11,1996(0x7cc) # 1c022350 <inst_error>
1c021b88:	141c9b6d 	lu12i.w	$r13,58587(0xe4db)
1c021b8c:	02b261ad 	addi.w	$r13,$r13,-872(0xc98)
1c021b90:	14001b6c 	lu12i.w	$r12,219(0xdb)
1c021b94:	0281018c 	addi.w	$r12,$r12,64(0x40)
1c021b98:	141c9b6b 	lu12i.w	$r11,58587(0xe4db)
1c021b9c:	02b2616b 	addi.w	$r11,$r11,-872(0xc98)
1c021ba0:	2990018d 	st.w	$r13,$r12,1024(0x400)
1c021ba4:	02801184 	addi.w	$r4,$r12,4(0x4)
1c021ba8:	02bff185 	addi.w	$r5,$r12,-4(0xffc)
1c021bac:	29900084 	st.w	$r4,$r4,1024(0x400)
1c021bb0:	299000a5 	st.w	$r5,$r5,1024(0x400)
1c021bb4:	2890018a 	ld.w	$r10,$r12,1024(0x400)
1c021bb8:	28900086 	ld.w	$r6,$r4,1024(0x400)
1c021bbc:	289000a4 	ld.w	$r4,$r5,1024(0x400)
1c021bc0:	289000a6 	ld.w	$r6,$r5,1024(0x400)
1c021bc4:	5c078d4b 	bne	$r10,$r11,1932(0x78c) # 1c022350 <inst_error>
1c021bc8:	15b38ded 	lu12i.w	$r13,-156561(0xd9c6f)
1c021bcc:	02b76dad 	addi.w	$r13,$r13,-549(0xddb)
1c021bd0:	14001aec 	lu12i.w	$r12,215(0xd7)
1c021bd4:	0286018c 	addi.w	$r12,$r12,384(0x180)
1c021bd8:	15b38deb 	lu12i.w	$r11,-156561(0xd9c6f)
1c021bdc:	02b76d6b 	addi.w	$r11,$r11,-549(0xddb)
1c021be0:	298b818d 	st.w	$r13,$r12,736(0x2e0)
1c021be4:	02801184 	addi.w	$r4,$r12,4(0x4)
1c021be8:	02bff185 	addi.w	$r5,$r12,-4(0xffc)
1c021bec:	298b8084 	st.w	$r4,$r4,736(0x2e0)
1c021bf0:	298b80a5 	st.w	$r5,$r5,736(0x2e0)
1c021bf4:	288b818a 	ld.w	$r10,$r12,736(0x2e0)
1c021bf8:	288b8086 	ld.w	$r6,$r4,736(0x2e0)
1c021bfc:	288b80a4 	ld.w	$r4,$r5,736(0x2e0)
1c021c00:	288b80a6 	ld.w	$r6,$r5,736(0x2e0)
1c021c04:	5c074d4b 	bne	$r10,$r11,1868(0x74c) # 1c022350 <inst_error>
1c021c08:	14aea7cd 	lu12i.w	$r13,357694(0x5753e)
1c021c0c:	02b405ad 	addi.w	$r13,$r13,-767(0xd01)
1c021c10:	14001a6c 	lu12i.w	$r12,211(0xd3)
1c021c14:	02b2818c 	addi.w	$r12,$r12,-864(0xca0)
1c021c18:	14aea7cb 	lu12i.w	$r11,357694(0x5753e)
1c021c1c:	02b4056b 	addi.w	$r11,$r11,-767(0xd01)
1c021c20:	298a018d 	st.w	$r13,$r12,640(0x280)
1c021c24:	02801184 	addi.w	$r4,$r12,4(0x4)
1c021c28:	02bff185 	addi.w	$r5,$r12,-4(0xffc)
1c021c2c:	298a0084 	st.w	$r4,$r4,640(0x280)
1c021c30:	298a00a5 	st.w	$r5,$r5,640(0x280)
1c021c34:	288a018a 	ld.w	$r10,$r12,640(0x280)
1c021c38:	288a0086 	ld.w	$r6,$r4,640(0x280)
1c021c3c:	288a00a4 	ld.w	$r4,$r5,640(0x280)
1c021c40:	288a00a6 	ld.w	$r6,$r5,640(0x280)
1c021c44:	5c070d4b 	bne	$r10,$r11,1804(0x70c) # 1c022350 <inst_error>
1c021c48:	15ca878d 	lu12i.w	$r13,-109508(0xe543c)
1c021c4c:	02a7cdad 	addi.w	$r13,$r13,-1549(0x9f3)
1c021c50:	14001a6c 	lu12i.w	$r12,211(0xd3)
1c021c54:	028c718c 	addi.w	$r12,$r12,796(0x31c)
1c021c58:	15ca878b 	lu12i.w	$r11,-109508(0xe543c)
1c021c5c:	02a7cd6b 	addi.w	$r11,$r11,-1549(0x9f3)
1c021c60:	299ae18d 	st.w	$r13,$r12,1720(0x6b8)
1c021c64:	02801184 	addi.w	$r4,$r12,4(0x4)
1c021c68:	02bff185 	addi.w	$r5,$r12,-4(0xffc)
1c021c6c:	299ae084 	st.w	$r4,$r4,1720(0x6b8)
1c021c70:	299ae0a5 	st.w	$r5,$r5,1720(0x6b8)
1c021c74:	289ae18a 	ld.w	$r10,$r12,1720(0x6b8)
1c021c78:	289ae086 	ld.w	$r6,$r4,1720(0x6b8)
1c021c7c:	289ae0a4 	ld.w	$r4,$r5,1720(0x6b8)
1c021c80:	289ae0a6 	ld.w	$r6,$r5,1720(0x6b8)
1c021c84:	5c06cd4b 	bne	$r10,$r11,1740(0x6cc) # 1c022350 <inst_error>
1c021c88:	148e4d6d 	lu12i.w	$r13,291435(0x4726b)
1c021c8c:	02b289ad 	addi.w	$r13,$r13,-862(0xca2)
1c021c90:	14001aec 	lu12i.w	$r12,215(0xd7)
1c021c94:	02b3e18c 	addi.w	$r12,$r12,-776(0xcf8)
1c021c98:	148e4d6b 	lu12i.w	$r11,291435(0x4726b)
1c021c9c:	02b2896b 	addi.w	$r11,$r11,-862(0xca2)
1c021ca0:	2995c18d 	st.w	$r13,$r12,1392(0x570)
1c021ca4:	02801184 	addi.w	$r4,$r12,4(0x4)
1c021ca8:	02bff185 	addi.w	$r5,$r12,-4(0xffc)
1c021cac:	2995c084 	st.w	$r4,$r4,1392(0x570)
1c021cb0:	2995c0a5 	st.w	$r5,$r5,1392(0x570)
1c021cb4:	2895c18a 	ld.w	$r10,$r12,1392(0x570)
1c021cb8:	2895c086 	ld.w	$r6,$r4,1392(0x570)
1c021cbc:	2895c0a4 	ld.w	$r4,$r5,1392(0x570)
1c021cc0:	2895c0a6 	ld.w	$r6,$r5,1392(0x570)
1c021cc4:	5c068d4b 	bne	$r10,$r11,1676(0x68c) # 1c022350 <inst_error>
1c021cc8:	1560440d 	lu12i.w	$r13,-327136(0xb0220)
1c021ccc:	029029ad 	addi.w	$r13,$r13,1034(0x40a)
1c021cd0:	14001a2c 	lu12i.w	$r12,209(0xd1)
1c021cd4:	02a0018c 	addi.w	$r12,$r12,-2048(0x800)
1c021cd8:	1560440b 	lu12i.w	$r11,-327136(0xb0220)
1c021cdc:	0290296b 	addi.w	$r11,$r11,1034(0x40a)
1c021ce0:	29a9b18d 	st.w	$r13,$r12,-1428(0xa6c)
1c021ce4:	02801184 	addi.w	$r4,$r12,4(0x4)
1c021ce8:	02bff185 	addi.w	$r5,$r12,-4(0xffc)
1c021cec:	29a9b084 	st.w	$r4,$r4,-1428(0xa6c)
1c021cf0:	29a9b0a5 	st.w	$r5,$r5,-1428(0xa6c)
1c021cf4:	28a9b18a 	ld.w	$r10,$r12,-1428(0xa6c)
1c021cf8:	28a9b086 	ld.w	$r6,$r4,-1428(0xa6c)
1c021cfc:	28a9b0a4 	ld.w	$r4,$r5,-1428(0xa6c)
1c021d00:	28a9b0a6 	ld.w	$r6,$r5,-1428(0xa6c)
1c021d04:	5c064d4b 	bne	$r10,$r11,1612(0x64c) # 1c022350 <inst_error>
1c021d08:	14b9420d 	lu12i.w	$r13,379408(0x5ca10)
1c021d0c:	02b401ad 	addi.w	$r13,$r13,-768(0xd00)
1c021d10:	14001b4c 	lu12i.w	$r12,218(0xda)
1c021d14:	02a0d18c 	addi.w	$r12,$r12,-1996(0x834)
1c021d18:	14b9420b 	lu12i.w	$r11,379408(0x5ca10)
1c021d1c:	02b4016b 	addi.w	$r11,$r11,-768(0xd00)
1c021d20:	2995c18d 	st.w	$r13,$r12,1392(0x570)
1c021d24:	02801184 	addi.w	$r4,$r12,4(0x4)
1c021d28:	02bff185 	addi.w	$r5,$r12,-4(0xffc)
1c021d2c:	2995c084 	st.w	$r4,$r4,1392(0x570)
1c021d30:	2995c0a5 	st.w	$r5,$r5,1392(0x570)
1c021d34:	2895c18a 	ld.w	$r10,$r12,1392(0x570)
1c021d38:	2895c086 	ld.w	$r6,$r4,1392(0x570)
1c021d3c:	2895c0a4 	ld.w	$r4,$r5,1392(0x570)
1c021d40:	2895c0a6 	ld.w	$r6,$r5,1392(0x570)
1c021d44:	5c060d4b 	bne	$r10,$r11,1548(0x60c) # 1c022350 <inst_error>
1c021d48:	140c774d 	lu12i.w	$r13,25530(0x63ba)
1c021d4c:	028001ad 	addi.w	$r13,$r13,0
1c021d50:	14001a4c 	lu12i.w	$r12,210(0xd2)
1c021d54:	02b1918c 	addi.w	$r12,$r12,-924(0xc64)
1c021d58:	140c774b 	lu12i.w	$r11,25530(0x63ba)
1c021d5c:	0280016b 	addi.w	$r11,$r11,0
1c021d60:	2993f18d 	st.w	$r13,$r12,1276(0x4fc)
1c021d64:	02801184 	addi.w	$r4,$r12,4(0x4)
1c021d68:	02bff185 	addi.w	$r5,$r12,-4(0xffc)
1c021d6c:	2993f084 	st.w	$r4,$r4,1276(0x4fc)
1c021d70:	2993f0a5 	st.w	$r5,$r5,1276(0x4fc)
1c021d74:	2893f18a 	ld.w	$r10,$r12,1276(0x4fc)
1c021d78:	2893f086 	ld.w	$r6,$r4,1276(0x4fc)
1c021d7c:	2893f0a4 	ld.w	$r4,$r5,1276(0x4fc)
1c021d80:	2893f0a6 	ld.w	$r6,$r5,1276(0x4fc)
1c021d84:	5c05cd4b 	bne	$r10,$r11,1484(0x5cc) # 1c022350 <inst_error>
1c021d88:	15844d2d 	lu12i.w	$r13,-253335(0xc2269)
1c021d8c:	02b3f9ad 	addi.w	$r13,$r13,-770(0xcfe)
1c021d90:	14001b0c 	lu12i.w	$r12,216(0xd8)
1c021d94:	0287a18c 	addi.w	$r12,$r12,488(0x1e8)
1c021d98:	15844d2b 	lu12i.w	$r11,-253335(0xc2269)
1c021d9c:	02b3f96b 	addi.w	$r11,$r11,-770(0xcfe)
1c021da0:	2995518d 	st.w	$r13,$r12,1364(0x554)
1c021da4:	02801184 	addi.w	$r4,$r12,4(0x4)
1c021da8:	02bff185 	addi.w	$r5,$r12,-4(0xffc)
1c021dac:	29955084 	st.w	$r4,$r4,1364(0x554)
1c021db0:	299550a5 	st.w	$r5,$r5,1364(0x554)
1c021db4:	2895518a 	ld.w	$r10,$r12,1364(0x554)
1c021db8:	28955086 	ld.w	$r6,$r4,1364(0x554)
1c021dbc:	289550a4 	ld.w	$r4,$r5,1364(0x554)
1c021dc0:	289550a6 	ld.w	$r6,$r5,1364(0x554)
1c021dc4:	5c058d4b 	bne	$r10,$r11,1420(0x58c) # 1c022350 <inst_error>
1c021dc8:	142c228d 	lu12i.w	$r13,90388(0x16114)
1c021dcc:	029131ad 	addi.w	$r13,$r13,1100(0x44c)
1c021dd0:	14001a0c 	lu12i.w	$r12,208(0xd0)
1c021dd4:	0292118c 	addi.w	$r12,$r12,1156(0x484)
1c021dd8:	142c228b 	lu12i.w	$r11,90388(0x16114)
1c021ddc:	0291316b 	addi.w	$r11,$r11,1100(0x44c)
1c021de0:	29ba418d 	st.w	$r13,$r12,-368(0xe90)
1c021de4:	02801184 	addi.w	$r4,$r12,4(0x4)
1c021de8:	02bff185 	addi.w	$r5,$r12,-4(0xffc)
1c021dec:	29ba4084 	st.w	$r4,$r4,-368(0xe90)
1c021df0:	29ba40a5 	st.w	$r5,$r5,-368(0xe90)
1c021df4:	28ba418a 	ld.w	$r10,$r12,-368(0xe90)
1c021df8:	28ba4086 	ld.w	$r6,$r4,-368(0xe90)
1c021dfc:	28ba40a4 	ld.w	$r4,$r5,-368(0xe90)
1c021e00:	28ba40a6 	ld.w	$r6,$r5,-368(0xe90)
1c021e04:	5c054d4b 	bne	$r10,$r11,1356(0x54c) # 1c022350 <inst_error>
1c021e08:	146798ed 	lu12i.w	$r13,212167(0x33cc7)
1c021e0c:	02bca9ad 	addi.w	$r13,$r13,-214(0xf2a)
1c021e10:	14001aec 	lu12i.w	$r12,215(0xd7)
1c021e14:	0287718c 	addi.w	$r12,$r12,476(0x1dc)
1c021e18:	146798eb 	lu12i.w	$r11,212167(0x33cc7)
1c021e1c:	02bca96b 	addi.w	$r11,$r11,-214(0xf2a)
1c021e20:	2988c18d 	st.w	$r13,$r12,560(0x230)
1c021e24:	02801184 	addi.w	$r4,$r12,4(0x4)
1c021e28:	02bff185 	addi.w	$r5,$r12,-4(0xffc)
1c021e2c:	2988c084 	st.w	$r4,$r4,560(0x230)
1c021e30:	2988c0a5 	st.w	$r5,$r5,560(0x230)
1c021e34:	2888c18a 	ld.w	$r10,$r12,560(0x230)
1c021e38:	2888c086 	ld.w	$r6,$r4,560(0x230)
1c021e3c:	2888c0a4 	ld.w	$r4,$r5,560(0x230)
1c021e40:	2888c0a6 	ld.w	$r6,$r5,560(0x230)
1c021e44:	5c050d4b 	bne	$r10,$r11,1292(0x50c) # 1c022350 <inst_error>
1c021e48:	158568ed 	lu12i.w	$r13,-251065(0xc2b47)
1c021e4c:	02bc85ad 	addi.w	$r13,$r13,-223(0xf21)
1c021e50:	14001a2c 	lu12i.w	$r12,209(0xd1)
1c021e54:	028e218c 	addi.w	$r12,$r12,904(0x388)
1c021e58:	158568eb 	lu12i.w	$r11,-251065(0xc2b47)
1c021e5c:	02bc856b 	addi.w	$r11,$r11,-223(0xf21)
1c021e60:	2999918d 	st.w	$r13,$r12,1636(0x664)
1c021e64:	02801184 	addi.w	$r4,$r12,4(0x4)
1c021e68:	02bff185 	addi.w	$r5,$r12,-4(0xffc)
1c021e6c:	29999084 	st.w	$r4,$r4,1636(0x664)
1c021e70:	299990a5 	st.w	$r5,$r5,1636(0x664)
1c021e74:	2899918a 	ld.w	$r10,$r12,1636(0x664)
1c021e78:	28999086 	ld.w	$r6,$r4,1636(0x664)
1c021e7c:	289990a4 	ld.w	$r4,$r5,1636(0x664)
1c021e80:	289990a6 	ld.w	$r6,$r5,1636(0x664)
1c021e84:	5c04cd4b 	bne	$r10,$r11,1228(0x4cc) # 1c022350 <inst_error>
1c021e88:	14c750cd 	lu12i.w	$r13,408198(0x63a86)
1c021e8c:	028101ad 	addi.w	$r13,$r13,64(0x40)
1c021e90:	14001a0c 	lu12i.w	$r12,208(0xd0)
1c021e94:	028aa18c 	addi.w	$r12,$r12,680(0x2a8)
1c021e98:	14c750cb 	lu12i.w	$r11,408198(0x63a86)
1c021e9c:	0281016b 	addi.w	$r11,$r11,64(0x40)
1c021ea0:	29aec18d 	st.w	$r13,$r12,-1104(0xbb0)
1c021ea4:	02801184 	addi.w	$r4,$r12,4(0x4)
1c021ea8:	02bff185 	addi.w	$r5,$r12,-4(0xffc)
1c021eac:	29aec084 	st.w	$r4,$r4,-1104(0xbb0)
1c021eb0:	29aec0a5 	st.w	$r5,$r5,-1104(0xbb0)
1c021eb4:	28aec18a 	ld.w	$r10,$r12,-1104(0xbb0)
1c021eb8:	28aec086 	ld.w	$r6,$r4,-1104(0xbb0)
1c021ebc:	28aec0a4 	ld.w	$r4,$r5,-1104(0xbb0)
1c021ec0:	28aec0a6 	ld.w	$r6,$r5,-1104(0xbb0)
1c021ec4:	5c048d4b 	bne	$r10,$r11,1164(0x48c) # 1c022350 <inst_error>
1c021ec8:	15c11a8d 	lu12i.w	$r13,-128812(0xe08d4)
1c021ecc:	029741ad 	addi.w	$r13,$r13,1488(0x5d0)
1c021ed0:	14001a4c 	lu12i.w	$r12,210(0xd2)
1c021ed4:	02b4518c 	addi.w	$r12,$r12,-748(0xd14)
1c021ed8:	15c11a8b 	lu12i.w	$r11,-128812(0xe08d4)
1c021edc:	0297416b 	addi.w	$r11,$r11,1488(0x5d0)
1c021ee0:	29b6b18d 	st.w	$r13,$r12,-596(0xdac)
1c021ee4:	02801184 	addi.w	$r4,$r12,4(0x4)
1c021ee8:	02bff185 	addi.w	$r5,$r12,-4(0xffc)
1c021eec:	29b6b084 	st.w	$r4,$r4,-596(0xdac)
1c021ef0:	29b6b0a5 	st.w	$r5,$r5,-596(0xdac)
1c021ef4:	28b6b18a 	ld.w	$r10,$r12,-596(0xdac)
1c021ef8:	28b6b086 	ld.w	$r6,$r4,-596(0xdac)
1c021efc:	28b6b0a4 	ld.w	$r4,$r5,-596(0xdac)
1c021f00:	28b6b0a6 	ld.w	$r6,$r5,-596(0xdac)
1c021f04:	5c044d4b 	bne	$r10,$r11,1100(0x44c) # 1c022350 <inst_error>
1c021f08:	15e7072d 	lu12i.w	$r13,-51143(0xf3839)
1c021f0c:	028821ad 	addi.w	$r13,$r13,520(0x208)
1c021f10:	14001aac 	lu12i.w	$r12,213(0xd5)
1c021f14:	028c218c 	addi.w	$r12,$r12,776(0x308)
1c021f18:	15e7072b 	lu12i.w	$r11,-51143(0xf3839)
1c021f1c:	0288216b 	addi.w	$r11,$r11,520(0x208)
1c021f20:	2981b18d 	st.w	$r13,$r12,108(0x6c)
1c021f24:	02801184 	addi.w	$r4,$r12,4(0x4)
1c021f28:	02bff185 	addi.w	$r5,$r12,-4(0xffc)
1c021f2c:	2981b084 	st.w	$r4,$r4,108(0x6c)
1c021f30:	2981b0a5 	st.w	$r5,$r5,108(0x6c)
1c021f34:	2881b18a 	ld.w	$r10,$r12,108(0x6c)
1c021f38:	2881b086 	ld.w	$r6,$r4,108(0x6c)
1c021f3c:	2881b0a4 	ld.w	$r4,$r5,108(0x6c)
1c021f40:	2881b0a6 	ld.w	$r6,$r5,108(0x6c)
1c021f44:	5c040d4b 	bne	$r10,$r11,1036(0x40c) # 1c022350 <inst_error>
1c021f48:	1484d20d 	lu12i.w	$r13,272016(0x42690)
1c021f4c:	02b4e1ad 	addi.w	$r13,$r13,-712(0xd38)
1c021f50:	14001a8c 	lu12i.w	$r12,212(0xd4)
1c021f54:	02bc018c 	addi.w	$r12,$r12,-256(0xf00)
1c021f58:	1484d20b 	lu12i.w	$r11,272016(0x42690)
1c021f5c:	02b4e16b 	addi.w	$r11,$r11,-712(0xd38)
1c021f60:	2983018d 	st.w	$r13,$r12,192(0xc0)
1c021f64:	02801184 	addi.w	$r4,$r12,4(0x4)
1c021f68:	02bff185 	addi.w	$r5,$r12,-4(0xffc)
1c021f6c:	29830084 	st.w	$r4,$r4,192(0xc0)
1c021f70:	298300a5 	st.w	$r5,$r5,192(0xc0)
1c021f74:	2883018a 	ld.w	$r10,$r12,192(0xc0)
1c021f78:	28830086 	ld.w	$r6,$r4,192(0xc0)
1c021f7c:	288300a4 	ld.w	$r4,$r5,192(0xc0)
1c021f80:	288300a6 	ld.w	$r6,$r5,192(0xc0)
1c021f84:	5c03cd4b 	bne	$r10,$r11,972(0x3cc) # 1c022350 <inst_error>
1c021f88:	142502cd 	lu12i.w	$r13,75798(0x12816)
1c021f8c:	028a01ad 	addi.w	$r13,$r13,640(0x280)
1c021f90:	14001a4c 	lu12i.w	$r12,210(0xd2)
1c021f94:	02ae518c 	addi.w	$r12,$r12,-1132(0xb94)
1c021f98:	142502cb 	lu12i.w	$r11,75798(0x12816)
1c021f9c:	028a016b 	addi.w	$r11,$r11,640(0x280)
1c021fa0:	29a2818d 	st.w	$r13,$r12,-1888(0x8a0)
1c021fa4:	02801184 	addi.w	$r4,$r12,4(0x4)
1c021fa8:	02bff185 	addi.w	$r5,$r12,-4(0xffc)
1c021fac:	29a28084 	st.w	$r4,$r4,-1888(0x8a0)
1c021fb0:	29a280a5 	st.w	$r5,$r5,-1888(0x8a0)
1c021fb4:	28a2818a 	ld.w	$r10,$r12,-1888(0x8a0)
1c021fb8:	28a28086 	ld.w	$r6,$r4,-1888(0x8a0)
1c021fbc:	28a280a4 	ld.w	$r4,$r5,-1888(0x8a0)
1c021fc0:	28a280a6 	ld.w	$r6,$r5,-1888(0x8a0)
1c021fc4:	5c038d4b 	bne	$r10,$r11,908(0x38c) # 1c022350 <inst_error>
1c021fc8:	14a8096d 	lu12i.w	$r13,344139(0x5404b)
1c021fcc:	029259ad 	addi.w	$r13,$r13,1174(0x496)
1c021fd0:	14001a2c 	lu12i.w	$r12,209(0xd1)
1c021fd4:	029a618c 	addi.w	$r12,$r12,1688(0x698)
1c021fd8:	14a8096b 	lu12i.w	$r11,344139(0x5404b)
1c021fdc:	0292596b 	addi.w	$r11,$r11,1174(0x496)
1c021fe0:	29ba218d 	st.w	$r13,$r12,-376(0xe88)
1c021fe4:	02801184 	addi.w	$r4,$r12,4(0x4)
1c021fe8:	02bff185 	addi.w	$r5,$r12,-4(0xffc)
1c021fec:	29ba2084 	st.w	$r4,$r4,-376(0xe88)
1c021ff0:	29ba20a5 	st.w	$r5,$r5,-376(0xe88)
1c021ff4:	28ba218a 	ld.w	$r10,$r12,-376(0xe88)
1c021ff8:	28ba2086 	ld.w	$r6,$r4,-376(0xe88)
1c021ffc:	28ba20a4 	ld.w	$r4,$r5,-376(0xe88)
1c022000:	28ba20a6 	ld.w	$r6,$r5,-376(0xe88)
1c022004:	5c034d4b 	bne	$r10,$r11,844(0x34c) # 1c022350 <inst_error>
1c022008:	15e2384d 	lu12i.w	$r13,-60990(0xf11c2)
1c02200c:	02b009ad 	addi.w	$r13,$r13,-1022(0xc02)
1c022010:	14001a4c 	lu12i.w	$r12,210(0xd2)
1c022014:	02b7818c 	addi.w	$r12,$r12,-544(0xde0)
1c022018:	15e2384b 	lu12i.w	$r11,-60990(0xf11c2)
1c02201c:	02b0096b 	addi.w	$r11,$r11,-1022(0xc02)
1c022020:	29af218d 	st.w	$r13,$r12,-1080(0xbc8)
1c022024:	02801184 	addi.w	$r4,$r12,4(0x4)
1c022028:	02bff185 	addi.w	$r5,$r12,-4(0xffc)
1c02202c:	29af2084 	st.w	$r4,$r4,-1080(0xbc8)
1c022030:	29af20a5 	st.w	$r5,$r5,-1080(0xbc8)
1c022034:	28af218a 	ld.w	$r10,$r12,-1080(0xbc8)
1c022038:	28af2086 	ld.w	$r6,$r4,-1080(0xbc8)
1c02203c:	28af20a4 	ld.w	$r4,$r5,-1080(0xbc8)
1c022040:	28af20a6 	ld.w	$r6,$r5,-1080(0xbc8)
1c022044:	5c030d4b 	bne	$r10,$r11,780(0x30c) # 1c022350 <inst_error>
1c022048:	1462122d 	lu12i.w	$r13,200849(0x31091)
1c02204c:	02b689ad 	addi.w	$r13,$r13,-606(0xda2)
1c022050:	14001b2c 	lu12i.w	$r12,217(0xd9)
1c022054:	0290018c 	addi.w	$r12,$r12,1024(0x400)
1c022058:	1462122b 	lu12i.w	$r11,200849(0x31091)
1c02205c:	02b6896b 	addi.w	$r11,$r11,-606(0xda2)
1c022060:	2985418d 	st.w	$r13,$r12,336(0x150)
1c022064:	02801184 	addi.w	$r4,$r12,4(0x4)
1c022068:	02bff185 	addi.w	$r5,$r12,-4(0xffc)
1c02206c:	29854084 	st.w	$r4,$r4,336(0x150)
1c022070:	298540a5 	st.w	$r5,$r5,336(0x150)
1c022074:	2885418a 	ld.w	$r10,$r12,336(0x150)
1c022078:	28854086 	ld.w	$r6,$r4,336(0x150)
1c02207c:	288540a4 	ld.w	$r4,$r5,336(0x150)
1c022080:	288540a6 	ld.w	$r6,$r5,336(0x150)
1c022084:	5c02cd4b 	bne	$r10,$r11,716(0x2cc) # 1c022350 <inst_error>
1c022088:	1529014d 	lu12i.w	$r13,-440310(0x9480a)
1c02208c:	02ad41ad 	addi.w	$r13,$r13,-1200(0xb50)
1c022090:	14001a4c 	lu12i.w	$r12,210(0xd2)
1c022094:	029f218c 	addi.w	$r12,$r12,1992(0x7c8)
1c022098:	1529014b 	lu12i.w	$r11,-440310(0x9480a)
1c02209c:	02ad416b 	addi.w	$r11,$r11,-1200(0xb50)
1c0220a0:	298b018d 	st.w	$r13,$r12,704(0x2c0)
1c0220a4:	02801184 	addi.w	$r4,$r12,4(0x4)
1c0220a8:	02bff185 	addi.w	$r5,$r12,-4(0xffc)
1c0220ac:	298b0084 	st.w	$r4,$r4,704(0x2c0)
1c0220b0:	298b00a5 	st.w	$r5,$r5,704(0x2c0)
1c0220b4:	288b018a 	ld.w	$r10,$r12,704(0x2c0)
1c0220b8:	288b0086 	ld.w	$r6,$r4,704(0x2c0)
1c0220bc:	288b00a4 	ld.w	$r4,$r5,704(0x2c0)
1c0220c0:	288b00a6 	ld.w	$r6,$r5,704(0x2c0)
1c0220c4:	5c028d4b 	bne	$r10,$r11,652(0x28c) # 1c022350 <inst_error>
1c0220c8:	15fe3dad 	lu12i.w	$r13,-3603(0xff1ed)
1c0220cc:	028df1ad 	addi.w	$r13,$r13,892(0x37c)
1c0220d0:	14001a2c 	lu12i.w	$r12,209(0xd1)
1c0220d4:	0292218c 	addi.w	$r12,$r12,1160(0x488)
1c0220d8:	15fe3dab 	lu12i.w	$r11,-3603(0xff1ed)
1c0220dc:	028df16b 	addi.w	$r11,$r11,892(0x37c)
1c0220e0:	29b5918d 	st.w	$r13,$r12,-668(0xd64)
1c0220e4:	02801184 	addi.w	$r4,$r12,4(0x4)
1c0220e8:	02bff185 	addi.w	$r5,$r12,-4(0xffc)
1c0220ec:	29b59084 	st.w	$r4,$r4,-668(0xd64)
1c0220f0:	29b590a5 	st.w	$r5,$r5,-668(0xd64)
1c0220f4:	28b5918a 	ld.w	$r10,$r12,-668(0xd64)
1c0220f8:	28b59086 	ld.w	$r6,$r4,-668(0xd64)
1c0220fc:	28b590a4 	ld.w	$r4,$r5,-668(0xd64)
1c022100:	28b590a6 	ld.w	$r6,$r5,-668(0xd64)
1c022104:	5c024d4b 	bne	$r10,$r11,588(0x24c) # 1c022350 <inst_error>
1c022108:	14bc47ad 	lu12i.w	$r13,385597(0x5e23d)
1c02210c:	028801ad 	addi.w	$r13,$r13,512(0x200)
1c022110:	14001b4c 	lu12i.w	$r12,218(0xda)
1c022114:	0281d18c 	addi.w	$r12,$r12,116(0x74)
1c022118:	14bc47ab 	lu12i.w	$r11,385597(0x5e23d)
1c02211c:	0288016b 	addi.w	$r11,$r11,512(0x200)
1c022120:	2989618d 	st.w	$r13,$r12,600(0x258)
1c022124:	02801184 	addi.w	$r4,$r12,4(0x4)
1c022128:	02bff185 	addi.w	$r5,$r12,-4(0xffc)
1c02212c:	29896084 	st.w	$r4,$r4,600(0x258)
1c022130:	298960a5 	st.w	$r5,$r5,600(0x258)
1c022134:	2889618a 	ld.w	$r10,$r12,600(0x258)
1c022138:	28896086 	ld.w	$r6,$r4,600(0x258)
1c02213c:	288960a4 	ld.w	$r4,$r5,600(0x258)
1c022140:	288960a6 	ld.w	$r6,$r5,600(0x258)
1c022144:	5c020d4b 	bne	$r10,$r11,524(0x20c) # 1c022350 <inst_error>
1c022148:	14d1062d 	lu12i.w	$r13,428081(0x68831)
1c02214c:	028921ad 	addi.w	$r13,$r13,584(0x248)
1c022150:	14001acc 	lu12i.w	$r12,214(0xd6)
1c022154:	028fb18c 	addi.w	$r12,$r12,1004(0x3ec)
1c022158:	14d1062b 	lu12i.w	$r11,428081(0x68831)
1c02215c:	0289216b 	addi.w	$r11,$r11,584(0x248)
1c022160:	2995018d 	st.w	$r13,$r12,1344(0x540)
1c022164:	02801184 	addi.w	$r4,$r12,4(0x4)
1c022168:	02bff185 	addi.w	$r5,$r12,-4(0xffc)
1c02216c:	29950084 	st.w	$r4,$r4,1344(0x540)
1c022170:	299500a5 	st.w	$r5,$r5,1344(0x540)
1c022174:	2895018a 	ld.w	$r10,$r12,1344(0x540)
1c022178:	28950086 	ld.w	$r6,$r4,1344(0x540)
1c02217c:	289500a4 	ld.w	$r4,$r5,1344(0x540)
1c022180:	289500a6 	ld.w	$r6,$r5,1344(0x540)
1c022184:	5c01cd4b 	bne	$r10,$r11,460(0x1cc) # 1c022350 <inst_error>
1c022188:	148ab1ed 	lu12i.w	$r13,284047(0x4558f)
1c02218c:	02a441ad 	addi.w	$r13,$r13,-1776(0x910)
1c022190:	14001a2c 	lu12i.w	$r12,209(0xd1)
1c022194:	02b3018c 	addi.w	$r12,$r12,-832(0xcc0)
1c022198:	148ab1eb 	lu12i.w	$r11,284047(0x4558f)
1c02219c:	02a4416b 	addi.w	$r11,$r11,-1776(0x910)
1c0221a0:	298e318d 	st.w	$r13,$r12,908(0x38c)
1c0221a4:	02801184 	addi.w	$r4,$r12,4(0x4)
1c0221a8:	02bff185 	addi.w	$r5,$r12,-4(0xffc)
1c0221ac:	298e3084 	st.w	$r4,$r4,908(0x38c)
1c0221b0:	298e30a5 	st.w	$r5,$r5,908(0x38c)
1c0221b4:	288e318a 	ld.w	$r10,$r12,908(0x38c)
1c0221b8:	288e3086 	ld.w	$r6,$r4,908(0x38c)
1c0221bc:	288e30a4 	ld.w	$r4,$r5,908(0x38c)
1c0221c0:	288e30a6 	ld.w	$r6,$r5,908(0x38c)
1c0221c4:	5c018d4b 	bne	$r10,$r11,396(0x18c) # 1c022350 <inst_error>
1c0221c8:	1593064d 	lu12i.w	$r13,-223182(0xc9832)
1c0221cc:	029ec1ad 	addi.w	$r13,$r13,1968(0x7b0)
1c0221d0:	14001a0c 	lu12i.w	$r12,208(0xd0)
1c0221d4:	0293818c 	addi.w	$r12,$r12,1248(0x4e0)
1c0221d8:	1593064b 	lu12i.w	$r11,-223182(0xc9832)
1c0221dc:	029ec16b 	addi.w	$r11,$r11,1968(0x7b0)
1c0221e0:	29a8218d 	st.w	$r13,$r12,-1528(0xa08)
1c0221e4:	02801184 	addi.w	$r4,$r12,4(0x4)
1c0221e8:	02bff185 	addi.w	$r5,$r12,-4(0xffc)
1c0221ec:	29a82084 	st.w	$r4,$r4,-1528(0xa08)
1c0221f0:	29a820a5 	st.w	$r5,$r5,-1528(0xa08)
1c0221f4:	28a8218a 	ld.w	$r10,$r12,-1528(0xa08)
1c0221f8:	28a82086 	ld.w	$r6,$r4,-1528(0xa08)
1c0221fc:	28a820a4 	ld.w	$r4,$r5,-1528(0xa08)
1c022200:	28a820a6 	ld.w	$r6,$r5,-1528(0xa08)
1c022204:	5c014d4b 	bne	$r10,$r11,332(0x14c) # 1c022350 <inst_error>
1c022208:	15fd45ed 	lu12i.w	$r13,-5585(0xfea2f)
1c02220c:	0286b5ad 	addi.w	$r13,$r13,429(0x1ad)
1c022210:	14001a4c 	lu12i.w	$r12,210(0xd2)
1c022214:	02ada18c 	addi.w	$r12,$r12,-1176(0xb68)
1c022218:	15fd45eb 	lu12i.w	$r11,-5585(0xfea2f)
1c02221c:	0286b56b 	addi.w	$r11,$r11,429(0x1ad)
1c022220:	29abb18d 	st.w	$r13,$r12,-1300(0xaec)
1c022224:	02801184 	addi.w	$r4,$r12,4(0x4)
1c022228:	02bff185 	addi.w	$r5,$r12,-4(0xffc)
1c02222c:	29abb084 	st.w	$r4,$r4,-1300(0xaec)
1c022230:	29abb0a5 	st.w	$r5,$r5,-1300(0xaec)
1c022234:	28abb18a 	ld.w	$r10,$r12,-1300(0xaec)
1c022238:	28abb086 	ld.w	$r6,$r4,-1300(0xaec)
1c02223c:	28abb0a4 	ld.w	$r4,$r5,-1300(0xaec)
1c022240:	28abb0a6 	ld.w	$r6,$r5,-1300(0xaec)
1c022244:	5c010d4b 	bne	$r10,$r11,268(0x10c) # 1c022350 <inst_error>
1c022248:	1558a56d 	lu12i.w	$r13,-342741(0xac52b)
1c02224c:	028d51ad 	addi.w	$r13,$r13,852(0x354)
1c022250:	14001a0c 	lu12i.w	$r12,208(0xd0)
1c022254:	0280018c 	addi.w	$r12,$r12,0
1c022258:	1558a56b 	lu12i.w	$r11,-342741(0xac52b)
1c02225c:	028d516b 	addi.w	$r11,$r11,852(0x354)
1c022260:	29b3718d 	st.w	$r13,$r12,-804(0xcdc)
1c022264:	02801184 	addi.w	$r4,$r12,4(0x4)
1c022268:	02bff185 	addi.w	$r5,$r12,-4(0xffc)
1c02226c:	29b37084 	st.w	$r4,$r4,-804(0xcdc)
1c022270:	29b370a5 	st.w	$r5,$r5,-804(0xcdc)
1c022274:	28b3718a 	ld.w	$r10,$r12,-804(0xcdc)
1c022278:	28b37086 	ld.w	$r6,$r4,-804(0xcdc)
1c02227c:	28b370a4 	ld.w	$r4,$r5,-804(0xcdc)
1c022280:	28b370a6 	ld.w	$r6,$r5,-804(0xcdc)
1c022284:	5c00cd4b 	bne	$r10,$r11,204(0xcc) # 1c022350 <inst_error>
1c022288:	149ec26d 	lu12i.w	$r13,325139(0x4f613)
1c02228c:	02b6d1ad 	addi.w	$r13,$r13,-588(0xdb4)
1c022290:	14001a0c 	lu12i.w	$r12,208(0xd0)
1c022294:	0280018c 	addi.w	$r12,$r12,0
1c022298:	149ec26b 	lu12i.w	$r11,325139(0x4f613)
1c02229c:	02b6d16b 	addi.w	$r11,$r11,-588(0xdb4)
1c0222a0:	2991d18d 	st.w	$r13,$r12,1140(0x474)
1c0222a4:	02801184 	addi.w	$r4,$r12,4(0x4)
1c0222a8:	02bff185 	addi.w	$r5,$r12,-4(0xffc)
1c0222ac:	2991d084 	st.w	$r4,$r4,1140(0x474)
1c0222b0:	2991d0a5 	st.w	$r5,$r5,1140(0x474)
1c0222b4:	2891d18a 	ld.w	$r10,$r12,1140(0x474)
1c0222b8:	2891d086 	ld.w	$r6,$r4,1140(0x474)
1c0222bc:	2891d0a4 	ld.w	$r4,$r5,1140(0x474)
1c0222c0:	2891d0a6 	ld.w	$r6,$r5,1140(0x474)
1c0222c4:	5c008d4b 	bne	$r10,$r11,140(0x8c) # 1c022350 <inst_error>
1c0222c8:	1503c94d 	lu12i.w	$r13,-516534(0x81e4a)
1c0222cc:	0294b1ad 	addi.w	$r13,$r13,1324(0x52c)
1c0222d0:	14001a0c 	lu12i.w	$r12,208(0xd0)
1c0222d4:	0280018c 	addi.w	$r12,$r12,0
1c0222d8:	1503c94b 	lu12i.w	$r11,-516534(0x81e4a)
1c0222dc:	0294b16b 	addi.w	$r11,$r11,1324(0x52c)
1c0222e0:	298dc18d 	st.w	$r13,$r12,880(0x370)
1c0222e4:	02801184 	addi.w	$r4,$r12,4(0x4)
1c0222e8:	02bff185 	addi.w	$r5,$r12,-4(0xffc)
1c0222ec:	298dc084 	st.w	$r4,$r4,880(0x370)
1c0222f0:	298dc0a5 	st.w	$r5,$r5,880(0x370)
1c0222f4:	288dc18a 	ld.w	$r10,$r12,880(0x370)
1c0222f8:	288dc086 	ld.w	$r6,$r4,880(0x370)
1c0222fc:	288dc0a4 	ld.w	$r4,$r5,880(0x370)
1c022300:	288dc0a6 	ld.w	$r6,$r5,880(0x370)
1c022304:	5c004d4b 	bne	$r10,$r11,76(0x4c) # 1c022350 <inst_error>
1c022308:	14d6c2ad 	lu12i.w	$r13,439829(0x6b615)
1c02230c:	028951ad 	addi.w	$r13,$r13,596(0x254)
1c022310:	14001a0c 	lu12i.w	$r12,208(0xd0)
1c022314:	0280018c 	addi.w	$r12,$r12,0
1c022318:	14d6c2ab 	lu12i.w	$r11,439829(0x6b615)
1c02231c:	0289516b 	addi.w	$r11,$r11,596(0x254)
1c022320:	299e718d 	st.w	$r13,$r12,1948(0x79c)
1c022324:	02801184 	addi.w	$r4,$r12,4(0x4)
1c022328:	02bff185 	addi.w	$r5,$r12,-4(0xffc)
1c02232c:	299e7084 	st.w	$r4,$r4,1948(0x79c)
1c022330:	299e70a5 	st.w	$r5,$r5,1948(0x79c)
1c022334:	289e718a 	ld.w	$r10,$r12,1948(0x79c)
1c022338:	289e7086 	ld.w	$r6,$r4,1948(0x79c)
1c02233c:	289e70a4 	ld.w	$r4,$r5,1948(0x79c)
1c022340:	289e70a6 	ld.w	$r6,$r5,1948(0x79c)
1c022344:	5c000d4b 	bne	$r10,$r11,12(0xc) # 1c022350 <inst_error>
1c022348:	5c000b20 	bne	$r25,$r0,8(0x8) # 1c022350 <inst_error>
1c02234c:	0280075a 	addi.w	$r26,$r26,1(0x1)

1c022350 <inst_error>:
1c022350:	0040e2ed 	slli.w	$r13,$r23,0x18
1c022354:	001569ac 	or	$r12,$r13,$r26
1c022358:	2980030c 	st.w	$r12,$r24,0
1c02235c:	4c000020 	jirl	$r0,$r1,0

Disassembly of section .eh_frame:

1c022360 <.eh_frame>:
1c022360:	00000010 	0x00000010
1c022364:	00000000 	0x00000000
1c022368:	00527a01 	0x00527a01
1c02236c:	01017c01 	fadd.d	$f1,$f0,$f31
1c022370:	00030d0b 	0x00030d0b
1c022374:	00000010 	0x00000010
1c022378:	00000018 	0x00000018
1c02237c:	1c0101a0 	pcaddu12i	$r0,2061(0x80d)
1c022380:	00000018 	0x00000018
1c022384:	00000000 	0x00000000
1c022388:	00000010 	0x00000010
1c02238c:	0000002c 	0x0000002c
1c022390:	1c0101b8 	pcaddu12i	$r24,2061(0x80d)
1c022394:	00000030 	0x00000030
1c022398:	00000000 	0x00000000
1c02239c:	00000010 	0x00000010
1c0223a0:	00000040 	0x00000040
1c0223a4:	1c0101e8 	pcaddu12i	$r8,2063(0x80f)
1c0223a8:	00000054 	0x00000054
1c0223ac:	00000000 	0x00000000
1c0223b0:	00000010 	0x00000010
1c0223b4:	00000054 	0x00000054
1c0223b8:	1c010240 	pcaddu12i	$r0,2066(0x812)
1c0223bc:	00000054 	0x00000054
1c0223c0:	00000000 	0x00000000
1c0223c4:	00000010 	0x00000010
1c0223c8:	00000068 	0x00000068
1c0223cc:	1c010298 	pcaddu12i	$r24,2068(0x814)
1c0223d0:	000003c4 	0x000003c4
1c0223d4:	00000000 	0x00000000
1c0223d8:	00000010 	0x00000010
1c0223dc:	0000007c 	0x0000007c
1c0223e0:	1c010660 	pcaddu12i	$r0,2099(0x833)
1c0223e4:	000075b4 	0x000075b4
1c0223e8:	00000000 	0x00000000
1c0223ec:	00000010 	0x00000010
1c0223f0:	00000090 	0x00000090
1c0223f4:	1c017c18 	pcaddu12i	$r24,3040(0xbe0)
1c0223f8:	00000680 	0x00000680
1c0223fc:	00000000 	0x00000000
1c022400:	00000010 	0x00000010
1c022404:	000000a4 	0x000000a4
1c022408:	1c018298 	pcaddu12i	$r24,3092(0xc14)
1c02240c:	00000b00 	0x00000b00
1c022410:	00000000 	0x00000000
1c022414:	00000010 	0x00000010
1c022418:	000000b8 	0x000000b8
1c02241c:	1c018d98 	pcaddu12i	$r24,3180(0xc6c)
1c022420:	00000e94 	0x00000e94
1c022424:	00000000 	0x00000000
1c022428:	00000010 	0x00000010
1c02242c:	000000cc 	0x000000cc
1c022430:	1c019c30 	pcaddu12i	$r16,3297(0xce1)
1c022434:	00000700 	0x00000700
1c022438:	00000000 	0x00000000
1c02243c:	00000010 	0x00000010
1c022440:	000000e0 	0x000000e0
1c022444:	1c01a330 	pcaddu12i	$r16,3353(0xd19)
1c022448:	000003c8 	0x000003c8
1c02244c:	00000000 	0x00000000
1c022450:	00000010 	0x00000010
1c022454:	000000f4 	0x000000f4
1c022458:	1c01a6f8 	pcaddu12i	$r24,3383(0xd37)
1c02245c:	000003f0 	0x000003f0
1c022460:	00000000 	0x00000000
1c022464:	00000010 	0x00000010
1c022468:	00000108 	0x00000108
1c02246c:	1c01aae8 	pcaddu12i	$r8,3415(0xd57)
1c022470:	00001b58 	cto.w	$r24,$r26
1c022474:	00000000 	0x00000000
1c022478:	00000010 	0x00000010
1c02247c:	0000011c 	0x0000011c
1c022480:	1c01c640 	pcaddu12i	$r0,3634(0xe32)
1c022484:	00000668 	0x00000668
1c022488:	00000000 	0x00000000
1c02248c:	00000010 	0x00000010
1c022490:	00000130 	0x00000130
1c022494:	1c01cca8 	pcaddu12i	$r8,3685(0xe65)
1c022498:	000001a0 	0x000001a0
1c02249c:	00000000 	0x00000000
1c0224a0:	00000010 	0x00000010
1c0224a4:	00000144 	0x00000144
1c0224a8:	1c01ce48 	pcaddu12i	$r8,3698(0xe72)
1c0224ac:	000005a0 	0x000005a0
1c0224b0:	00000000 	0x00000000
1c0224b4:	00000010 	0x00000010
1c0224b8:	00000158 	0x00000158
1c0224bc:	1c01d3e8 	pcaddu12i	$r8,3743(0xe9f)
1c0224c0:	00000d40 	0x00000d40
1c0224c4:	00000000 	0x00000000
1c0224c8:	00000010 	0x00000010
1c0224cc:	0000016c 	0x0000016c
1c0224d0:	1c01e128 	pcaddu12i	$r8,3849(0xf09)
1c0224d4:	000003c8 	0x000003c8
1c0224d8:	00000000 	0x00000000
1c0224dc:	00000010 	0x00000010
1c0224e0:	00000180 	0x00000180
1c0224e4:	1c01e4f0 	pcaddu12i	$r16,3879(0xf27)
1c0224e8:	00000b80 	0x00000b80
1c0224ec:	00000000 	0x00000000
1c0224f0:	00000010 	0x00000010
1c0224f4:	00000194 	0x00000194
1c0224f8:	1c01f070 	pcaddu12i	$r16,3971(0xf83)
1c0224fc:	00000720 	0x00000720
1c022500:	00000000 	0x00000000
1c022504:	00000010 	0x00000010
1c022508:	000001a8 	0x000001a8
1c02250c:	1c01f790 	pcaddu12i	$r16,4028(0xfbc)
1c022510:	00000d00 	0x00000d00
1c022514:	00000000 	0x00000000
1c022518:	00000010 	0x00000010
1c02251c:	000001bc 	0x000001bc
1c022520:	1c020490 	pcaddu12i	$r16,4132(0x1024)
1c022524:	000005c0 	0x000005c0
1c022528:	00000000 	0x00000000
1c02252c:	00000010 	0x00000010
1c022530:	000001d0 	0x000001d0
1c022534:	1c020a50 	pcaddu12i	$r16,4178(0x1052)
1c022538:	00000650 	0x00000650
1c02253c:	00000000 	0x00000000
1c022540:	00000010 	0x00000010
1c022544:	000001e4 	0x000001e4
1c022548:	1c0210a0 	pcaddu12i	$r0,4229(0x1085)
1c02254c:	000009a0 	0x000009a0
1c022550:	00000000 	0x00000000
1c022554:	00000010 	0x00000010
1c022558:	000001f8 	0x000001f8
1c02255c:	1c021a40 	pcaddu12i	$r0,4306(0x10d2)
1c022560:	00000920 	0x00000920
1c022564:	00000000 	0x00000000
